
firmware_liquids.elf:     file format elf32-littlearm

Sections:
Idx Name          Size      VMA       LMA       File off  Algn
  0 .isr_vector   000001d8  08000000  08000000  00010000  2**0
                  CONTENTS, ALLOC, LOAD, READONLY, DATA
  1 .text         00008c00  080001d8  080001d8  000101d8  2**2
                  CONTENTS, ALLOC, LOAD, READONLY, CODE
  2 .rodata       00001298  08008dd8  08008dd8  00018dd8  2**2
                  CONTENTS, ALLOC, LOAD, READONLY, DATA
  3 .ARM.extab    00000000  0800a070  0800a070  00020784  2**0
                  CONTENTS
  4 .ARM          00000000  0800a070  0800a070  00020784  2**0
                  CONTENTS
  5 .preinit_array 00000000  0800a070  0800a070  00020784  2**0
                  CONTENTS, ALLOC, LOAD, DATA
  6 .init_array   00000004  0800a070  0800a070  0001a070  2**2
                  CONTENTS, ALLOC, LOAD, DATA
  7 .fini_array   00000004  0800a074  0800a074  0001a074  2**2
                  CONTENTS, ALLOC, LOAD, DATA
  8 .data         00000784  20000000  0800a078  00020000  2**2
                  CONTENTS, ALLOC, LOAD, DATA
  9 .bss          000003ec  20000788  0800a7fc  00020788  2**3
                  ALLOC
 10 ._user_heap_stack 00000604  20000b74  0800a7fc  00020b74  2**0
                  ALLOC
 11 .ARM.attributes 00000030  00000000  00000000  00020784  2**0
                  CONTENTS, READONLY
 12 .debug_info   0002570d  00000000  00000000  000207b4  2**0
                  CONTENTS, READONLY, DEBUGGING, OCTETS
 13 .debug_abbrev 00005fa7  00000000  00000000  00045ec1  2**0
                  CONTENTS, READONLY, DEBUGGING, OCTETS
 14 .debug_aranges 00001708  00000000  00000000  0004be68  2**3
                  CONTENTS, READONLY, DEBUGGING, OCTETS
 15 .debug_ranges 00001510  00000000  00000000  0004d570  2**3
                  CONTENTS, READONLY, DEBUGGING, OCTETS
 16 .debug_macro  0002a731  00000000  00000000  0004ea80  2**0
                  CONTENTS, READONLY, DEBUGGING, OCTETS
 17 .debug_line   00016e4f  00000000  00000000  000791b1  2**0
                  CONTENTS, READONLY, DEBUGGING, OCTETS
 18 .debug_str    000ddef9  00000000  00000000  00090000  2**0
                  CONTENTS, READONLY, DEBUGGING, OCTETS
 19 .comment      00000053  00000000  00000000  0016def9  2**0
                  CONTENTS, READONLY
 20 .debug_frame  000063b8  00000000  00000000  0016df4c  2**2
                  CONTENTS, READONLY, DEBUGGING, OCTETS

Disassembly of section .text:

080001d8 <__do_global_dtors_aux>:
 80001d8:	b510      	push	{r4, lr}
 80001da:	4c05      	ldr	r4, [pc, #20]	; (80001f0 <__do_global_dtors_aux+0x18>)
 80001dc:	7823      	ldrb	r3, [r4, #0]
 80001de:	b933      	cbnz	r3, 80001ee <__do_global_dtors_aux+0x16>
 80001e0:	4b04      	ldr	r3, [pc, #16]	; (80001f4 <__do_global_dtors_aux+0x1c>)
 80001e2:	b113      	cbz	r3, 80001ea <__do_global_dtors_aux+0x12>
 80001e4:	4804      	ldr	r0, [pc, #16]	; (80001f8 <__do_global_dtors_aux+0x20>)
 80001e6:	f3af 8000 	nop.w
 80001ea:	2301      	movs	r3, #1
 80001ec:	7023      	strb	r3, [r4, #0]
 80001ee:	bd10      	pop	{r4, pc}
 80001f0:	20000788 	.word	0x20000788
 80001f4:	00000000 	.word	0x00000000
 80001f8:	08008dc0 	.word	0x08008dc0

080001fc <frame_dummy>:
 80001fc:	b508      	push	{r3, lr}
 80001fe:	4b03      	ldr	r3, [pc, #12]	; (800020c <frame_dummy+0x10>)
 8000200:	b11b      	cbz	r3, 800020a <frame_dummy+0xe>
 8000202:	4903      	ldr	r1, [pc, #12]	; (8000210 <frame_dummy+0x14>)
 8000204:	4803      	ldr	r0, [pc, #12]	; (8000214 <frame_dummy+0x18>)
 8000206:	f3af 8000 	nop.w
 800020a:	bd08      	pop	{r3, pc}
 800020c:	00000000 	.word	0x00000000
 8000210:	2000078c 	.word	0x2000078c
 8000214:	08008dc0 	.word	0x08008dc0

08000218 <_ZN11AbstractComC1Em>:
#include <AbstractCom.h>

AbstractCom::AbstractCom(uint32_t nodeId) :
 8000218:	b480      	push	{r7}
 800021a:	b083      	sub	sp, #12
 800021c:	af00      	add	r7, sp, #0
 800021e:	6078      	str	r0, [r7, #4]
 8000220:	6039      	str	r1, [r7, #0]
		nodeId(nodeId)
 8000222:	4a06      	ldr	r2, [pc, #24]	; (800023c <_ZN11AbstractComC1Em+0x24>)
 8000224:	687b      	ldr	r3, [r7, #4]
 8000226:	601a      	str	r2, [r3, #0]
 8000228:	687b      	ldr	r3, [r7, #4]
 800022a:	683a      	ldr	r2, [r7, #0]
 800022c:	605a      	str	r2, [r3, #4]
{
}
 800022e:	687b      	ldr	r3, [r7, #4]
 8000230:	4618      	mov	r0, r3
 8000232:	370c      	adds	r7, #12
 8000234:	46bd      	mov	sp, r7
 8000236:	f85d 7b04 	ldr.w	r7, [sp], #4
 800023a:	4770      	bx	lr
 800023c:	08008efc 	.word	0x08008efc

08000240 <_ZN3CanC1Em>:
#include <cstdio>

Com_Receptor_t Can::standardReceptor = nullptr;
uint32_t Can::_nodeId = 0; // TODO fix this pfusch

Can::Can(uint32_t nodeId) :
 8000240:	b580      	push	{r7, lr}
 8000242:	b082      	sub	sp, #8
 8000244:	af00      	add	r7, sp, #0
 8000246:	6078      	str	r0, [r7, #4]
 8000248:	6039      	str	r1, [r7, #0]
		AbstractCom(nodeId)
 800024a:	687b      	ldr	r3, [r7, #4]
 800024c:	6839      	ldr	r1, [r7, #0]
 800024e:	4618      	mov	r0, r3
 8000250:	f7ff ffe2 	bl	8000218 <_ZN11AbstractComC1Em>
 8000254:	4a03      	ldr	r2, [pc, #12]	; (8000264 <_ZN3CanC1Em+0x24>)
 8000256:	687b      	ldr	r3, [r7, #4]
 8000258:	601a      	str	r2, [r3, #0]
{
}
 800025a:	687b      	ldr	r3, [r7, #4]
 800025c:	4618      	mov	r0, r3
 800025e:	3708      	adds	r7, #8
 8000260:	46bd      	mov	sp, r7
 8000262:	bd80      	pop	{r7, pc}
 8000264:	08008f0c 	.word	0x08008f0c

08000268 <_ZN3Can8instanceEm>:

Can& Can::instance(uint32_t nodeId)
{
 8000268:	b580      	push	{r7, lr}
 800026a:	b082      	sub	sp, #8
 800026c:	af00      	add	r7, sp, #0
 800026e:	6078      	str	r0, [r7, #4]
	static Can can(nodeId);
 8000270:	4b15      	ldr	r3, [pc, #84]	; (80002c8 <_ZN3Can8instanceEm+0x60>)
 8000272:	781b      	ldrb	r3, [r3, #0]
 8000274:	f3bf 8f5b 	dmb	ish
 8000278:	b2db      	uxtb	r3, r3
 800027a:	f003 0301 	and.w	r3, r3, #1
 800027e:	2b00      	cmp	r3, #0
 8000280:	bf0c      	ite	eq
 8000282:	2301      	moveq	r3, #1
 8000284:	2300      	movne	r3, #0
 8000286:	b2db      	uxtb	r3, r3
 8000288:	2b00      	cmp	r3, #0
 800028a:	d011      	beq.n	80002b0 <_ZN3Can8instanceEm+0x48>
 800028c:	480e      	ldr	r0, [pc, #56]	; (80002c8 <_ZN3Can8instanceEm+0x60>)
 800028e:	f008 fc81 	bl	8008b94 <__cxa_guard_acquire>
 8000292:	4603      	mov	r3, r0
 8000294:	2b00      	cmp	r3, #0
 8000296:	bf14      	ite	ne
 8000298:	2301      	movne	r3, #1
 800029a:	2300      	moveq	r3, #0
 800029c:	b2db      	uxtb	r3, r3
 800029e:	2b00      	cmp	r3, #0
 80002a0:	d006      	beq.n	80002b0 <_ZN3Can8instanceEm+0x48>
 80002a2:	6879      	ldr	r1, [r7, #4]
 80002a4:	4809      	ldr	r0, [pc, #36]	; (80002cc <_ZN3Can8instanceEm+0x64>)
 80002a6:	f7ff ffcb 	bl	8000240 <_ZN3CanC1Em>
 80002aa:	4807      	ldr	r0, [pc, #28]	; (80002c8 <_ZN3Can8instanceEm+0x60>)
 80002ac:	f008 fc7e 	bl	8008bac <__cxa_guard_release>

	if (nodeId != 0)
 80002b0:	687b      	ldr	r3, [r7, #4]
 80002b2:	2b00      	cmp	r3, #0
 80002b4:	d002      	beq.n	80002bc <_ZN3Can8instanceEm+0x54>
		_nodeId = nodeId;
 80002b6:	4a06      	ldr	r2, [pc, #24]	; (80002d0 <_ZN3Can8instanceEm+0x68>)
 80002b8:	687b      	ldr	r3, [r7, #4]
 80002ba:	6013      	str	r3, [r2, #0]

	return can;
 80002bc:	4b03      	ldr	r3, [pc, #12]	; (80002cc <_ZN3Can8instanceEm+0x64>)
}
 80002be:	4618      	mov	r0, r3
 80002c0:	3708      	adds	r7, #8
 80002c2:	46bd      	mov	sp, r7
 80002c4:	bd80      	pop	{r7, pc}
 80002c6:	bf00      	nop
 80002c8:	200007b4 	.word	0x200007b4
 80002cc:	200007ac 	.word	0x200007ac
 80002d0:	200007a8 	.word	0x200007a8

080002d4 <_ZN3Can4initEPFvmPhmEPFvvE>:

int Can::init(Com_Receptor_t receptor, Com_Heartbeat_t heartbeat)
{
 80002d4:	b580      	push	{r7, lr}
 80002d6:	b084      	sub	sp, #16
 80002d8:	af00      	add	r7, sp, #0
 80002da:	60f8      	str	r0, [r7, #12]
 80002dc:	60b9      	str	r1, [r7, #8]
 80002de:	607a      	str	r2, [r7, #4]
	return Can::init(receptor, heartbeat, COMMode::STANDARD_COM_MODE);
 80002e0:	2300      	movs	r3, #0
 80002e2:	687a      	ldr	r2, [r7, #4]
 80002e4:	68b9      	ldr	r1, [r7, #8]
 80002e6:	68f8      	ldr	r0, [r7, #12]
 80002e8:	f000 f806 	bl	80002f8 <_ZN3Can4initEPFvmPhmEPFvvE7COMMode>
 80002ec:	4603      	mov	r3, r0
}
 80002ee:	4618      	mov	r0, r3
 80002f0:	3710      	adds	r7, #16
 80002f2:	46bd      	mov	sp, r7
 80002f4:	bd80      	pop	{r7, pc}
	...

080002f8 <_ZN3Can4initEPFvmPhmEPFvvE7COMMode>:

int Can::init(Com_Receptor_t receptor, Com_Heartbeat_t heartbeat, COMMode mode)
{
 80002f8:	b580      	push	{r7, lr}
 80002fa:	b0a4      	sub	sp, #144	; 0x90
 80002fc:	af02      	add	r7, sp, #8
 80002fe:	60f8      	str	r0, [r7, #12]
 8000300:	60b9      	str	r1, [r7, #8]
 8000302:	607a      	str	r2, [r7, #4]
 8000304:	603b      	str	r3, [r7, #0]
	if(nodeId == 0)
 8000306:	68fb      	ldr	r3, [r7, #12]
 8000308:	685b      	ldr	r3, [r3, #4]
 800030a:	2b00      	cmp	r3, #0
 800030c:	d102      	bne.n	8000314 <_ZN3Can4initEPFvmPhmEPFvvE7COMMode+0x1c>
		return -1;
 800030e:	f04f 33ff 	mov.w	r3, #4294967295	; 0xffffffff
 8000312:	e18e      	b.n	8000632 <_ZN3Can4initEPFvmPhmEPFvvE7COMMode+0x33a>

	standardReceptor = receptor;
 8000314:	4ac3      	ldr	r2, [pc, #780]	; (8000624 <_ZN3Can4initEPFvmPhmEPFvvE7COMMode+0x32c>)
 8000316:	68bb      	ldr	r3, [r7, #8]
 8000318:	6013      	str	r3, [r2, #0]

	if (STRHAL_CAN_Instance_Init(STRHAL_FDCAN1) != 0)
 800031a:	2000      	movs	r0, #0
 800031c:	f005 fd18 	bl	8005d50 <STRHAL_CAN_Instance_Init>
 8000320:	4603      	mov	r3, r0
 8000322:	2b00      	cmp	r3, #0
 8000324:	bf14      	ite	ne
 8000326:	2301      	movne	r3, #1
 8000328:	2300      	moveq	r3, #0
 800032a:	b2db      	uxtb	r3, r3
 800032c:	2b00      	cmp	r3, #0
 800032e:	d002      	beq.n	8000336 <_ZN3Can4initEPFvmPhmEPFvvE7COMMode+0x3e>
		return -1;
 8000330:	f04f 33ff 	mov.w	r3, #4294967295	; 0xffffffff
 8000334:	e17d      	b.n	8000632 <_ZN3Can4initEPFvmPhmEPFvvE7COMMode+0x33a>

	if (STRHAL_CAN_Instance_Init(STRHAL_FDCAN2) != 0)
 8000336:	2001      	movs	r0, #1
 8000338:	f005 fd0a 	bl	8005d50 <STRHAL_CAN_Instance_Init>
 800033c:	4603      	mov	r3, r0
 800033e:	2b00      	cmp	r3, #0
 8000340:	bf14      	ite	ne
 8000342:	2301      	movne	r3, #1
 8000344:	2300      	moveq	r3, #0
 8000346:	b2db      	uxtb	r3, r3
 8000348:	2b00      	cmp	r3, #0
 800034a:	d002      	beq.n	8000352 <_ZN3Can4initEPFvmPhmEPFvvE7COMMode+0x5a>
		return -1;
 800034c:	f04f 33ff 	mov.w	r3, #4294967295	; 0xffffffff
 8000350:	e16f      	b.n	8000632 <_ZN3Can4initEPFvmPhmEPFvvE7COMMode+0x33a>

	if (STRHAL_TIM_Heartbeat_Init(STRHAL_TIM_TIM7, 1600, 1000) != 100)
 8000352:	f44f 727a 	mov.w	r2, #1000	; 0x3e8
 8000356:	f44f 61c8 	mov.w	r1, #1600	; 0x640
 800035a:	2001      	movs	r0, #1
 800035c:	f007 fb5e 	bl	8007a1c <STRHAL_TIM_Heartbeat_Init>
 8000360:	4603      	mov	r3, r0
 8000362:	2b64      	cmp	r3, #100	; 0x64
 8000364:	bf14      	ite	ne
 8000366:	2301      	movne	r3, #1
 8000368:	2300      	moveq	r3, #0
 800036a:	b2db      	uxtb	r3, r3
 800036c:	2b00      	cmp	r3, #0
 800036e:	d002      	beq.n	8000376 <_ZN3Can4initEPFvmPhmEPFvvE7COMMode+0x7e>
		return -1;
 8000370:	f04f 33ff 	mov.w	r3, #4294967295	; 0xffffffff
 8000374:	e15d      	b.n	8000632 <_ZN3Can4initEPFvmPhmEPFvvE7COMMode+0x33a>

	if (STRHAL_TIM_Heartbeat_Subscribe(STRHAL_TIM_TIM7, heartbeat) != 0)
 8000376:	6879      	ldr	r1, [r7, #4]
 8000378:	2001      	movs	r0, #1
 800037a:	f007 fbab 	bl	8007ad4 <STRHAL_TIM_Heartbeat_Subscribe>
 800037e:	4603      	mov	r3, r0
 8000380:	2b00      	cmp	r3, #0
 8000382:	bf14      	ite	ne
 8000384:	2301      	movne	r3, #1
 8000386:	2300      	moveq	r3, #0
 8000388:	b2db      	uxtb	r3, r3
 800038a:	2b00      	cmp	r3, #0
 800038c:	d002      	beq.n	8000394 <_ZN3Can4initEPFvmPhmEPFvvE7COMMode+0x9c>
		return -1;
 800038e:	f04f 33ff 	mov.w	r3, #4294967295	; 0xffffffff
 8000392:	e14e      	b.n	8000632 <_ZN3Can4initEPFvmPhmEPFvvE7COMMode+0x33a>

	if (mode == COMMode::STANDARD_COM_MODE)
 8000394:	683b      	ldr	r3, [r7, #0]
 8000396:	2b00      	cmp	r3, #0
 8000398:	d16f      	bne.n	800047a <_ZN3Can4initEPFvmPhmEPFvvE7COMMode+0x182>
	{
		Can_MessageId_t mask =
 800039a:	2300      	movs	r3, #0
 800039c:	f8c7 3084 	str.w	r3, [r7, #132]	; 0x84
		{ 0 };
		mask.info.direction = 0x1;
 80003a0:	f897 3084 	ldrb.w	r3, [r7, #132]	; 0x84
 80003a4:	f043 0301 	orr.w	r3, r3, #1
 80003a8:	f887 3084 	strb.w	r3, [r7, #132]	; 0x84
		mask.info.node_id = 0x3F;
 80003ac:	f897 3084 	ldrb.w	r3, [r7, #132]	; 0x84
 80003b0:	f043 037e 	orr.w	r3, r3, #126	; 0x7e
 80003b4:	f887 3084 	strb.w	r3, [r7, #132]	; 0x84
		mask.info.special_cmd = 0x3;
 80003b8:	f8b7 3084 	ldrh.w	r3, [r7, #132]	; 0x84
 80003bc:	f443 73c0 	orr.w	r3, r3, #384	; 0x180
 80003c0:	f8a7 3084 	strh.w	r3, [r7, #132]	; 0x84

		Can_MessageId_t id =
 80003c4:	2300      	movs	r3, #0
 80003c6:	f8c7 3080 	str.w	r3, [r7, #128]	; 0x80
		{ 0 };
		id.info.direction = MASTER2NODE_DIRECTION;
 80003ca:	f897 3080 	ldrb.w	r3, [r7, #128]	; 0x80
 80003ce:	f36f 0300 	bfc	r3, #0, #1
 80003d2:	f887 3080 	strb.w	r3, [r7, #128]	; 0x80
		id.info.special_cmd = STANDARD_SPECIAL_CMD;
 80003d6:	f8b7 3080 	ldrh.w	r3, [r7, #128]	; 0x80
 80003da:	f443 73c0 	orr.w	r3, r3, #384	; 0x180
 80003de:	f8a7 3080 	strh.w	r3, [r7, #128]	; 0x80
		id.info.node_id = nodeId;
 80003e2:	68fb      	ldr	r3, [r7, #12]
 80003e4:	685b      	ldr	r3, [r3, #4]
 80003e6:	f003 033f 	and.w	r3, r3, #63	; 0x3f
 80003ea:	b2da      	uxtb	r2, r3
 80003ec:	f897 3080 	ldrb.w	r3, [r7, #128]	; 0x80
 80003f0:	f362 0346 	bfi	r3, r2, #1, #6
 80003f4:	f887 3080 	strb.w	r3, [r7, #128]	; 0x80
		Can_MessageId_t id2 =
 80003f8:	2300      	movs	r3, #0
 80003fa:	67fb      	str	r3, [r7, #124]	; 0x7c
		{ 0 };
		id2.info.direction = MASTER2NODE_DIRECTION;
 80003fc:	f897 307c 	ldrb.w	r3, [r7, #124]	; 0x7c
 8000400:	f36f 0300 	bfc	r3, #0, #1
 8000404:	f887 307c 	strb.w	r3, [r7, #124]	; 0x7c
		id2.info.special_cmd = STANDARD_SPECIAL_CMD;
 8000408:	f8b7 307c 	ldrh.w	r3, [r7, #124]	; 0x7c
 800040c:	f443 73c0 	orr.w	r3, r3, #384	; 0x180
 8000410:	f8a7 307c 	strh.w	r3, [r7, #124]	; 0x7c
		id2.info.node_id = 0;
 8000414:	f897 307c 	ldrb.w	r3, [r7, #124]	; 0x7c
 8000418:	f36f 0346 	bfc	r3, #1, #6
 800041c:	f887 307c 	strb.w	r3, [r7, #124]	; 0x7c

		STRHAL_FDCAN_Filter_t mainFilter[] =
 8000420:	f107 0364 	add.w	r3, r7, #100	; 0x64
 8000424:	2200      	movs	r2, #0
 8000426:	601a      	str	r2, [r3, #0]
 8000428:	605a      	str	r2, [r3, #4]
 800042a:	609a      	str	r2, [r3, #8]
 800042c:	60da      	str	r2, [r3, #12]
 800042e:	611a      	str	r2, [r3, #16]
 8000430:	615a      	str	r2, [r3, #20]
 8000432:	2302      	movs	r3, #2
 8000434:	66fb      	str	r3, [r7, #108]	; 0x6c
 8000436:	2302      	movs	r3, #2
 8000438:	67bb      	str	r3, [r7, #120]	; 0x78
		{
		{ .value_id1 = id.uint32, .mask_id2 = mask.uint32, .type = FDCAN_FILTER_MASK },
 800043a:	f8d7 3080 	ldr.w	r3, [r7, #128]	; 0x80
		{ .value_id1 = id2.uint32, .mask_id2 = mask.uint32, .type = FDCAN_FILTER_MASK } };
 800043e:	667b      	str	r3, [r7, #100]	; 0x64
		{ .value_id1 = id.uint32, .mask_id2 = mask.uint32, .type = FDCAN_FILTER_MASK },
 8000440:	f8d7 3084 	ldr.w	r3, [r7, #132]	; 0x84
		{ .value_id1 = id2.uint32, .mask_id2 = mask.uint32, .type = FDCAN_FILTER_MASK } };
 8000444:	66bb      	str	r3, [r7, #104]	; 0x68
 8000446:	6ffb      	ldr	r3, [r7, #124]	; 0x7c
 8000448:	673b      	str	r3, [r7, #112]	; 0x70
 800044a:	f8d7 3084 	ldr.w	r3, [r7, #132]	; 0x84
 800044e:	677b      	str	r3, [r7, #116]	; 0x74

		if (STRHAL_CAN_Subscribe(STRHAL_FDCAN1, STRHAL_FDCAN_RX0, mainFilter, 2, receptor) != 2)
 8000450:	f107 0264 	add.w	r2, r7, #100	; 0x64
 8000454:	68bb      	ldr	r3, [r7, #8]
 8000456:	9300      	str	r3, [sp, #0]
 8000458:	2302      	movs	r3, #2
 800045a:	2100      	movs	r1, #0
 800045c:	2000      	movs	r0, #0
 800045e:	f005 fd7b 	bl	8005f58 <STRHAL_CAN_Subscribe>
 8000462:	4603      	mov	r3, r0
 8000464:	2b02      	cmp	r3, #2
 8000466:	bf14      	ite	ne
 8000468:	2301      	movne	r3, #1
 800046a:	2300      	moveq	r3, #0
 800046c:	b2db      	uxtb	r3, r3
 800046e:	2b00      	cmp	r3, #0
 8000470:	f000 80de 	beq.w	8000630 <_ZN3Can4initEPFvmPhmEPFvvE7COMMode+0x338>
			return -1;
 8000474:	f04f 33ff 	mov.w	r3, #4294967295	; 0xffffffff
 8000478:	e0db      	b.n	8000632 <_ZN3Can4initEPFvmPhmEPFvvE7COMMode+0x33a>
	}
	else if (mode == COMMode::LISTENER_COM_MODE)
 800047a:	683b      	ldr	r3, [r7, #0]
 800047c:	2b02      	cmp	r3, #2
 800047e:	f040 809f 	bne.w	80005c0 <_ZN3Can4initEPFvmPhmEPFvvE7COMMode+0x2c8>
	{
		Can_MessageId_t mask =
 8000482:	2300      	movs	r3, #0
 8000484:	663b      	str	r3, [r7, #96]	; 0x60
		{ 0 };
		mask.info.direction = 0x1;
 8000486:	f897 3060 	ldrb.w	r3, [r7, #96]	; 0x60
 800048a:	f043 0301 	orr.w	r3, r3, #1
 800048e:	f887 3060 	strb.w	r3, [r7, #96]	; 0x60
		mask.info.node_id = 0x1F;
 8000492:	f897 3060 	ldrb.w	r3, [r7, #96]	; 0x60
 8000496:	221f      	movs	r2, #31
 8000498:	f362 0346 	bfi	r3, r2, #1, #6
 800049c:	f887 3060 	strb.w	r3, [r7, #96]	; 0x60
		mask.info.special_cmd = 0x3;
 80004a0:	f8b7 3060 	ldrh.w	r3, [r7, #96]	; 0x60
 80004a4:	f443 73c0 	orr.w	r3, r3, #384	; 0x180
 80004a8:	f8a7 3060 	strh.w	r3, [r7, #96]	; 0x60

		Can_MessageId_t id =
 80004ac:	2300      	movs	r3, #0
 80004ae:	65fb      	str	r3, [r7, #92]	; 0x5c
		{ 0 };
		id.info.direction = MASTER2NODE_DIRECTION;
 80004b0:	f897 305c 	ldrb.w	r3, [r7, #92]	; 0x5c
 80004b4:	f36f 0300 	bfc	r3, #0, #1
 80004b8:	f887 305c 	strb.w	r3, [r7, #92]	; 0x5c
		id.info.special_cmd = STANDARD_SPECIAL_CMD;
 80004bc:	f8b7 305c 	ldrh.w	r3, [r7, #92]	; 0x5c
 80004c0:	f443 73c0 	orr.w	r3, r3, #384	; 0x180
 80004c4:	f8a7 305c 	strh.w	r3, [r7, #92]	; 0x5c
		id.info.node_id = nodeId;
 80004c8:	68fb      	ldr	r3, [r7, #12]
 80004ca:	685b      	ldr	r3, [r3, #4]
 80004cc:	f003 033f 	and.w	r3, r3, #63	; 0x3f
 80004d0:	b2da      	uxtb	r2, r3
 80004d2:	f897 305c 	ldrb.w	r3, [r7, #92]	; 0x5c
 80004d6:	f362 0346 	bfi	r3, r2, #1, #6
 80004da:	f887 305c 	strb.w	r3, [r7, #92]	; 0x5c

		Can_MessageId_t id2 =
 80004de:	2300      	movs	r3, #0
 80004e0:	65bb      	str	r3, [r7, #88]	; 0x58
		{ 0 };
		id2.info.direction = MASTER2NODE_DIRECTION;
 80004e2:	f897 3058 	ldrb.w	r3, [r7, #88]	; 0x58
 80004e6:	f36f 0300 	bfc	r3, #0, #1
 80004ea:	f887 3058 	strb.w	r3, [r7, #88]	; 0x58
		id2.info.special_cmd = STANDARD_SPECIAL_CMD;
 80004ee:	f8b7 3058 	ldrh.w	r3, [r7, #88]	; 0x58
 80004f2:	f443 73c0 	orr.w	r3, r3, #384	; 0x180
 80004f6:	f8a7 3058 	strh.w	r3, [r7, #88]	; 0x58
		id2.info.node_id = 0;
 80004fa:	f897 3058 	ldrb.w	r3, [r7, #88]	; 0x58
 80004fe:	f36f 0346 	bfc	r3, #1, #6
 8000502:	f887 3058 	strb.w	r3, [r7, #88]	; 0x58

		Can_MessageId_t id3 =
 8000506:	2300      	movs	r3, #0
 8000508:	657b      	str	r3, [r7, #84]	; 0x54
		{ 0 };
		id3.info.direction = NODE2MASTER_DIRECTION;
 800050a:	f897 3054 	ldrb.w	r3, [r7, #84]	; 0x54
 800050e:	f043 0301 	orr.w	r3, r3, #1
 8000512:	f887 3054 	strb.w	r3, [r7, #84]	; 0x54
		id3.info.special_cmd = STANDARD_SPECIAL_CMD;
 8000516:	f8b7 3054 	ldrh.w	r3, [r7, #84]	; 0x54
 800051a:	f443 73c0 	orr.w	r3, r3, #384	; 0x180
 800051e:	f8a7 3054 	strh.w	r3, [r7, #84]	; 0x54
		id3.info.node_id = 6;
 8000522:	f897 3054 	ldrb.w	r3, [r7, #84]	; 0x54
 8000526:	2206      	movs	r2, #6
 8000528:	f362 0346 	bfi	r3, r2, #1, #6
 800052c:	f887 3054 	strb.w	r3, [r7, #84]	; 0x54

		Can_MessageId_t id4 =
 8000530:	2300      	movs	r3, #0
 8000532:	653b      	str	r3, [r7, #80]	; 0x50
		{ 0 };
		id4.info.direction = NODE2MASTER_DIRECTION;
 8000534:	f897 3050 	ldrb.w	r3, [r7, #80]	; 0x50
 8000538:	f043 0301 	orr.w	r3, r3, #1
 800053c:	f887 3050 	strb.w	r3, [r7, #80]	; 0x50
		id4.info.special_cmd = STANDARD_SPECIAL_CMD;
 8000540:	f8b7 3050 	ldrh.w	r3, [r7, #80]	; 0x50
 8000544:	f443 73c0 	orr.w	r3, r3, #384	; 0x180
 8000548:	f8a7 3050 	strh.w	r3, [r7, #80]	; 0x50
		id4.info.node_id = 7;
 800054c:	f897 3050 	ldrb.w	r3, [r7, #80]	; 0x50
 8000550:	2207      	movs	r2, #7
 8000552:	f362 0346 	bfi	r3, r2, #1, #6
 8000556:	f887 3050 	strb.w	r3, [r7, #80]	; 0x50

		STRHAL_FDCAN_Filter_t mainFilter[] =
 800055a:	f107 0314 	add.w	r3, r7, #20
 800055e:	2230      	movs	r2, #48	; 0x30
 8000560:	2100      	movs	r1, #0
 8000562:	4618      	mov	r0, r3
 8000564:	f008 fb82 	bl	8008c6c <memset>
 8000568:	2302      	movs	r3, #2
 800056a:	61fb      	str	r3, [r7, #28]
 800056c:	2302      	movs	r3, #2
 800056e:	62bb      	str	r3, [r7, #40]	; 0x28
 8000570:	2302      	movs	r3, #2
 8000572:	637b      	str	r3, [r7, #52]	; 0x34
 8000574:	2302      	movs	r3, #2
 8000576:	643b      	str	r3, [r7, #64]	; 0x40
		{
		{ .value_id1 = id.uint32, .mask_id2 = mask.uint32, .type = FDCAN_FILTER_MASK },
 8000578:	6dfb      	ldr	r3, [r7, #92]	; 0x5c
		{ .value_id1 = id2.uint32, .mask_id2 = mask.uint32, .type = FDCAN_FILTER_MASK },
		{ .value_id1 = id3.uint32, .mask_id2 = mask.uint32, .type = FDCAN_FILTER_MASK },
		{ .value_id1 = id4.uint32, .mask_id2 = mask.uint32, .type = FDCAN_FILTER_MASK } };
 800057a:	617b      	str	r3, [r7, #20]
		{ .value_id1 = id.uint32, .mask_id2 = mask.uint32, .type = FDCAN_FILTER_MASK },
 800057c:	6e3b      	ldr	r3, [r7, #96]	; 0x60
		{ .value_id1 = id4.uint32, .mask_id2 = mask.uint32, .type = FDCAN_FILTER_MASK } };
 800057e:	61bb      	str	r3, [r7, #24]
		{ .value_id1 = id2.uint32, .mask_id2 = mask.uint32, .type = FDCAN_FILTER_MASK },
 8000580:	6dbb      	ldr	r3, [r7, #88]	; 0x58
		{ .value_id1 = id4.uint32, .mask_id2 = mask.uint32, .type = FDCAN_FILTER_MASK } };
 8000582:	623b      	str	r3, [r7, #32]
		{ .value_id1 = id2.uint32, .mask_id2 = mask.uint32, .type = FDCAN_FILTER_MASK },
 8000584:	6e3b      	ldr	r3, [r7, #96]	; 0x60
		{ .value_id1 = id4.uint32, .mask_id2 = mask.uint32, .type = FDCAN_FILTER_MASK } };
 8000586:	627b      	str	r3, [r7, #36]	; 0x24
		{ .value_id1 = id3.uint32, .mask_id2 = mask.uint32, .type = FDCAN_FILTER_MASK },
 8000588:	6d7b      	ldr	r3, [r7, #84]	; 0x54
		{ .value_id1 = id4.uint32, .mask_id2 = mask.uint32, .type = FDCAN_FILTER_MASK } };
 800058a:	62fb      	str	r3, [r7, #44]	; 0x2c
		{ .value_id1 = id3.uint32, .mask_id2 = mask.uint32, .type = FDCAN_FILTER_MASK },
 800058c:	6e3b      	ldr	r3, [r7, #96]	; 0x60
		{ .value_id1 = id4.uint32, .mask_id2 = mask.uint32, .type = FDCAN_FILTER_MASK } };
 800058e:	633b      	str	r3, [r7, #48]	; 0x30
 8000590:	6d3b      	ldr	r3, [r7, #80]	; 0x50
 8000592:	63bb      	str	r3, [r7, #56]	; 0x38
 8000594:	6e3b      	ldr	r3, [r7, #96]	; 0x60
 8000596:	63fb      	str	r3, [r7, #60]	; 0x3c

		if (STRHAL_CAN_Subscribe(STRHAL_FDCAN1, STRHAL_FDCAN_RX0, mainFilter, 4, receptor) != 4)
 8000598:	f107 0214 	add.w	r2, r7, #20
 800059c:	68bb      	ldr	r3, [r7, #8]
 800059e:	9300      	str	r3, [sp, #0]
 80005a0:	2304      	movs	r3, #4
 80005a2:	2100      	movs	r1, #0
 80005a4:	2000      	movs	r0, #0
 80005a6:	f005 fcd7 	bl	8005f58 <STRHAL_CAN_Subscribe>
 80005aa:	4603      	mov	r3, r0
 80005ac:	2b04      	cmp	r3, #4
 80005ae:	bf14      	ite	ne
 80005b0:	2301      	movne	r3, #1
 80005b2:	2300      	moveq	r3, #0
 80005b4:	b2db      	uxtb	r3, r3
 80005b6:	2b00      	cmp	r3, #0
 80005b8:	d03a      	beq.n	8000630 <_ZN3Can4initEPFvmPhmEPFvvE7COMMode+0x338>
			return -1;
 80005ba:	f04f 33ff 	mov.w	r3, #4294967295	; 0xffffffff
 80005be:	e038      	b.n	8000632 <_ZN3Can4initEPFvmPhmEPFvvE7COMMode+0x33a>
	}
	else if (mode == COMMode::BRIDGE_COM_MODE)
 80005c0:	683b      	ldr	r3, [r7, #0]
 80005c2:	2b01      	cmp	r3, #1
 80005c4:	d134      	bne.n	8000630 <_ZN3Can4initEPFvmPhmEPFvvE7COMMode+0x338>
	{
		STRHAL_FDCAN_Filter_t mainFilter[] =
 80005c6:	2300      	movs	r3, #0
 80005c8:	647b      	str	r3, [r7, #68]	; 0x44
 80005ca:	f64f 73ff 	movw	r3, #65535	; 0xffff
 80005ce:	64bb      	str	r3, [r7, #72]	; 0x48
 80005d0:	2300      	movs	r3, #0
 80005d2:	64fb      	str	r3, [r7, #76]	; 0x4c
		{
		{ .value_id1 = 0x00, .mask_id2 = 0xFFFF, .type = FDCAN_FILTER_RANGE } };

		if (STRHAL_CAN_Subscribe(STRHAL_FDCAN1, STRHAL_FDCAN_RX0, mainFilter, 1, Can::internalReceptor) != 1)
 80005d4:	f107 0244 	add.w	r2, r7, #68	; 0x44
 80005d8:	4b13      	ldr	r3, [pc, #76]	; (8000628 <_ZN3Can4initEPFvmPhmEPFvvE7COMMode+0x330>)
 80005da:	9300      	str	r3, [sp, #0]
 80005dc:	2301      	movs	r3, #1
 80005de:	2100      	movs	r1, #0
 80005e0:	2000      	movs	r0, #0
 80005e2:	f005 fcb9 	bl	8005f58 <STRHAL_CAN_Subscribe>
 80005e6:	4603      	mov	r3, r0
 80005e8:	2b01      	cmp	r3, #1
 80005ea:	bf14      	ite	ne
 80005ec:	2301      	movne	r3, #1
 80005ee:	2300      	moveq	r3, #0
 80005f0:	b2db      	uxtb	r3, r3
 80005f2:	2b00      	cmp	r3, #0
 80005f4:	d002      	beq.n	80005fc <_ZN3Can4initEPFvmPhmEPFvvE7COMMode+0x304>
			return -1;
 80005f6:	f04f 33ff 	mov.w	r3, #4294967295	; 0xffffffff
 80005fa:	e01a      	b.n	8000632 <_ZN3Can4initEPFvmPhmEPFvvE7COMMode+0x33a>

		if (STRHAL_CAN_Subscribe(STRHAL_FDCAN2, STRHAL_FDCAN_RX0, mainFilter, 1, Can::externalReceptor) != 1)
 80005fc:	f107 0244 	add.w	r2, r7, #68	; 0x44
 8000600:	4b0a      	ldr	r3, [pc, #40]	; (800062c <_ZN3Can4initEPFvmPhmEPFvvE7COMMode+0x334>)
 8000602:	9300      	str	r3, [sp, #0]
 8000604:	2301      	movs	r3, #1
 8000606:	2100      	movs	r1, #0
 8000608:	2001      	movs	r0, #1
 800060a:	f005 fca5 	bl	8005f58 <STRHAL_CAN_Subscribe>
 800060e:	4603      	mov	r3, r0
 8000610:	2b01      	cmp	r3, #1
 8000612:	bf14      	ite	ne
 8000614:	2301      	movne	r3, #1
 8000616:	2300      	moveq	r3, #0
 8000618:	b2db      	uxtb	r3, r3
 800061a:	2b00      	cmp	r3, #0
 800061c:	d008      	beq.n	8000630 <_ZN3Can4initEPFvmPhmEPFvvE7COMMode+0x338>
			return -1;
 800061e:	f04f 33ff 	mov.w	r3, #4294967295	; 0xffffffff
 8000622:	e006      	b.n	8000632 <_ZN3Can4initEPFvmPhmEPFvvE7COMMode+0x33a>
 8000624:	200007a4 	.word	0x200007a4
 8000628:	0800078d 	.word	0x0800078d
 800062c:	080007ad 	.word	0x080007ad
	}

	return 0;
 8000630:	2300      	movs	r3, #0
}
 8000632:	4618      	mov	r0, r3
 8000634:	3788      	adds	r7, #136	; 0x88
 8000636:	46bd      	mov	sp, r7
 8000638:	bd80      	pop	{r7, pc}
 800063a:	bf00      	nop

0800063c <_ZN3Can4execEv>:

int Can::exec()
{
 800063c:	b580      	push	{r7, lr}
 800063e:	b082      	sub	sp, #8
 8000640:	af00      	add	r7, sp, #0
 8000642:	6078      	str	r0, [r7, #4]
	STRHAL_CAN_Run();
 8000644:	f005 fe40 	bl	80062c8 <STRHAL_CAN_Run>
	if (STRHAL_TIM_Heartbeat_StartHeartbeat(STRHAL_TIM_TIM7) != 0)
 8000648:	2001      	movs	r0, #1
 800064a:	f007 fa6b 	bl	8007b24 <STRHAL_TIM_Heartbeat_StartHeartbeat>
 800064e:	4603      	mov	r3, r0
 8000650:	2b00      	cmp	r3, #0
 8000652:	bf14      	ite	ne
 8000654:	2301      	movne	r3, #1
 8000656:	2300      	moveq	r3, #0
 8000658:	b2db      	uxtb	r3, r3
 800065a:	2b00      	cmp	r3, #0
 800065c:	d002      	beq.n	8000664 <_ZN3Can4execEv+0x28>
		return -1;
 800065e:	f04f 33ff 	mov.w	r3, #4294967295	; 0xffffffff
 8000662:	e000      	b.n	8000666 <_ZN3Can4execEv+0x2a>

	return 0;
 8000664:	2300      	movs	r3, #0
}
 8000666:	4618      	mov	r0, r3
 8000668:	3708      	adds	r7, #8
 800066a:	46bd      	mov	sp, r7
 800066c:	bd80      	pop	{r7, pc}
	...

08000670 <_ZN3Can4sendEmPhh>:

int Can::send(uint32_t id, uint8_t *data, uint8_t n)
{
 8000670:	b580      	push	{r7, lr}
 8000672:	b096      	sub	sp, #88	; 0x58
 8000674:	af00      	add	r7, sp, #0
 8000676:	60f8      	str	r0, [r7, #12]
 8000678:	60b9      	str	r1, [r7, #8]
 800067a:	4613      	mov	r3, r2
 800067c:	71fb      	strb	r3, [r7, #7]
	Can_MessageId_t msgId =
 800067e:	2300      	movs	r3, #0
 8000680:	657b      	str	r3, [r7, #84]	; 0x54
	{ 0 };
	msgId.info.special_cmd = STANDARD_SPECIAL_CMD;
 8000682:	f8b7 3054 	ldrh.w	r3, [r7, #84]	; 0x54
 8000686:	f443 73c0 	orr.w	r3, r3, #384	; 0x180
 800068a:	f8a7 3054 	strh.w	r3, [r7, #84]	; 0x54
	msgId.info.direction = NODE2MASTER_DIRECTION;
 800068e:	f897 3054 	ldrb.w	r3, [r7, #84]	; 0x54
 8000692:	f043 0301 	orr.w	r3, r3, #1
 8000696:	f887 3054 	strb.w	r3, [r7, #84]	; 0x54
	if (id == 0)
 800069a:	68fb      	ldr	r3, [r7, #12]
 800069c:	2b00      	cmp	r3, #0
 800069e:	d10b      	bne.n	80006b8 <_ZN3Can4sendEmPhh+0x48>
	{
		msgId.info.node_id = _nodeId;
 80006a0:	4b1b      	ldr	r3, [pc, #108]	; (8000710 <_ZN3Can4sendEmPhh+0xa0>)
 80006a2:	681b      	ldr	r3, [r3, #0]
 80006a4:	f003 033f 	and.w	r3, r3, #63	; 0x3f
 80006a8:	b2da      	uxtb	r2, r3
 80006aa:	f897 3054 	ldrb.w	r3, [r7, #84]	; 0x54
 80006ae:	f362 0346 	bfi	r3, r2, #1, #6
 80006b2:	f887 3054 	strb.w	r3, [r7, #84]	; 0x54
 80006b6:	e009      	b.n	80006cc <_ZN3Can4sendEmPhh+0x5c>
	}
	else
	{
		msgId.info.node_id = id;
 80006b8:	68fb      	ldr	r3, [r7, #12]
 80006ba:	f003 033f 	and.w	r3, r3, #63	; 0x3f
 80006be:	b2da      	uxtb	r2, r3
 80006c0:	f897 3054 	ldrb.w	r3, [r7, #84]	; 0x54
 80006c4:	f362 0346 	bfi	r3, r2, #1, #6
 80006c8:	f887 3054 	strb.w	r3, [r7, #84]	; 0x54
	}
	msgId.info.priority = STANDARD_PRIORITY;
 80006cc:	f897 3055 	ldrb.w	r3, [r7, #85]	; 0x55
 80006d0:	2202      	movs	r2, #2
 80006d2:	f362 0342 	bfi	r3, r2, #1, #2
 80006d6:	f887 3055 	strb.w	r3, [r7, #85]	; 0x55

	Can_MessageData_t msgData =
 80006da:	f107 0310 	add.w	r3, r7, #16
 80006de:	2242      	movs	r2, #66	; 0x42
 80006e0:	2100      	movs	r1, #0
 80006e2:	4618      	mov	r0, r3
 80006e4:	f008 fac2 	bl	8008c6c <memset>
	{ 0 };

	memcpy(msgData.uint8, data, n);
 80006e8:	79fa      	ldrb	r2, [r7, #7]
 80006ea:	f107 0310 	add.w	r3, r7, #16
 80006ee:	68b9      	ldr	r1, [r7, #8]
 80006f0:	4618      	mov	r0, r3
 80006f2:	f008 faad 	bl	8008c50 <memcpy>

	(void) STRHAL_CAN_Send(STRHAL_FDCAN1, msgId.uint32, msgData.uint8, n);
 80006f6:	6d79      	ldr	r1, [r7, #84]	; 0x54
 80006f8:	79fb      	ldrb	r3, [r7, #7]
 80006fa:	f107 0210 	add.w	r2, r7, #16
 80006fe:	2000      	movs	r0, #0
 8000700:	f005 fd0e 	bl	8006120 <STRHAL_CAN_Send>
	return 0;
 8000704:	2300      	movs	r3, #0
}
 8000706:	4618      	mov	r0, r3
 8000708:	3758      	adds	r7, #88	; 0x58
 800070a:	46bd      	mov	sp, r7
 800070c:	bd80      	pop	{r7, pc}
 800070e:	bf00      	nop
 8000710:	200007a8 	.word	0x200007a8

08000714 <_ZN3Can14bridgeReceptorE17STRHAL_FDCAN_Id_tmPhm>:

	(void) STRHAL_CAN_Send(STRHAL_FDCAN1, msgId.uint32, msgData.uint8, n);
}

void Can::bridgeReceptor(STRHAL_FDCAN_Id_t bus_id, uint32_t id, uint8_t *data, uint32_t n)
{
 8000714:	b580      	push	{r7, lr}
 8000716:	b086      	sub	sp, #24
 8000718:	af00      	add	r7, sp, #0
 800071a:	60b9      	str	r1, [r7, #8]
 800071c:	607a      	str	r2, [r7, #4]
 800071e:	603b      	str	r3, [r7, #0]
 8000720:	4603      	mov	r3, r0
 8000722:	73fb      	strb	r3, [r7, #15]
	Can_MessageId_t incoming_id;
	incoming_id.uint32 = id;
 8000724:	68bb      	ldr	r3, [r7, #8]
 8000726:	617b      	str	r3, [r7, #20]

	if (incoming_id.info.node_id == _nodeId)
 8000728:	7d3b      	ldrb	r3, [r7, #20]
 800072a:	f3c3 0345 	ubfx	r3, r3, #1, #6
 800072e:	b2db      	uxtb	r3, r3
 8000730:	461a      	mov	r2, r3
 8000732:	4b14      	ldr	r3, [pc, #80]	; (8000784 <_ZN3Can14bridgeReceptorE17STRHAL_FDCAN_Id_tmPhm+0x70>)
 8000734:	681b      	ldr	r3, [r3, #0]
 8000736:	429a      	cmp	r2, r3
 8000738:	d106      	bne.n	8000748 <_ZN3Can14bridgeReceptorE17STRHAL_FDCAN_Id_tmPhm+0x34>
	{
		Can::standardReceptor(id, data, n);
 800073a:	4b13      	ldr	r3, [pc, #76]	; (8000788 <_ZN3Can14bridgeReceptorE17STRHAL_FDCAN_Id_tmPhm+0x74>)
 800073c:	681b      	ldr	r3, [r3, #0]
 800073e:	683a      	ldr	r2, [r7, #0]
 8000740:	6879      	ldr	r1, [r7, #4]
 8000742:	68b8      	ldr	r0, [r7, #8]
 8000744:	4798      	blx	r3
	}
	else
	{
		STRHAL_CAN_Send(bus_id, id, data, n);
	}
}
 8000746:	e018      	b.n	800077a <_ZN3Can14bridgeReceptorE17STRHAL_FDCAN_Id_tmPhm+0x66>
	else if (incoming_id.info.node_id == 0)
 8000748:	7d3b      	ldrb	r3, [r7, #20]
 800074a:	f003 037e 	and.w	r3, r3, #126	; 0x7e
 800074e:	b2db      	uxtb	r3, r3
 8000750:	2b00      	cmp	r3, #0
 8000752:	d10c      	bne.n	800076e <_ZN3Can14bridgeReceptorE17STRHAL_FDCAN_Id_tmPhm+0x5a>
		STRHAL_CAN_Send(bus_id, id, data, n);
 8000754:	7bf8      	ldrb	r0, [r7, #15]
 8000756:	683b      	ldr	r3, [r7, #0]
 8000758:	687a      	ldr	r2, [r7, #4]
 800075a:	68b9      	ldr	r1, [r7, #8]
 800075c:	f005 fce0 	bl	8006120 <STRHAL_CAN_Send>
		Can::standardReceptor(id, data, n);
 8000760:	4b09      	ldr	r3, [pc, #36]	; (8000788 <_ZN3Can14bridgeReceptorE17STRHAL_FDCAN_Id_tmPhm+0x74>)
 8000762:	681b      	ldr	r3, [r3, #0]
 8000764:	683a      	ldr	r2, [r7, #0]
 8000766:	6879      	ldr	r1, [r7, #4]
 8000768:	68b8      	ldr	r0, [r7, #8]
 800076a:	4798      	blx	r3
}
 800076c:	e005      	b.n	800077a <_ZN3Can14bridgeReceptorE17STRHAL_FDCAN_Id_tmPhm+0x66>
		STRHAL_CAN_Send(bus_id, id, data, n);
 800076e:	7bf8      	ldrb	r0, [r7, #15]
 8000770:	683b      	ldr	r3, [r7, #0]
 8000772:	687a      	ldr	r2, [r7, #4]
 8000774:	68b9      	ldr	r1, [r7, #8]
 8000776:	f005 fcd3 	bl	8006120 <STRHAL_CAN_Send>
}
 800077a:	bf00      	nop
 800077c:	3718      	adds	r7, #24
 800077e:	46bd      	mov	sp, r7
 8000780:	bd80      	pop	{r7, pc}
 8000782:	bf00      	nop
 8000784:	200007a8 	.word	0x200007a8
 8000788:	200007a4 	.word	0x200007a4

0800078c <_ZN3Can16internalReceptorEmPhm>:

void Can::internalReceptor(uint32_t id, uint8_t *data, uint32_t n)
{
 800078c:	b580      	push	{r7, lr}
 800078e:	b084      	sub	sp, #16
 8000790:	af00      	add	r7, sp, #0
 8000792:	60f8      	str	r0, [r7, #12]
 8000794:	60b9      	str	r1, [r7, #8]
 8000796:	607a      	str	r2, [r7, #4]
	//Can::bridgeReceptor(STRHAL_FDCAN2, id, data, n);
	STRHAL_CAN_Send(STRHAL_FDCAN2, id, data, n);
 8000798:	687b      	ldr	r3, [r7, #4]
 800079a:	68ba      	ldr	r2, [r7, #8]
 800079c:	68f9      	ldr	r1, [r7, #12]
 800079e:	2001      	movs	r0, #1
 80007a0:	f005 fcbe 	bl	8006120 <STRHAL_CAN_Send>
}
 80007a4:	bf00      	nop
 80007a6:	3710      	adds	r7, #16
 80007a8:	46bd      	mov	sp, r7
 80007aa:	bd80      	pop	{r7, pc}

080007ac <_ZN3Can16externalReceptorEmPhm>:

void Can::externalReceptor(uint32_t id, uint8_t *data, uint32_t n)
{
 80007ac:	b580      	push	{r7, lr}
 80007ae:	b084      	sub	sp, #16
 80007b0:	af00      	add	r7, sp, #0
 80007b2:	60f8      	str	r0, [r7, #12]
 80007b4:	60b9      	str	r1, [r7, #8]
 80007b6:	607a      	str	r2, [r7, #4]
	Can::bridgeReceptor(STRHAL_FDCAN1, id, data, n);
 80007b8:	687b      	ldr	r3, [r7, #4]
 80007ba:	68ba      	ldr	r2, [r7, #8]
 80007bc:	68f9      	ldr	r1, [r7, #12]
 80007be:	2000      	movs	r0, #0
 80007c0:	f7ff ffa8 	bl	8000714 <_ZN3Can14bridgeReceptorE17STRHAL_FDCAN_Id_tmPhm>
}
 80007c4:	bf00      	nop
 80007c6:	3710      	adds	r7, #16
 80007c8:	46bd      	mov	sp, r7
 80007ca:	bd80      	pop	{r7, pc}

080007cc <_ZN14GenericChannelD1Ev>:
#include <STRHAL.h>
#include <Radio.h>
#include "../Modules/W25Qxx_Flash.h"
#include <Can.h>

class GenericChannel: public AbstractChannel
 80007cc:	b580      	push	{r7, lr}
 80007ce:	b082      	sub	sp, #8
 80007d0:	af00      	add	r7, sp, #0
 80007d2:	6078      	str	r0, [r7, #4]
 80007d4:	4a05      	ldr	r2, [pc, #20]	; (80007ec <_ZN14GenericChannelD1Ev+0x20>)
 80007d6:	687b      	ldr	r3, [r7, #4]
 80007d8:	601a      	str	r2, [r3, #0]
 80007da:	687b      	ldr	r3, [r7, #4]
 80007dc:	4618      	mov	r0, r3
 80007de:	f000 fdb5 	bl	800134c <_ZN15AbstractChannelD1Ev>
 80007e2:	687b      	ldr	r3, [r7, #4]
 80007e4:	4618      	mov	r0, r3
 80007e6:	3708      	adds	r7, #8
 80007e8:	46bd      	mov	sp, r7
 80007ea:	bd80      	pop	{r7, pc}
 80007ec:	08008fb8 	.word	0x08008fb8

080007f0 <_ZN14GenericChannelD0Ev>:
 80007f0:	b580      	push	{r7, lr}
 80007f2:	b082      	sub	sp, #8
 80007f4:	af00      	add	r7, sp, #0
 80007f6:	6078      	str	r0, [r7, #4]
 80007f8:	6878      	ldr	r0, [r7, #4]
 80007fa:	f7ff ffe7 	bl	80007cc <_ZN14GenericChannelD1Ev>
 80007fe:	21c8      	movs	r1, #200	; 0xc8
 8000800:	6878      	ldr	r0, [r7, #4]
 8000802:	f008 f9c5 	bl	8008b90 <_ZdlPvj>
 8000806:	687b      	ldr	r3, [r7, #4]
 8000808:	4618      	mov	r0, r3
 800080a:	3708      	adds	r7, #8
 800080c:	46bd      	mov	sp, r7
 800080e:	bd80      	pop	{r7, pc}

08000810 <_ZN17DigitalOutChannelD1Ev>:

#include "./Channels/AbstractChannel.h"
#include <can_houbolt/channels/digital_out_channel_def.h>
#include <STRHAL.h>

class DigitalOutChannel: public AbstractChannel
 8000810:	b580      	push	{r7, lr}
 8000812:	b082      	sub	sp, #8
 8000814:	af00      	add	r7, sp, #0
 8000816:	6078      	str	r0, [r7, #4]
 8000818:	4a05      	ldr	r2, [pc, #20]	; (8000830 <_ZN17DigitalOutChannelD1Ev+0x20>)
 800081a:	687b      	ldr	r3, [r7, #4]
 800081c:	601a      	str	r2, [r3, #0]
 800081e:	687b      	ldr	r3, [r7, #4]
 8000820:	4618      	mov	r0, r3
 8000822:	f000 fd93 	bl	800134c <_ZN15AbstractChannelD1Ev>
 8000826:	687b      	ldr	r3, [r7, #4]
 8000828:	4618      	mov	r0, r3
 800082a:	3708      	adds	r7, #8
 800082c:	46bd      	mov	sp, r7
 800082e:	bd80      	pop	{r7, pc}
 8000830:	08008f8c 	.word	0x08008f8c

08000834 <_ZN17DigitalOutChannelD0Ev>:
 8000834:	b580      	push	{r7, lr}
 8000836:	b082      	sub	sp, #8
 8000838:	af00      	add	r7, sp, #0
 800083a:	6078      	str	r0, [r7, #4]
 800083c:	6878      	ldr	r0, [r7, #4]
 800083e:	f7ff ffe7 	bl	8000810 <_ZN17DigitalOutChannelD1Ev>
 8000842:	212c      	movs	r1, #44	; 0x2c
 8000844:	6878      	ldr	r0, [r7, #4]
 8000846:	f008 f9a3 	bl	8008b90 <_ZdlPvj>
 800084a:	687b      	ldr	r3, [r7, #4]
 800084c:	4618      	mov	r0, r3
 800084e:	3708      	adds	r7, #8
 8000850:	46bd      	mov	sp, r7
 8000852:	bd80      	pop	{r7, pc}

08000854 <_ZN5IOBv3C1Emmm>:
#include <IOBv3.h>
#include <cstdio>
#include <cstring>

IOBv3::IOBv3(uint32_t node_id, uint32_t fw_version, uint32_t refresh_divider) :
 8000854:	b590      	push	{r4, r7, lr}
 8000856:	b0b9      	sub	sp, #228	; 0xe4
 8000858:	af02      	add	r7, sp, #8
 800085a:	60f8      	str	r0, [r7, #12]
 800085c:	60b9      	str	r1, [r7, #8]
 800085e:	607a      	str	r2, [r7, #4]
 8000860:	603b      	str	r3, [r7, #0]
		channel9(9,{ ADC1, STRHAL_ADC_CHANNEL_4 },		{ GPIOD,  1, STRHAL_GPIO_TYPE_OPP }, STRHAL_ADC_INTYPE_OPAMP, 1),
		channel10(10,{ ADC1, STRHAL_ADC_CHANNEL_2 },	{ GPIOC,  3, STRHAL_GPIO_TYPE_OPP }, STRHAL_ADC_INTYPE_OPAMP, 1),
		channel11(11,{ ADC2, STRHAL_ADC_CHANNEL_11 },	{ GPIOC,  1, STRHAL_GPIO_TYPE_OPP }, STRHAL_ADC_INTYPE_OPAMP, 1),

		//sense_5V(0, {ADC2, STRHAL_ADC_CHANNEL_5}, 1),
		speaker(STRHAL_TIM_TIM3, STRHAL_TIM_TIM3_CH4_PB7)
 8000862:	68f8      	ldr	r0, [r7, #12]
 8000864:	683b      	ldr	r3, [r7, #0]
 8000866:	687a      	ldr	r2, [r7, #4]
 8000868:	68b9      	ldr	r1, [r7, #8]
 800086a:	f000 fed9 	bl	8001620 <_ZN14GenericChannelC1Emmm>
 800086e:	4ad6      	ldr	r2, [pc, #856]	; (8000bc8 <_ZN5IOBv3C1Emmm+0x374>)
 8000870:	68fb      	ldr	r3, [r7, #12]
 8000872:	601a      	str	r2, [r3, #0]
 8000874:	68fb      	ldr	r3, [r7, #12]
 8000876:	4ad5      	ldr	r2, [pc, #852]	; (8000bcc <_ZN5IOBv3C1Emmm+0x378>)
 8000878:	33c8      	adds	r3, #200	; 0xc8
 800087a:	e892 0003 	ldmia.w	r2, {r0, r1}
 800087e:	e883 0003 	stmia.w	r3, {r0, r1}
 8000882:	68fb      	ldr	r3, [r7, #12]
 8000884:	4ad2      	ldr	r2, [pc, #840]	; (8000bd0 <_ZN5IOBv3C1Emmm+0x37c>)
 8000886:	33d0      	adds	r3, #208	; 0xd0
 8000888:	e892 0003 	ldmia.w	r2, {r0, r1}
 800088c:	e883 0003 	stmia.w	r3, {r0, r1}
 8000890:	68fb      	ldr	r3, [r7, #12]
 8000892:	f103 04d8 	add.w	r4, r3, #216	; 0xd8
 8000896:	4acf      	ldr	r2, [pc, #828]	; (8000bd4 <_ZN5IOBv3C1Emmm+0x380>)
 8000898:	f107 0314 	add.w	r3, r7, #20
 800089c:	e892 0003 	ldmia.w	r2, {r0, r1}
 80008a0:	e883 0003 	stmia.w	r3, {r0, r1}
 80008a4:	4acc      	ldr	r2, [pc, #816]	; (8000bd8 <_ZN5IOBv3C1Emmm+0x384>)
 80008a6:	f107 031c 	add.w	r3, r7, #28
 80008aa:	e892 0003 	ldmia.w	r2, {r0, r1}
 80008ae:	e883 0003 	stmia.w	r3, {r0, r1}
 80008b2:	f107 031c 	add.w	r3, r7, #28
 80008b6:	f107 0214 	add.w	r2, r7, #20
 80008ba:	2101      	movs	r1, #1
 80008bc:	9101      	str	r1, [sp, #4]
 80008be:	2101      	movs	r1, #1
 80008c0:	9100      	str	r1, [sp, #0]
 80008c2:	2100      	movs	r1, #0
 80008c4:	4620      	mov	r0, r4
 80008c6:	f000 fd51 	bl	800136c <_ZN17DigitalOutChannelC1EhRK20STRHAL_ADC_Channel_tRK13STRHAL_GPIO_t19STRHAL_ADC_InType_tm>
 80008ca:	68fb      	ldr	r3, [r7, #12]
 80008cc:	f503 7482 	add.w	r4, r3, #260	; 0x104
 80008d0:	4ac2      	ldr	r2, [pc, #776]	; (8000bdc <_ZN5IOBv3C1Emmm+0x388>)
 80008d2:	f107 0324 	add.w	r3, r7, #36	; 0x24
 80008d6:	e892 0003 	ldmia.w	r2, {r0, r1}
 80008da:	e883 0003 	stmia.w	r3, {r0, r1}
 80008de:	4ac0      	ldr	r2, [pc, #768]	; (8000be0 <_ZN5IOBv3C1Emmm+0x38c>)
 80008e0:	f107 032c 	add.w	r3, r7, #44	; 0x2c
 80008e4:	e892 0003 	ldmia.w	r2, {r0, r1}
 80008e8:	e883 0003 	stmia.w	r3, {r0, r1}
 80008ec:	f107 032c 	add.w	r3, r7, #44	; 0x2c
 80008f0:	f107 0224 	add.w	r2, r7, #36	; 0x24
 80008f4:	2101      	movs	r1, #1
 80008f6:	9101      	str	r1, [sp, #4]
 80008f8:	2101      	movs	r1, #1
 80008fa:	9100      	str	r1, [sp, #0]
 80008fc:	2101      	movs	r1, #1
 80008fe:	4620      	mov	r0, r4
 8000900:	f000 fd34 	bl	800136c <_ZN17DigitalOutChannelC1EhRK20STRHAL_ADC_Channel_tRK13STRHAL_GPIO_t19STRHAL_ADC_InType_tm>
 8000904:	68fb      	ldr	r3, [r7, #12]
 8000906:	f503 7498 	add.w	r4, r3, #304	; 0x130
 800090a:	4ab6      	ldr	r2, [pc, #728]	; (8000be4 <_ZN5IOBv3C1Emmm+0x390>)
 800090c:	f107 0334 	add.w	r3, r7, #52	; 0x34
 8000910:	e892 0003 	ldmia.w	r2, {r0, r1}
 8000914:	e883 0003 	stmia.w	r3, {r0, r1}
 8000918:	4ab3      	ldr	r2, [pc, #716]	; (8000be8 <_ZN5IOBv3C1Emmm+0x394>)
 800091a:	f107 033c 	add.w	r3, r7, #60	; 0x3c
 800091e:	e892 0003 	ldmia.w	r2, {r0, r1}
 8000922:	e883 0003 	stmia.w	r3, {r0, r1}
 8000926:	f107 033c 	add.w	r3, r7, #60	; 0x3c
 800092a:	f107 0234 	add.w	r2, r7, #52	; 0x34
 800092e:	2101      	movs	r1, #1
 8000930:	9101      	str	r1, [sp, #4]
 8000932:	2101      	movs	r1, #1
 8000934:	9100      	str	r1, [sp, #0]
 8000936:	2102      	movs	r1, #2
 8000938:	4620      	mov	r0, r4
 800093a:	f000 fd17 	bl	800136c <_ZN17DigitalOutChannelC1EhRK20STRHAL_ADC_Channel_tRK13STRHAL_GPIO_t19STRHAL_ADC_InType_tm>
 800093e:	68fb      	ldr	r3, [r7, #12]
 8000940:	f503 74ae 	add.w	r4, r3, #348	; 0x15c
 8000944:	4aa9      	ldr	r2, [pc, #676]	; (8000bec <_ZN5IOBv3C1Emmm+0x398>)
 8000946:	f107 0344 	add.w	r3, r7, #68	; 0x44
 800094a:	e892 0003 	ldmia.w	r2, {r0, r1}
 800094e:	e883 0003 	stmia.w	r3, {r0, r1}
 8000952:	4aa7      	ldr	r2, [pc, #668]	; (8000bf0 <_ZN5IOBv3C1Emmm+0x39c>)
 8000954:	f107 034c 	add.w	r3, r7, #76	; 0x4c
 8000958:	e892 0003 	ldmia.w	r2, {r0, r1}
 800095c:	e883 0003 	stmia.w	r3, {r0, r1}
 8000960:	f107 034c 	add.w	r3, r7, #76	; 0x4c
 8000964:	f107 0244 	add.w	r2, r7, #68	; 0x44
 8000968:	2101      	movs	r1, #1
 800096a:	9101      	str	r1, [sp, #4]
 800096c:	2101      	movs	r1, #1
 800096e:	9100      	str	r1, [sp, #0]
 8000970:	2103      	movs	r1, #3
 8000972:	4620      	mov	r0, r4
 8000974:	f000 fcfa 	bl	800136c <_ZN17DigitalOutChannelC1EhRK20STRHAL_ADC_Channel_tRK13STRHAL_GPIO_t19STRHAL_ADC_InType_tm>
 8000978:	68fb      	ldr	r3, [r7, #12]
 800097a:	f503 74c4 	add.w	r4, r3, #392	; 0x188
 800097e:	4a9d      	ldr	r2, [pc, #628]	; (8000bf4 <_ZN5IOBv3C1Emmm+0x3a0>)
 8000980:	f107 0354 	add.w	r3, r7, #84	; 0x54
 8000984:	e892 0003 	ldmia.w	r2, {r0, r1}
 8000988:	e883 0003 	stmia.w	r3, {r0, r1}
 800098c:	4a9a      	ldr	r2, [pc, #616]	; (8000bf8 <_ZN5IOBv3C1Emmm+0x3a4>)
 800098e:	f107 035c 	add.w	r3, r7, #92	; 0x5c
 8000992:	e892 0003 	ldmia.w	r2, {r0, r1}
 8000996:	e883 0003 	stmia.w	r3, {r0, r1}
 800099a:	f107 035c 	add.w	r3, r7, #92	; 0x5c
 800099e:	f107 0254 	add.w	r2, r7, #84	; 0x54
 80009a2:	2101      	movs	r1, #1
 80009a4:	9101      	str	r1, [sp, #4]
 80009a6:	2101      	movs	r1, #1
 80009a8:	9100      	str	r1, [sp, #0]
 80009aa:	2104      	movs	r1, #4
 80009ac:	4620      	mov	r0, r4
 80009ae:	f000 fcdd 	bl	800136c <_ZN17DigitalOutChannelC1EhRK20STRHAL_ADC_Channel_tRK13STRHAL_GPIO_t19STRHAL_ADC_InType_tm>
 80009b2:	68fb      	ldr	r3, [r7, #12]
 80009b4:	f503 74da 	add.w	r4, r3, #436	; 0x1b4
 80009b8:	4a90      	ldr	r2, [pc, #576]	; (8000bfc <_ZN5IOBv3C1Emmm+0x3a8>)
 80009ba:	f107 0364 	add.w	r3, r7, #100	; 0x64
 80009be:	e892 0003 	ldmia.w	r2, {r0, r1}
 80009c2:	e883 0003 	stmia.w	r3, {r0, r1}
 80009c6:	4a8e      	ldr	r2, [pc, #568]	; (8000c00 <_ZN5IOBv3C1Emmm+0x3ac>)
 80009c8:	f107 036c 	add.w	r3, r7, #108	; 0x6c
 80009cc:	e892 0003 	ldmia.w	r2, {r0, r1}
 80009d0:	e883 0003 	stmia.w	r3, {r0, r1}
 80009d4:	f107 036c 	add.w	r3, r7, #108	; 0x6c
 80009d8:	f107 0264 	add.w	r2, r7, #100	; 0x64
 80009dc:	2101      	movs	r1, #1
 80009de:	9101      	str	r1, [sp, #4]
 80009e0:	2101      	movs	r1, #1
 80009e2:	9100      	str	r1, [sp, #0]
 80009e4:	2105      	movs	r1, #5
 80009e6:	4620      	mov	r0, r4
 80009e8:	f000 fcc0 	bl	800136c <_ZN17DigitalOutChannelC1EhRK20STRHAL_ADC_Channel_tRK13STRHAL_GPIO_t19STRHAL_ADC_InType_tm>
 80009ec:	68fb      	ldr	r3, [r7, #12]
 80009ee:	f503 74f0 	add.w	r4, r3, #480	; 0x1e0
 80009f2:	4a84      	ldr	r2, [pc, #528]	; (8000c04 <_ZN5IOBv3C1Emmm+0x3b0>)
 80009f4:	f107 0374 	add.w	r3, r7, #116	; 0x74
 80009f8:	e892 0003 	ldmia.w	r2, {r0, r1}
 80009fc:	e883 0003 	stmia.w	r3, {r0, r1}
 8000a00:	4a81      	ldr	r2, [pc, #516]	; (8000c08 <_ZN5IOBv3C1Emmm+0x3b4>)
 8000a02:	f107 037c 	add.w	r3, r7, #124	; 0x7c
 8000a06:	e892 0003 	ldmia.w	r2, {r0, r1}
 8000a0a:	e883 0003 	stmia.w	r3, {r0, r1}
 8000a0e:	f107 037c 	add.w	r3, r7, #124	; 0x7c
 8000a12:	f107 0274 	add.w	r2, r7, #116	; 0x74
 8000a16:	2101      	movs	r1, #1
 8000a18:	9101      	str	r1, [sp, #4]
 8000a1a:	2101      	movs	r1, #1
 8000a1c:	9100      	str	r1, [sp, #0]
 8000a1e:	2106      	movs	r1, #6
 8000a20:	4620      	mov	r0, r4
 8000a22:	f000 fca3 	bl	800136c <_ZN17DigitalOutChannelC1EhRK20STRHAL_ADC_Channel_tRK13STRHAL_GPIO_t19STRHAL_ADC_InType_tm>
 8000a26:	68fb      	ldr	r3, [r7, #12]
 8000a28:	f503 7403 	add.w	r4, r3, #524	; 0x20c
 8000a2c:	4a77      	ldr	r2, [pc, #476]	; (8000c0c <_ZN5IOBv3C1Emmm+0x3b8>)
 8000a2e:	f107 0384 	add.w	r3, r7, #132	; 0x84
 8000a32:	e892 0003 	ldmia.w	r2, {r0, r1}
 8000a36:	e883 0003 	stmia.w	r3, {r0, r1}
 8000a3a:	4b75      	ldr	r3, [pc, #468]	; (8000c10 <_ZN5IOBv3C1Emmm+0x3bc>)
 8000a3c:	f8c7 308c 	str.w	r3, [r7, #140]	; 0x8c
 8000a40:	2300      	movs	r3, #0
 8000a42:	f887 3090 	strb.w	r3, [r7, #144]	; 0x90
 8000a46:	2300      	movs	r3, #0
 8000a48:	f887 3091 	strb.w	r3, [r7, #145]	; 0x91
 8000a4c:	f107 038c 	add.w	r3, r7, #140	; 0x8c
 8000a50:	f107 0284 	add.w	r2, r7, #132	; 0x84
 8000a54:	2101      	movs	r1, #1
 8000a56:	9101      	str	r1, [sp, #4]
 8000a58:	2101      	movs	r1, #1
 8000a5a:	9100      	str	r1, [sp, #0]
 8000a5c:	2107      	movs	r1, #7
 8000a5e:	4620      	mov	r0, r4
 8000a60:	f000 fc84 	bl	800136c <_ZN17DigitalOutChannelC1EhRK20STRHAL_ADC_Channel_tRK13STRHAL_GPIO_t19STRHAL_ADC_InType_tm>
 8000a64:	68fb      	ldr	r3, [r7, #12]
 8000a66:	f503 740e 	add.w	r4, r3, #568	; 0x238
 8000a6a:	4a6a      	ldr	r2, [pc, #424]	; (8000c14 <_ZN5IOBv3C1Emmm+0x3c0>)
 8000a6c:	f107 0394 	add.w	r3, r7, #148	; 0x94
 8000a70:	e892 0003 	ldmia.w	r2, {r0, r1}
 8000a74:	e883 0003 	stmia.w	r3, {r0, r1}
 8000a78:	4a67      	ldr	r2, [pc, #412]	; (8000c18 <_ZN5IOBv3C1Emmm+0x3c4>)
 8000a7a:	f107 039c 	add.w	r3, r7, #156	; 0x9c
 8000a7e:	e892 0003 	ldmia.w	r2, {r0, r1}
 8000a82:	e883 0003 	stmia.w	r3, {r0, r1}
 8000a86:	f107 039c 	add.w	r3, r7, #156	; 0x9c
 8000a8a:	f107 0294 	add.w	r2, r7, #148	; 0x94
 8000a8e:	2101      	movs	r1, #1
 8000a90:	9101      	str	r1, [sp, #4]
 8000a92:	2101      	movs	r1, #1
 8000a94:	9100      	str	r1, [sp, #0]
 8000a96:	2108      	movs	r1, #8
 8000a98:	4620      	mov	r0, r4
 8000a9a:	f000 fc67 	bl	800136c <_ZN17DigitalOutChannelC1EhRK20STRHAL_ADC_Channel_tRK13STRHAL_GPIO_t19STRHAL_ADC_InType_tm>
 8000a9e:	68fb      	ldr	r3, [r7, #12]
 8000aa0:	f503 7419 	add.w	r4, r3, #612	; 0x264
 8000aa4:	4a5d      	ldr	r2, [pc, #372]	; (8000c1c <_ZN5IOBv3C1Emmm+0x3c8>)
 8000aa6:	f107 03a4 	add.w	r3, r7, #164	; 0xa4
 8000aaa:	e892 0003 	ldmia.w	r2, {r0, r1}
 8000aae:	e883 0003 	stmia.w	r3, {r0, r1}
 8000ab2:	4a5b      	ldr	r2, [pc, #364]	; (8000c20 <_ZN5IOBv3C1Emmm+0x3cc>)
 8000ab4:	f107 03ac 	add.w	r3, r7, #172	; 0xac
 8000ab8:	e892 0003 	ldmia.w	r2, {r0, r1}
 8000abc:	e883 0003 	stmia.w	r3, {r0, r1}
 8000ac0:	f107 03ac 	add.w	r3, r7, #172	; 0xac
 8000ac4:	f107 02a4 	add.w	r2, r7, #164	; 0xa4
 8000ac8:	2101      	movs	r1, #1
 8000aca:	9101      	str	r1, [sp, #4]
 8000acc:	2101      	movs	r1, #1
 8000ace:	9100      	str	r1, [sp, #0]
 8000ad0:	2109      	movs	r1, #9
 8000ad2:	4620      	mov	r0, r4
 8000ad4:	f000 fc4a 	bl	800136c <_ZN17DigitalOutChannelC1EhRK20STRHAL_ADC_Channel_tRK13STRHAL_GPIO_t19STRHAL_ADC_InType_tm>
 8000ad8:	68fb      	ldr	r3, [r7, #12]
 8000ada:	f503 7424 	add.w	r4, r3, #656	; 0x290
 8000ade:	4a51      	ldr	r2, [pc, #324]	; (8000c24 <_ZN5IOBv3C1Emmm+0x3d0>)
 8000ae0:	f107 03b4 	add.w	r3, r7, #180	; 0xb4
 8000ae4:	e892 0003 	ldmia.w	r2, {r0, r1}
 8000ae8:	e883 0003 	stmia.w	r3, {r0, r1}
 8000aec:	4a4e      	ldr	r2, [pc, #312]	; (8000c28 <_ZN5IOBv3C1Emmm+0x3d4>)
 8000aee:	f107 03bc 	add.w	r3, r7, #188	; 0xbc
 8000af2:	e892 0003 	ldmia.w	r2, {r0, r1}
 8000af6:	e883 0003 	stmia.w	r3, {r0, r1}
 8000afa:	f107 03bc 	add.w	r3, r7, #188	; 0xbc
 8000afe:	f107 02b4 	add.w	r2, r7, #180	; 0xb4
 8000b02:	2101      	movs	r1, #1
 8000b04:	9101      	str	r1, [sp, #4]
 8000b06:	2101      	movs	r1, #1
 8000b08:	9100      	str	r1, [sp, #0]
 8000b0a:	210a      	movs	r1, #10
 8000b0c:	4620      	mov	r0, r4
 8000b0e:	f000 fc2d 	bl	800136c <_ZN17DigitalOutChannelC1EhRK20STRHAL_ADC_Channel_tRK13STRHAL_GPIO_t19STRHAL_ADC_InType_tm>
 8000b12:	68fb      	ldr	r3, [r7, #12]
 8000b14:	f503 742f 	add.w	r4, r3, #700	; 0x2bc
 8000b18:	4a44      	ldr	r2, [pc, #272]	; (8000c2c <_ZN5IOBv3C1Emmm+0x3d8>)
 8000b1a:	f107 03c4 	add.w	r3, r7, #196	; 0xc4
 8000b1e:	e892 0003 	ldmia.w	r2, {r0, r1}
 8000b22:	e883 0003 	stmia.w	r3, {r0, r1}
 8000b26:	4a42      	ldr	r2, [pc, #264]	; (8000c30 <_ZN5IOBv3C1Emmm+0x3dc>)
 8000b28:	f107 03cc 	add.w	r3, r7, #204	; 0xcc
 8000b2c:	e892 0003 	ldmia.w	r2, {r0, r1}
 8000b30:	e883 0003 	stmia.w	r3, {r0, r1}
 8000b34:	f107 03cc 	add.w	r3, r7, #204	; 0xcc
 8000b38:	f107 02c4 	add.w	r2, r7, #196	; 0xc4
 8000b3c:	2101      	movs	r1, #1
 8000b3e:	9101      	str	r1, [sp, #4]
 8000b40:	2101      	movs	r1, #1
 8000b42:	9100      	str	r1, [sp, #0]
 8000b44:	210b      	movs	r1, #11
 8000b46:	4620      	mov	r0, r4
 8000b48:	f000 fc10 	bl	800136c <_ZN17DigitalOutChannelC1EhRK20STRHAL_ADC_Channel_tRK13STRHAL_GPIO_t19STRHAL_ADC_InType_tm>
 8000b4c:	68fb      	ldr	r3, [r7, #12]
 8000b4e:	f503 733a 	add.w	r3, r3, #744	; 0x2e8
 8000b52:	2202      	movs	r2, #2
 8000b54:	f887 20d6 	strb.w	r2, [r7, #214]	; 0xd6
 8000b58:	2232      	movs	r2, #50	; 0x32
 8000b5a:	f887 20d7 	strb.w	r2, [r7, #215]	; 0xd7
 8000b5e:	f107 02d7 	add.w	r2, r7, #215	; 0xd7
 8000b62:	f107 01d6 	add.w	r1, r7, #214	; 0xd6
 8000b66:	4618      	mov	r0, r3
 8000b68:	f000 f9c3 	bl	8000ef2 <_ZN7SpeakerC1ERK20STRHAL_TIM_TimerId_tRK22STRHAL_TIM_ChannelId_t>
{
	registerChannel(&channel0);
 8000b6c:	68fa      	ldr	r2, [r7, #12]
 8000b6e:	68fb      	ldr	r3, [r7, #12]
 8000b70:	33d8      	adds	r3, #216	; 0xd8
 8000b72:	4619      	mov	r1, r3
 8000b74:	4610      	mov	r0, r2
 8000b76:	f001 f8c6 	bl	8001d06 <_ZN14GenericChannel15registerChannelEP15AbstractChannel>
	registerChannel(&channel1);
 8000b7a:	68fa      	ldr	r2, [r7, #12]
 8000b7c:	68fb      	ldr	r3, [r7, #12]
 8000b7e:	f503 7382 	add.w	r3, r3, #260	; 0x104
 8000b82:	4619      	mov	r1, r3
 8000b84:	4610      	mov	r0, r2
 8000b86:	f001 f8be 	bl	8001d06 <_ZN14GenericChannel15registerChannelEP15AbstractChannel>
	registerChannel(&channel2);
 8000b8a:	68fa      	ldr	r2, [r7, #12]
 8000b8c:	68fb      	ldr	r3, [r7, #12]
 8000b8e:	f503 7398 	add.w	r3, r3, #304	; 0x130
 8000b92:	4619      	mov	r1, r3
 8000b94:	4610      	mov	r0, r2
 8000b96:	f001 f8b6 	bl	8001d06 <_ZN14GenericChannel15registerChannelEP15AbstractChannel>
	registerChannel(&channel3);
 8000b9a:	68fa      	ldr	r2, [r7, #12]
 8000b9c:	68fb      	ldr	r3, [r7, #12]
 8000b9e:	f503 73ae 	add.w	r3, r3, #348	; 0x15c
 8000ba2:	4619      	mov	r1, r3
 8000ba4:	4610      	mov	r0, r2
 8000ba6:	f001 f8ae 	bl	8001d06 <_ZN14GenericChannel15registerChannelEP15AbstractChannel>
	registerChannel(&channel4);
 8000baa:	68fa      	ldr	r2, [r7, #12]
 8000bac:	68fb      	ldr	r3, [r7, #12]
 8000bae:	f503 73c4 	add.w	r3, r3, #392	; 0x188
 8000bb2:	4619      	mov	r1, r3
 8000bb4:	4610      	mov	r0, r2
 8000bb6:	f001 f8a6 	bl	8001d06 <_ZN14GenericChannel15registerChannelEP15AbstractChannel>
	registerChannel(&channel5);
 8000bba:	68fa      	ldr	r2, [r7, #12]
 8000bbc:	68fb      	ldr	r3, [r7, #12]
 8000bbe:	f503 73da 	add.w	r3, r3, #436	; 0x1b4
 8000bc2:	4619      	mov	r1, r3
 8000bc4:	4610      	mov	r0, r2
 8000bc6:	e035      	b.n	8000c34 <_ZN5IOBv3C1Emmm+0x3e0>
 8000bc8:	08008f1c 	.word	0x08008f1c
 8000bcc:	08008dd8 	.word	0x08008dd8
 8000bd0:	08008de0 	.word	0x08008de0
 8000bd4:	08008de8 	.word	0x08008de8
 8000bd8:	08008df0 	.word	0x08008df0
 8000bdc:	08008df8 	.word	0x08008df8
 8000be0:	08008e00 	.word	0x08008e00
 8000be4:	08008e08 	.word	0x08008e08
 8000be8:	08008e10 	.word	0x08008e10
 8000bec:	08008e18 	.word	0x08008e18
 8000bf0:	08008e20 	.word	0x08008e20
 8000bf4:	08008e28 	.word	0x08008e28
 8000bf8:	08008e30 	.word	0x08008e30
 8000bfc:	08008e38 	.word	0x08008e38
 8000c00:	08008e40 	.word	0x08008e40
 8000c04:	08008e48 	.word	0x08008e48
 8000c08:	08008e50 	.word	0x08008e50
 8000c0c:	08008e58 	.word	0x08008e58
 8000c10:	48000800 	.word	0x48000800
 8000c14:	08008e60 	.word	0x08008e60
 8000c18:	08008e68 	.word	0x08008e68
 8000c1c:	08008e70 	.word	0x08008e70
 8000c20:	08008e78 	.word	0x08008e78
 8000c24:	08008e80 	.word	0x08008e80
 8000c28:	08008e88 	.word	0x08008e88
 8000c2c:	08008e90 	.word	0x08008e90
 8000c30:	08008e98 	.word	0x08008e98
 8000c34:	f001 f867 	bl	8001d06 <_ZN14GenericChannel15registerChannelEP15AbstractChannel>
	registerChannel(&channel6);
 8000c38:	68fa      	ldr	r2, [r7, #12]
 8000c3a:	68fb      	ldr	r3, [r7, #12]
 8000c3c:	f503 73f0 	add.w	r3, r3, #480	; 0x1e0
 8000c40:	4619      	mov	r1, r3
 8000c42:	4610      	mov	r0, r2
 8000c44:	f001 f85f 	bl	8001d06 <_ZN14GenericChannel15registerChannelEP15AbstractChannel>
	registerChannel(&channel7);
 8000c48:	68fa      	ldr	r2, [r7, #12]
 8000c4a:	68fb      	ldr	r3, [r7, #12]
 8000c4c:	f503 7303 	add.w	r3, r3, #524	; 0x20c
 8000c50:	4619      	mov	r1, r3
 8000c52:	4610      	mov	r0, r2
 8000c54:	f001 f857 	bl	8001d06 <_ZN14GenericChannel15registerChannelEP15AbstractChannel>
	registerChannel(&channel8);
 8000c58:	68fa      	ldr	r2, [r7, #12]
 8000c5a:	68fb      	ldr	r3, [r7, #12]
 8000c5c:	f503 730e 	add.w	r3, r3, #568	; 0x238
 8000c60:	4619      	mov	r1, r3
 8000c62:	4610      	mov	r0, r2
 8000c64:	f001 f84f 	bl	8001d06 <_ZN14GenericChannel15registerChannelEP15AbstractChannel>
	registerChannel(&channel9);
 8000c68:	68fa      	ldr	r2, [r7, #12]
 8000c6a:	68fb      	ldr	r3, [r7, #12]
 8000c6c:	f503 7319 	add.w	r3, r3, #612	; 0x264
 8000c70:	4619      	mov	r1, r3
 8000c72:	4610      	mov	r0, r2
 8000c74:	f001 f847 	bl	8001d06 <_ZN14GenericChannel15registerChannelEP15AbstractChannel>
	registerChannel(&channel10);
 8000c78:	68fa      	ldr	r2, [r7, #12]
 8000c7a:	68fb      	ldr	r3, [r7, #12]
 8000c7c:	f503 7324 	add.w	r3, r3, #656	; 0x290
 8000c80:	4619      	mov	r1, r3
 8000c82:	4610      	mov	r0, r2
 8000c84:	f001 f83f 	bl	8001d06 <_ZN14GenericChannel15registerChannelEP15AbstractChannel>
	registerChannel(&channel11);
 8000c88:	68fa      	ldr	r2, [r7, #12]
 8000c8a:	68fb      	ldr	r3, [r7, #12]
 8000c8c:	f503 732f 	add.w	r3, r3, #700	; 0x2bc
 8000c90:	4619      	mov	r1, r3
 8000c92:	4610      	mov	r0, r2
 8000c94:	f001 f837 	bl	8001d06 <_ZN14GenericChannel15registerChannelEP15AbstractChannel>

	registerModule(&flash);
 8000c98:	68fa      	ldr	r2, [r7, #12]
 8000c9a:	68fb      	ldr	r3, [r7, #12]
 8000c9c:	f8d3 30b4 	ldr.w	r3, [r3, #180]	; 0xb4
 8000ca0:	4619      	mov	r1, r3
 8000ca2:	4610      	mov	r0, r2
 8000ca4:	f001 f84d 	bl	8001d42 <_ZN14GenericChannel14registerModuleEP14AbstractModule>

}
 8000ca8:	68fb      	ldr	r3, [r7, #12]
 8000caa:	4618      	mov	r0, r3
 8000cac:	37dc      	adds	r7, #220	; 0xdc
 8000cae:	46bd      	mov	sp, r7
 8000cb0:	bd90      	pop	{r4, r7, pc}
 8000cb2:	bf00      	nop

08000cb4 <_ZN5IOBv34initEv>:

int IOBv3::init()
{
 8000cb4:	b580      	push	{r7, lr}
 8000cb6:	b082      	sub	sp, #8
 8000cb8:	af00      	add	r7, sp, #0
 8000cba:	6078      	str	r0, [r7, #4]
	if (STRHAL_Init(STRHAL_SYSCLK_SRC_EXT, 8000000) != STRHAL_NOICE)
 8000cbc:	4930      	ldr	r1, [pc, #192]	; (8000d80 <_ZN5IOBv34initEv+0xcc>)
 8000cbe:	2002      	movs	r0, #2
 8000cc0:	f003 ff8a 	bl	8004bd8 <STRHAL_Init>
 8000cc4:	4603      	mov	r3, r0
 8000cc6:	2b00      	cmp	r3, #0
 8000cc8:	bf14      	ite	ne
 8000cca:	2301      	movne	r3, #1
 8000ccc:	2300      	moveq	r3, #0
 8000cce:	b2db      	uxtb	r3, r3
 8000cd0:	2b00      	cmp	r3, #0
 8000cd2:	d002      	beq.n	8000cda <_ZN5IOBv34initEv+0x26>
		return -1;
 8000cd4:	f04f 33ff 	mov.w	r3, #4294967295	; 0xffffffff
 8000cd8:	e04d      	b.n	8000d76 <_ZN5IOBv34initEv+0xc2>

	// init status LEDs
	STRHAL_GPIO_SingleInit(&ledRed, STRHAL_GPIO_TYPE_OPP);
 8000cda:	687b      	ldr	r3, [r7, #4]
 8000cdc:	33c8      	adds	r3, #200	; 0xc8
 8000cde:	2100      	movs	r1, #0
 8000ce0:	4618      	mov	r0, r3
 8000ce2:	f005 fd35 	bl	8006750 <STRHAL_GPIO_SingleInit>
	STRHAL_GPIO_SingleInit(&ledGreen, STRHAL_GPIO_TYPE_OPP);
 8000ce6:	687b      	ldr	r3, [r7, #4]
 8000ce8:	33d0      	adds	r3, #208	; 0xd0
 8000cea:	2100      	movs	r1, #0
 8000cec:	4618      	mov	r0, r3
 8000cee:	f005 fd2f 	bl	8006750 <STRHAL_GPIO_SingleInit>

	// init debug uart
	if (STRHAL_UART_Instance_Init(STRHAL_UART_DEBUG) != 0)
 8000cf2:	2002      	movs	r0, #2
 8000cf4:	f007 fbb0 	bl	8008458 <STRHAL_UART_Instance_Init>
 8000cf8:	4603      	mov	r3, r0
 8000cfa:	2b00      	cmp	r3, #0
 8000cfc:	bf14      	ite	ne
 8000cfe:	2301      	movne	r3, #1
 8000d00:	2300      	moveq	r3, #0
 8000d02:	b2db      	uxtb	r3, r3
 8000d04:	2b00      	cmp	r3, #0
 8000d06:	d002      	beq.n	8000d0e <_ZN5IOBv34initEv+0x5a>
		return -1;
 8000d08:	f04f 33ff 	mov.w	r3, #4294967295	; 0xffffffff
 8000d0c:	e033      	b.n	8000d76 <_ZN5IOBv34initEv+0xc2>

	if (can.init(receptor, heartbeatCan, COMMode::STANDARD_COM_MODE) != 0)
 8000d0e:	687b      	ldr	r3, [r7, #4]
 8000d10:	f8d3 00b0 	ldr.w	r0, [r3, #176]	; 0xb0
 8000d14:	2300      	movs	r3, #0
 8000d16:	4a1b      	ldr	r2, [pc, #108]	; (8000d84 <_ZN5IOBv34initEv+0xd0>)
 8000d18:	491b      	ldr	r1, [pc, #108]	; (8000d88 <_ZN5IOBv34initEv+0xd4>)
 8000d1a:	f7ff faed 	bl	80002f8 <_ZN3Can4initEPFvmPhmEPFvvE7COMMode>
 8000d1e:	4603      	mov	r3, r0
 8000d20:	2b00      	cmp	r3, #0
 8000d22:	bf14      	ite	ne
 8000d24:	2301      	movne	r3, #1
 8000d26:	2300      	moveq	r3, #0
 8000d28:	b2db      	uxtb	r3, r3
 8000d2a:	2b00      	cmp	r3, #0
 8000d2c:	d002      	beq.n	8000d34 <_ZN5IOBv34initEv+0x80>
		return -1;
 8000d2e:	f04f 33ff 	mov.w	r3, #4294967295	; 0xffffffff
 8000d32:	e020      	b.n	8000d76 <_ZN5IOBv34initEv+0xc2>

	if (GenericChannel::init() != 0)
 8000d34:	687b      	ldr	r3, [r7, #4]
 8000d36:	4618      	mov	r0, r3
 8000d38:	f000 fcc9 	bl	80016ce <_ZN14GenericChannel4initEv>
 8000d3c:	4603      	mov	r3, r0
 8000d3e:	2b00      	cmp	r3, #0
 8000d40:	bf14      	ite	ne
 8000d42:	2301      	movne	r3, #1
 8000d44:	2300      	moveq	r3, #0
 8000d46:	b2db      	uxtb	r3, r3
 8000d48:	2b00      	cmp	r3, #0
 8000d4a:	d002      	beq.n	8000d52 <_ZN5IOBv34initEv+0x9e>
		return -1;
 8000d4c:	f04f 33ff 	mov.w	r3, #4294967295	; 0xffffffff
 8000d50:	e011      	b.n	8000d76 <_ZN5IOBv34initEv+0xc2>

	speaker.init();
 8000d52:	687b      	ldr	r3, [r7, #4]
 8000d54:	f503 733a 	add.w	r3, r3, #744	; 0x2e8
 8000d58:	4618      	mov	r0, r3
 8000d5a:	f000 f8df 	bl	8000f1c <_ZN7Speaker4initEv>

	STRHAL_GPIO_Write(&ledGreen, STRHAL_GPIO_VALUE_H);
 8000d5e:	687b      	ldr	r3, [r7, #4]
 8000d60:	33d0      	adds	r3, #208	; 0xd0
 8000d62:	2101      	movs	r1, #1
 8000d64:	4618      	mov	r0, r3
 8000d66:	f005 fd4f 	bl	8006808 <STRHAL_GPIO_Write>
	STRHAL_UART_Debug_Write_Blocking("Started\n", 8, 50);
 8000d6a:	2232      	movs	r2, #50	; 0x32
 8000d6c:	2108      	movs	r1, #8
 8000d6e:	4807      	ldr	r0, [pc, #28]	; (8000d8c <_ZN5IOBv34initEv+0xd8>)
 8000d70:	f007 fcbb 	bl	80086ea <STRHAL_UART_Debug_Write_Blocking>


	return 0;
 8000d74:	2300      	movs	r3, #0
}
 8000d76:	4618      	mov	r0, r3
 8000d78:	3708      	adds	r7, #8
 8000d7a:	46bd      	mov	sp, r7
 8000d7c:	bd80      	pop	{r7, pc}
 8000d7e:	bf00      	nop
 8000d80:	007a1200 	.word	0x007a1200
 8000d84:	08001f45 	.word	0x08001f45
 8000d88:	08001da5 	.word	0x08001da5
 8000d8c:	08008ea0 	.word	0x08008ea0

08000d90 <_ZN5IOBv34execEv>:

int IOBv3::exec()
{
 8000d90:	b580      	push	{r7, lr}
 8000d92:	b082      	sub	sp, #8
 8000d94:	af00      	add	r7, sp, #0
 8000d96:	6078      	str	r0, [r7, #4]
	//STRHAL_OPAMP_Run();
	STRHAL_ADC_Run();
 8000d98:	f004 fdf8 	bl	800598c <STRHAL_ADC_Run>
	STRHAL_QSPI_Run();
 8000d9c:	f005 ff76 	bl	8006c8c <STRHAL_QSPI_Run>

	if (can.exec() != 0)
 8000da0:	687b      	ldr	r3, [r7, #4]
 8000da2:	f8d3 20b0 	ldr.w	r2, [r3, #176]	; 0xb0
 8000da6:	687b      	ldr	r3, [r7, #4]
 8000da8:	f8d3 30b0 	ldr.w	r3, [r3, #176]	; 0xb0
 8000dac:	681b      	ldr	r3, [r3, #0]
 8000dae:	3304      	adds	r3, #4
 8000db0:	681b      	ldr	r3, [r3, #0]
 8000db2:	4610      	mov	r0, r2
 8000db4:	4798      	blx	r3
 8000db6:	4603      	mov	r3, r0
 8000db8:	2b00      	cmp	r3, #0
 8000dba:	bf14      	ite	ne
 8000dbc:	2301      	movne	r3, #1
 8000dbe:	2300      	moveq	r3, #0
 8000dc0:	b2db      	uxtb	r3, r3
 8000dc2:	2b00      	cmp	r3, #0
 8000dc4:	d002      	beq.n	8000dcc <_ZN5IOBv34execEv+0x3c>
		return -1;
 8000dc6:	f04f 33ff 	mov.w	r3, #4294967295	; 0xffffffff
 8000dca:	e021      	b.n	8000e10 <_ZN5IOBv34execEv+0x80>

	STRHAL_GPIO_Write(&ledRed, STRHAL_GPIO_VALUE_H);
 8000dcc:	687b      	ldr	r3, [r7, #4]
 8000dce:	33c8      	adds	r3, #200	; 0xc8
 8000dd0:	2101      	movs	r1, #1
 8000dd2:	4618      	mov	r0, r3
 8000dd4:	f005 fd18 	bl	8006808 <STRHAL_GPIO_Write>
	STRHAL_UART_Debug_Write_Blocking("RUNNING\n", 8, 50);
 8000dd8:	2232      	movs	r2, #50	; 0x32
 8000dda:	2108      	movs	r1, #8
 8000ddc:	480e      	ldr	r0, [pc, #56]	; (8000e18 <_ZN5IOBv34execEv+0x88>)
 8000dde:	f007 fc84 	bl	80086ea <STRHAL_UART_Debug_Write_Blocking>

	speaker.beep(3, 300, 200);
 8000de2:	687b      	ldr	r3, [r7, #4]
 8000de4:	f503 703a 	add.w	r0, r3, #744	; 0x2e8
 8000de8:	23c8      	movs	r3, #200	; 0xc8
 8000dea:	f44f 7296 	mov.w	r2, #300	; 0x12c
 8000dee:	2103      	movs	r1, #3
 8000df0:	f000 f8d0 	bl	8000f94 <_ZN7Speaker4beepEhtt>

	while (1)
	{
		if (GenericChannel::exec() != 0)
 8000df4:	687b      	ldr	r3, [r7, #4]
 8000df6:	4618      	mov	r0, r3
 8000df8:	f000 fcc1 	bl	800177e <_ZN14GenericChannel4execEv>
 8000dfc:	4603      	mov	r3, r0
 8000dfe:	2b00      	cmp	r3, #0
 8000e00:	bf14      	ite	ne
 8000e02:	2301      	movne	r3, #1
 8000e04:	2300      	moveq	r3, #0
 8000e06:	b2db      	uxtb	r3, r3
 8000e08:	2b00      	cmp	r3, #0
 8000e0a:	d0f3      	beq.n	8000df4 <_ZN5IOBv34execEv+0x64>
			return -1;
 8000e0c:	f04f 33ff 	mov.w	r3, #4294967295	; 0xffffffff
	}

	speaker.beep(6, 100, 100);

	return 0;
}
 8000e10:	4618      	mov	r0, r3
 8000e12:	3708      	adds	r7, #8
 8000e14:	46bd      	mov	sp, r7
 8000e16:	bd80      	pop	{r7, pc}
 8000e18:	08008eac 	.word	0x08008eac

08000e1c <_ZN5IOBv3D1Ev>:
#include <Can.h>
#include <Speaker.h>

#include <STRHAL.h>

class IOBv3: public GenericChannel
 8000e1c:	b580      	push	{r7, lr}
 8000e1e:	b082      	sub	sp, #8
 8000e20:	af00      	add	r7, sp, #0
 8000e22:	6078      	str	r0, [r7, #4]
 8000e24:	4a29      	ldr	r2, [pc, #164]	; (8000ecc <_ZN5IOBv3D1Ev+0xb0>)
 8000e26:	687b      	ldr	r3, [r7, #4]
 8000e28:	601a      	str	r2, [r3, #0]
 8000e2a:	687b      	ldr	r3, [r7, #4]
 8000e2c:	f503 732f 	add.w	r3, r3, #700	; 0x2bc
 8000e30:	4618      	mov	r0, r3
 8000e32:	f7ff fced 	bl	8000810 <_ZN17DigitalOutChannelD1Ev>
 8000e36:	687b      	ldr	r3, [r7, #4]
 8000e38:	f503 7324 	add.w	r3, r3, #656	; 0x290
 8000e3c:	4618      	mov	r0, r3
 8000e3e:	f7ff fce7 	bl	8000810 <_ZN17DigitalOutChannelD1Ev>
 8000e42:	687b      	ldr	r3, [r7, #4]
 8000e44:	f503 7319 	add.w	r3, r3, #612	; 0x264
 8000e48:	4618      	mov	r0, r3
 8000e4a:	f7ff fce1 	bl	8000810 <_ZN17DigitalOutChannelD1Ev>
 8000e4e:	687b      	ldr	r3, [r7, #4]
 8000e50:	f503 730e 	add.w	r3, r3, #568	; 0x238
 8000e54:	4618      	mov	r0, r3
 8000e56:	f7ff fcdb 	bl	8000810 <_ZN17DigitalOutChannelD1Ev>
 8000e5a:	687b      	ldr	r3, [r7, #4]
 8000e5c:	f503 7303 	add.w	r3, r3, #524	; 0x20c
 8000e60:	4618      	mov	r0, r3
 8000e62:	f7ff fcd5 	bl	8000810 <_ZN17DigitalOutChannelD1Ev>
 8000e66:	687b      	ldr	r3, [r7, #4]
 8000e68:	f503 73f0 	add.w	r3, r3, #480	; 0x1e0
 8000e6c:	4618      	mov	r0, r3
 8000e6e:	f7ff fccf 	bl	8000810 <_ZN17DigitalOutChannelD1Ev>
 8000e72:	687b      	ldr	r3, [r7, #4]
 8000e74:	f503 73da 	add.w	r3, r3, #436	; 0x1b4
 8000e78:	4618      	mov	r0, r3
 8000e7a:	f7ff fcc9 	bl	8000810 <_ZN17DigitalOutChannelD1Ev>
 8000e7e:	687b      	ldr	r3, [r7, #4]
 8000e80:	f503 73c4 	add.w	r3, r3, #392	; 0x188
 8000e84:	4618      	mov	r0, r3
 8000e86:	f7ff fcc3 	bl	8000810 <_ZN17DigitalOutChannelD1Ev>
 8000e8a:	687b      	ldr	r3, [r7, #4]
 8000e8c:	f503 73ae 	add.w	r3, r3, #348	; 0x15c
 8000e90:	4618      	mov	r0, r3
 8000e92:	f7ff fcbd 	bl	8000810 <_ZN17DigitalOutChannelD1Ev>
 8000e96:	687b      	ldr	r3, [r7, #4]
 8000e98:	f503 7398 	add.w	r3, r3, #304	; 0x130
 8000e9c:	4618      	mov	r0, r3
 8000e9e:	f7ff fcb7 	bl	8000810 <_ZN17DigitalOutChannelD1Ev>
 8000ea2:	687b      	ldr	r3, [r7, #4]
 8000ea4:	f503 7382 	add.w	r3, r3, #260	; 0x104
 8000ea8:	4618      	mov	r0, r3
 8000eaa:	f7ff fcb1 	bl	8000810 <_ZN17DigitalOutChannelD1Ev>
 8000eae:	687b      	ldr	r3, [r7, #4]
 8000eb0:	33d8      	adds	r3, #216	; 0xd8
 8000eb2:	4618      	mov	r0, r3
 8000eb4:	f7ff fcac 	bl	8000810 <_ZN17DigitalOutChannelD1Ev>
 8000eb8:	687b      	ldr	r3, [r7, #4]
 8000eba:	4618      	mov	r0, r3
 8000ebc:	f7ff fc86 	bl	80007cc <_ZN14GenericChannelD1Ev>
 8000ec0:	687b      	ldr	r3, [r7, #4]
 8000ec2:	4618      	mov	r0, r3
 8000ec4:	3708      	adds	r7, #8
 8000ec6:	46bd      	mov	sp, r7
 8000ec8:	bd80      	pop	{r7, pc}
 8000eca:	bf00      	nop
 8000ecc:	08008f1c 	.word	0x08008f1c

08000ed0 <_ZN5IOBv3D0Ev>:
 8000ed0:	b580      	push	{r7, lr}
 8000ed2:	b082      	sub	sp, #8
 8000ed4:	af00      	add	r7, sp, #0
 8000ed6:	6078      	str	r0, [r7, #4]
 8000ed8:	6878      	ldr	r0, [r7, #4]
 8000eda:	f7ff ff9f 	bl	8000e1c <_ZN5IOBv3D1Ev>
 8000ede:	f44f 713b 	mov.w	r1, #748	; 0x2ec
 8000ee2:	6878      	ldr	r0, [r7, #4]
 8000ee4:	f007 fe54 	bl	8008b90 <_ZdlPvj>
 8000ee8:	687b      	ldr	r3, [r7, #4]
 8000eea:	4618      	mov	r0, r3
 8000eec:	3708      	adds	r7, #8
 8000eee:	46bd      	mov	sp, r7
 8000ef0:	bd80      	pop	{r7, pc}

08000ef2 <_ZN7SpeakerC1ERK20STRHAL_TIM_TimerId_tRK22STRHAL_TIM_ChannelId_t>:
#include "../Inc/Speaker.h"

Speaker::Speaker(const STRHAL_TIM_TimerId_t &pwmTimer, const STRHAL_TIM_ChannelId_t &control) :
 8000ef2:	b480      	push	{r7}
 8000ef4:	b085      	sub	sp, #20
 8000ef6:	af00      	add	r7, sp, #0
 8000ef8:	60f8      	str	r0, [r7, #12]
 8000efa:	60b9      	str	r1, [r7, #8]
 8000efc:	607a      	str	r2, [r7, #4]
		pwmTimer(pwmTimer), ctrlChannelId(control)
 8000efe:	68bb      	ldr	r3, [r7, #8]
 8000f00:	781a      	ldrb	r2, [r3, #0]
 8000f02:	68fb      	ldr	r3, [r7, #12]
 8000f04:	701a      	strb	r2, [r3, #0]
 8000f06:	687b      	ldr	r3, [r7, #4]
 8000f08:	781a      	ldrb	r2, [r3, #0]
 8000f0a:	68fb      	ldr	r3, [r7, #12]
 8000f0c:	705a      	strb	r2, [r3, #1]
{
}
 8000f0e:	68fb      	ldr	r3, [r7, #12]
 8000f10:	4618      	mov	r0, r3
 8000f12:	3714      	adds	r7, #20
 8000f14:	46bd      	mov	sp, r7
 8000f16:	f85d 7b04 	ldr.w	r7, [sp], #4
 8000f1a:	4770      	bx	lr

08000f1c <_ZN7Speaker4initEv>:

int Speaker::init()
{
 8000f1c:	b580      	push	{r7, lr}
 8000f1e:	b082      	sub	sp, #8
 8000f20:	af00      	add	r7, sp, #0
 8000f22:	6078      	str	r0, [r7, #4]
	if (STRHAL_TIM_PWM_Init(pwmTimer, PWM_PSC, PWM_RES) < 0)
 8000f24:	687b      	ldr	r3, [r7, #4]
 8000f26:	781b      	ldrb	r3, [r3, #0]
 8000f28:	f44f 6261 	mov.w	r2, #3600	; 0xe10
 8000f2c:	2158      	movs	r1, #88	; 0x58
 8000f2e:	4618      	mov	r0, r3
 8000f30:	f006 fbf6 	bl	8007720 <STRHAL_TIM_PWM_Init>
 8000f34:	4603      	mov	r3, r0
 8000f36:	0fdb      	lsrs	r3, r3, #31
 8000f38:	b2db      	uxtb	r3, r3
 8000f3a:	2b00      	cmp	r3, #0
 8000f3c:	d002      	beq.n	8000f44 <_ZN7Speaker4initEv+0x28>
		return -1;
 8000f3e:	f04f 33ff 	mov.w	r3, #4294967295	; 0xffffffff
 8000f42:	e023      	b.n	8000f8c <_ZN7Speaker4initEv+0x70>

	if (STRHAL_TIM_PWM_AddChannel(&pwmChannel, ctrlChannelId, STRHAL_TIM_PWM_CHANNELTYPE_SO) < 0)
 8000f44:	687b      	ldr	r3, [r7, #4]
 8000f46:	1c98      	adds	r0, r3, #2
 8000f48:	687b      	ldr	r3, [r7, #4]
 8000f4a:	785b      	ldrb	r3, [r3, #1]
 8000f4c:	2200      	movs	r2, #0
 8000f4e:	4619      	mov	r1, r3
 8000f50:	f006 fc78 	bl	8007844 <STRHAL_TIM_PWM_AddChannel>
 8000f54:	4603      	mov	r3, r0
 8000f56:	0fdb      	lsrs	r3, r3, #31
 8000f58:	b2db      	uxtb	r3, r3
 8000f5a:	2b00      	cmp	r3, #0
 8000f5c:	d002      	beq.n	8000f64 <_ZN7Speaker4initEv+0x48>
		return -1;
 8000f5e:	f04f 33ff 	mov.w	r3, #4294967295	; 0xffffffff
 8000f62:	e013      	b.n	8000f8c <_ZN7Speaker4initEv+0x70>

	if (STRHAL_TIM_PWM_SetDuty(&pwmChannel, 1800) != 1800)
 8000f64:	687b      	ldr	r3, [r7, #4]
 8000f66:	3302      	adds	r3, #2
 8000f68:	f44f 61e1 	mov.w	r1, #1800	; 0x708
 8000f6c:	4618      	mov	r0, r3
 8000f6e:	f006 fcdf 	bl	8007930 <STRHAL_TIM_PWM_SetDuty>
 8000f72:	4603      	mov	r3, r0
 8000f74:	f5b3 6fe1 	cmp.w	r3, #1800	; 0x708
 8000f78:	bf14      	ite	ne
 8000f7a:	2301      	movne	r3, #1
 8000f7c:	2300      	moveq	r3, #0
 8000f7e:	b2db      	uxtb	r3, r3
 8000f80:	2b00      	cmp	r3, #0
 8000f82:	d002      	beq.n	8000f8a <_ZN7Speaker4initEv+0x6e>
	{
		return -1;
 8000f84:	f04f 33ff 	mov.w	r3, #4294967295	; 0xffffffff
 8000f88:	e000      	b.n	8000f8c <_ZN7Speaker4initEv+0x70>
	}

	return 0;
 8000f8a:	2300      	movs	r3, #0
}
 8000f8c:	4618      	mov	r0, r3
 8000f8e:	3708      	adds	r7, #8
 8000f90:	46bd      	mov	sp, r7
 8000f92:	bd80      	pop	{r7, pc}

08000f94 <_ZN7Speaker4beepEhtt>:
{
	STRHAL_TIM_PWM_Enable(&pwmChannel, ena);
}

void Speaker::beep(uint8_t n, uint16_t tot1, uint16_t tot2)
{
 8000f94:	b580      	push	{r7, lr}
 8000f96:	b086      	sub	sp, #24
 8000f98:	af00      	add	r7, sp, #0
 8000f9a:	60f8      	str	r0, [r7, #12]
 8000f9c:	4608      	mov	r0, r1
 8000f9e:	4611      	mov	r1, r2
 8000fa0:	461a      	mov	r2, r3
 8000fa2:	4603      	mov	r3, r0
 8000fa4:	72fb      	strb	r3, [r7, #11]
 8000fa6:	460b      	mov	r3, r1
 8000fa8:	813b      	strh	r3, [r7, #8]
 8000faa:	4613      	mov	r3, r2
 8000fac:	80fb      	strh	r3, [r7, #6]
	for (int i = 0; i < n; i++)
 8000fae:	2300      	movs	r3, #0
 8000fb0:	617b      	str	r3, [r7, #20]
 8000fb2:	7afb      	ldrb	r3, [r7, #11]
 8000fb4:	697a      	ldr	r2, [r7, #20]
 8000fb6:	429a      	cmp	r2, r3
 8000fb8:	da17      	bge.n	8000fea <_ZN7Speaker4beepEhtt+0x56>
	{
		STRHAL_TIM_PWM_Enable(&pwmChannel, true);
 8000fba:	68fb      	ldr	r3, [r7, #12]
 8000fbc:	3302      	adds	r3, #2
 8000fbe:	2101      	movs	r1, #1
 8000fc0:	4618      	mov	r0, r3
 8000fc2:	f006 fce1 	bl	8007988 <STRHAL_TIM_PWM_Enable>
		LL_mDelay(tot1);
 8000fc6:	893b      	ldrh	r3, [r7, #8]
 8000fc8:	4618      	mov	r0, r3
 8000fca:	f003 fb4b 	bl	8004664 <LL_mDelay>
		STRHAL_TIM_PWM_Enable(&pwmChannel, false);
 8000fce:	68fb      	ldr	r3, [r7, #12]
 8000fd0:	3302      	adds	r3, #2
 8000fd2:	2100      	movs	r1, #0
 8000fd4:	4618      	mov	r0, r3
 8000fd6:	f006 fcd7 	bl	8007988 <STRHAL_TIM_PWM_Enable>
		LL_mDelay(tot2);
 8000fda:	88fb      	ldrh	r3, [r7, #6]
 8000fdc:	4618      	mov	r0, r3
 8000fde:	f003 fb41 	bl	8004664 <LL_mDelay>
	for (int i = 0; i < n; i++)
 8000fe2:	697b      	ldr	r3, [r7, #20]
 8000fe4:	3301      	adds	r3, #1
 8000fe6:	617b      	str	r3, [r7, #20]
 8000fe8:	e7e3      	b.n	8000fb2 <_ZN7Speaker4beepEhtt+0x1e>
	}
}
 8000fea:	bf00      	nop
 8000fec:	3718      	adds	r7, #24
 8000fee:	46bd      	mov	sp, r7
 8000ff0:	bd80      	pop	{r7, pc}
	...

08000ff4 <main>:
#include "RCU.h"
#include "LCB.h"
#include "git_version.h"

int main(void)
{
 8000ff4:	b590      	push	{r4, r7, lr}
 8000ff6:	f5ad 7d3d 	sub.w	sp, sp, #756	; 0x2f4
 8000ffa:	af00      	add	r7, sp, #0

	STRHAL_UART_Debug_Write_Blocking("IOB STARTED\n", 12, 50);
	iob.exec();
#elif defined(IOBv3_BOARD)
#ifdef UART_DEBUG
	IOBv3 iob(10,GIT_COMMIT_HASH_VALUE,100); // TODO disregard node ID and read dipswitches in IOB/LCB class
 8000ffc:	1d38      	adds	r0, r7, #4
 8000ffe:	2364      	movs	r3, #100	; 0x64
 8001000:	4a13      	ldr	r2, [pc, #76]	; (8001050 <main+0x5c>)
 8001002:	210a      	movs	r1, #10
 8001004:	f7ff fc26 	bl	8000854 <_ZN5IOBv3C1Emmm>
#else
	IOBv3 iob(10,GIT_COMMIT_HASH_VALUE,4); // TODO disregard node ID and read dipswitches in IOB/LCB class
#endif
	if(iob.init() != 0)
 8001008:	1d3b      	adds	r3, r7, #4
 800100a:	4618      	mov	r0, r3
 800100c:	f7ff fe52 	bl	8000cb4 <_ZN5IOBv34initEv>
 8001010:	4603      	mov	r3, r0
 8001012:	2b00      	cmp	r3, #0
 8001014:	bf14      	ite	ne
 8001016:	2301      	movne	r3, #1
 8001018:	2300      	moveq	r3, #0
 800101a:	b2db      	uxtb	r3, r3
 800101c:	2b00      	cmp	r3, #0
 800101e:	d006      	beq.n	800102e <main+0x3a>
			return -1;
 8001020:	f04f 34ff 	mov.w	r4, #4294967295	; 0xffffffff
	IOBv3 iob(10,GIT_COMMIT_HASH_VALUE,100); // TODO disregard node ID and read dipswitches in IOB/LCB class
 8001024:	1d3b      	adds	r3, r7, #4
 8001026:	4618      	mov	r0, r3
 8001028:	f7ff fef8 	bl	8000e1c <_ZN5IOBv3D1Ev>
 800102c:	e009      	b.n	8001042 <main+0x4e>

	STRHAL_UART_Debug_Write_Blocking("IOB STARTED\n", 12, 50);
 800102e:	2232      	movs	r2, #50	; 0x32
 8001030:	210c      	movs	r1, #12
 8001032:	4808      	ldr	r0, [pc, #32]	; (8001054 <main+0x60>)
 8001034:	f007 fb59 	bl	80086ea <STRHAL_UART_Debug_Write_Blocking>
	iob.exec();
 8001038:	1d3b      	adds	r3, r7, #4
 800103a:	4618      	mov	r0, r3
 800103c:	f7ff fea8 	bl	8000d90 <_ZN5IOBv34execEv>

	STRHAL_UART_Debug_Write_Blocking("LCB STARTED\n", 12, 50);
	lcb.exec();
#endif

	while (1);
 8001040:	e7fe      	b.n	8001040 <main+0x4c>
 8001042:	4623      	mov	r3, r4
}
 8001044:	4618      	mov	r0, r3
 8001046:	f507 773d 	add.w	r7, r7, #756	; 0x2f4
 800104a:	46bd      	mov	sp, r7
 800104c:	bd90      	pop	{r4, r7, pc}
 800104e:	bf00      	nop
 8001050:	758bea84 	.word	0x758bea84
 8001054:	08008eb8 	.word	0x08008eb8

08001058 <STRHAL_OofHandler>:

void STRHAL_OofHandler(STRHAL_Oof_t oof, char *msg)
{
 8001058:	b480      	push	{r7}
 800105a:	b083      	sub	sp, #12
 800105c:	af00      	add	r7, sp, #0
 800105e:	4603      	mov	r3, r0
 8001060:	6039      	str	r1, [r7, #0]
 8001062:	71fb      	strb	r3, [r7, #7]
	do
	{
	} while (0);
}
 8001064:	bf00      	nop
 8001066:	370c      	adds	r7, #12
 8001068:	46bd      	mov	sp, r7
 800106a:	f85d 7b04 	ldr.w	r7, [sp], #4
 800106e:	4770      	bx	lr

08001070 <LL_GPIO_ResetOutputPin>:
  *         @arg @ref LL_GPIO_PIN_15
  *         @arg @ref LL_GPIO_PIN_ALL
  * @retval None
  */
__STATIC_INLINE void LL_GPIO_ResetOutputPin(GPIO_TypeDef *GPIOx, uint32_t PinMask)
{
 8001070:	b480      	push	{r7}
 8001072:	b083      	sub	sp, #12
 8001074:	af00      	add	r7, sp, #0
 8001076:	6078      	str	r0, [r7, #4]
 8001078:	6039      	str	r1, [r7, #0]
  WRITE_REG(GPIOx->BRR, PinMask);
 800107a:	687b      	ldr	r3, [r7, #4]
 800107c:	683a      	ldr	r2, [r7, #0]
 800107e:	629a      	str	r2, [r3, #40]	; 0x28
}
 8001080:	bf00      	nop
 8001082:	370c      	adds	r7, #12
 8001084:	46bd      	mov	sp, r7
 8001086:	f85d 7b04 	ldr.w	r7, [sp], #4
 800108a:	4770      	bx	lr

0800108c <NMI_Handler>:
#include "stm32g4xx_it.h"
#include <STRHAL.h>

void NMI_Handler(void)
{
 800108c:	b480      	push	{r7}
 800108e:	af00      	add	r7, sp, #0
}
 8001090:	bf00      	nop
 8001092:	46bd      	mov	sp, r7
 8001094:	f85d 7b04 	ldr.w	r7, [sp], #4
 8001098:	4770      	bx	lr
	...

0800109c <HardFault_Handler>:

void HardFault_Handler(void)
{
 800109c:	b580      	push	{r7, lr}
 800109e:	af00      	add	r7, sp, #0
	LL_GPIO_ResetOutputPin(GPIOD, (1 << 1));
 80010a0:	2102      	movs	r1, #2
 80010a2:	4802      	ldr	r0, [pc, #8]	; (80010ac <HardFault_Handler+0x10>)
 80010a4:	f7ff ffe4 	bl	8001070 <LL_GPIO_ResetOutputPin>
	while (1)
 80010a8:	e7fe      	b.n	80010a8 <HardFault_Handler+0xc>
 80010aa:	bf00      	nop
 80010ac:	48000c00 	.word	0x48000c00

080010b0 <MemManage_Handler>:
	{
	}
}

void MemManage_Handler(void)
{
 80010b0:	b480      	push	{r7}
 80010b2:	af00      	add	r7, sp, #0
	while (1)
 80010b4:	e7fe      	b.n	80010b4 <MemManage_Handler+0x4>

080010b6 <BusFault_Handler>:
	{
	}
}

void BusFault_Handler(void)
{
 80010b6:	b480      	push	{r7}
 80010b8:	af00      	add	r7, sp, #0
	while (1)
 80010ba:	e7fe      	b.n	80010ba <BusFault_Handler+0x4>

080010bc <UsageFault_Handler>:
	{
	}
}

void UsageFault_Handler(void)
{
 80010bc:	b480      	push	{r7}
 80010be:	af00      	add	r7, sp, #0
	while (1)
 80010c0:	e7fe      	b.n	80010c0 <UsageFault_Handler+0x4>

080010c2 <SVC_Handler>:
	{
	}
}

void SVC_Handler(void)
{
 80010c2:	b480      	push	{r7}
 80010c4:	af00      	add	r7, sp, #0
}
 80010c6:	bf00      	nop
 80010c8:	46bd      	mov	sp, r7
 80010ca:	f85d 7b04 	ldr.w	r7, [sp], #4
 80010ce:	4770      	bx	lr

080010d0 <DebugMon_Handler>:

void DebugMon_Handler(void)
{
 80010d0:	b480      	push	{r7}
 80010d2:	af00      	add	r7, sp, #0
}
 80010d4:	bf00      	nop
 80010d6:	46bd      	mov	sp, r7
 80010d8:	f85d 7b04 	ldr.w	r7, [sp], #4
 80010dc:	4770      	bx	lr

080010de <PendSV_Handler>:

void PendSV_Handler(void)
{
 80010de:	b480      	push	{r7}
 80010e0:	af00      	add	r7, sp, #0
}
 80010e2:	bf00      	nop
 80010e4:	46bd      	mov	sp, r7
 80010e6:	f85d 7b04 	ldr.w	r7, [sp], #4
 80010ea:	4770      	bx	lr

080010ec <_getpid>:
void initialise_monitor_handles()
{
}

int _getpid(void)
{
 80010ec:	b480      	push	{r7}
 80010ee:	af00      	add	r7, sp, #0
	return 1;
 80010f0:	2301      	movs	r3, #1
}
 80010f2:	4618      	mov	r0, r3
 80010f4:	46bd      	mov	sp, r7
 80010f6:	f85d 7b04 	ldr.w	r7, [sp], #4
 80010fa:	4770      	bx	lr

080010fc <_kill>:

int _kill(int pid, int sig)
{
 80010fc:	b580      	push	{r7, lr}
 80010fe:	b082      	sub	sp, #8
 8001100:	af00      	add	r7, sp, #0
 8001102:	6078      	str	r0, [r7, #4]
 8001104:	6039      	str	r1, [r7, #0]
	errno = EINVAL;
 8001106:	f007 fd71 	bl	8008bec <__errno>
 800110a:	4603      	mov	r3, r0
 800110c:	2216      	movs	r2, #22
 800110e:	601a      	str	r2, [r3, #0]
	return -1;
 8001110:	f04f 33ff 	mov.w	r3, #4294967295	; 0xffffffff
}
 8001114:	4618      	mov	r0, r3
 8001116:	3708      	adds	r7, #8
 8001118:	46bd      	mov	sp, r7
 800111a:	bd80      	pop	{r7, pc}

0800111c <_exit>:

void _exit(int status)
{
 800111c:	b580      	push	{r7, lr}
 800111e:	b082      	sub	sp, #8
 8001120:	af00      	add	r7, sp, #0
 8001122:	6078      	str	r0, [r7, #4]
	_kill(status, -1);
 8001124:	f04f 31ff 	mov.w	r1, #4294967295	; 0xffffffff
 8001128:	6878      	ldr	r0, [r7, #4]
 800112a:	f7ff ffe7 	bl	80010fc <_kill>
	while (1)
 800112e:	e7fe      	b.n	800112e <_exit+0x12>

08001130 <SystemInit>:
 * @param  None
 * @retval None
 */

void SystemInit(void)
{
 8001130:	b480      	push	{r7}
 8001132:	af00      	add	r7, sp, #0
	/* FPU settings ------------------------------------------------------------*/
#if (__FPU_PRESENT == 1) && (__FPU_USED == 1)
	SCB->CPACR |= ((3UL << (10 * 2)) | (3UL << (11 * 2))); /* set CP10 and CP11 Full Access */
 8001134:	4b08      	ldr	r3, [pc, #32]	; (8001158 <SystemInit+0x28>)
 8001136:	f8d3 3088 	ldr.w	r3, [r3, #136]	; 0x88
 800113a:	4a07      	ldr	r2, [pc, #28]	; (8001158 <SystemInit+0x28>)
 800113c:	f443 0370 	orr.w	r3, r3, #15728640	; 0xf00000
 8001140:	f8c2 3088 	str.w	r3, [r2, #136]	; 0x88

	/* Configure the Vector Table location add offset address ------------------*/
#ifdef VECT_TAB_SRAM
  SCB->VTOR = SRAM_BASE | VECT_TAB_OFFSET; /* Vector Table Relocation in Internal SRAM */
#else
	SCB->VTOR = FLASH_BASE | VECT_TAB_OFFSET; /* Vector Table Relocation in Internal FLASH */
 8001144:	4b04      	ldr	r3, [pc, #16]	; (8001158 <SystemInit+0x28>)
 8001146:	f04f 6200 	mov.w	r2, #134217728	; 0x8000000
 800114a:	609a      	str	r2, [r3, #8]
#endif
}
 800114c:	bf00      	nop
 800114e:	46bd      	mov	sp, r7
 8001150:	f85d 7b04 	ldr.w	r7, [sp], #4
 8001154:	4770      	bx	lr
 8001156:	bf00      	nop
 8001158:	e000ed00 	.word	0xe000ed00

0800115c <_ZN15AbstractChannelC1E12CHANNEL_TYPEhm>:
#include "../Inc/Channels/AbstractChannel.h"

#include <cstring>

AbstractChannel::AbstractChannel(CHANNEL_TYPE type, uint8_t id, uint32_t refreshDivider) :
 800115c:	b480      	push	{r7}
 800115e:	b085      	sub	sp, #20
 8001160:	af00      	add	r7, sp, #0
 8001162:	60f8      	str	r0, [r7, #12]
 8001164:	607b      	str	r3, [r7, #4]
 8001166:	460b      	mov	r3, r1
 8001168:	72fb      	strb	r3, [r7, #11]
 800116a:	4613      	mov	r3, r2
 800116c:	72bb      	strb	r3, [r7, #10]
		refreshDivider(refreshDivider), refreshCounter(0), channelType(type), channelId(id), channelStatus(CHANNEL_STATUS_NOICE)
 800116e:	4a0c      	ldr	r2, [pc, #48]	; (80011a0 <_ZN15AbstractChannelC1E12CHANNEL_TYPEhm+0x44>)
 8001170:	68fb      	ldr	r3, [r7, #12]
 8001172:	601a      	str	r2, [r3, #0]
 8001174:	68fb      	ldr	r3, [r7, #12]
 8001176:	687a      	ldr	r2, [r7, #4]
 8001178:	605a      	str	r2, [r3, #4]
 800117a:	68fb      	ldr	r3, [r7, #12]
 800117c:	2200      	movs	r2, #0
 800117e:	609a      	str	r2, [r3, #8]
 8001180:	68fb      	ldr	r3, [r7, #12]
 8001182:	7afa      	ldrb	r2, [r7, #11]
 8001184:	731a      	strb	r2, [r3, #12]
 8001186:	68fb      	ldr	r3, [r7, #12]
 8001188:	7aba      	ldrb	r2, [r7, #10]
 800118a:	735a      	strb	r2, [r3, #13]
 800118c:	68fb      	ldr	r3, [r7, #12]
 800118e:	2200      	movs	r2, #0
 8001190:	739a      	strb	r2, [r3, #14]
{

}
 8001192:	68fb      	ldr	r3, [r7, #12]
 8001194:	4618      	mov	r0, r3
 8001196:	3714      	adds	r7, #20
 8001198:	46bd      	mov	sp, r7
 800119a:	f85d 7b04 	ldr.w	r7, [sp], #4
 800119e:	4770      	bx	lr
 80011a0:	08008f60 	.word	0x08008f60

080011a4 <_ZNK15AbstractChannel14getChannelTypeEv>:

CHANNEL_TYPE AbstractChannel::getChannelType() const
{
 80011a4:	b480      	push	{r7}
 80011a6:	b083      	sub	sp, #12
 80011a8:	af00      	add	r7, sp, #0
 80011aa:	6078      	str	r0, [r7, #4]
	return channelType;
 80011ac:	687b      	ldr	r3, [r7, #4]
 80011ae:	7b1b      	ldrb	r3, [r3, #12]
}
 80011b0:	4618      	mov	r0, r3
 80011b2:	370c      	adds	r7, #12
 80011b4:	46bd      	mov	sp, r7
 80011b6:	f85d 7b04 	ldr.w	r7, [sp], #4
 80011ba:	4770      	bx	lr

080011bc <_ZNK15AbstractChannel16getChannelStatusEv>:

CHANNEL_STATUS AbstractChannel::getChannelStatus() const
{
 80011bc:	b480      	push	{r7}
 80011be:	b083      	sub	sp, #12
 80011c0:	af00      	add	r7, sp, #0
 80011c2:	6078      	str	r0, [r7, #4]
	return channelStatus;
 80011c4:	687b      	ldr	r3, [r7, #4]
 80011c6:	7b9b      	ldrb	r3, [r3, #14]
}
 80011c8:	4618      	mov	r0, r3
 80011ca:	370c      	adds	r7, #12
 80011cc:	46bd      	mov	sp, r7
 80011ce:	f85d 7b04 	ldr.w	r7, [sp], #4
 80011d2:	4770      	bx	lr

080011d4 <_ZNK15AbstractChannel12getChannelIdEv>:

uint8_t AbstractChannel::getChannelId() const
{
 80011d4:	b480      	push	{r7}
 80011d6:	b083      	sub	sp, #12
 80011d8:	af00      	add	r7, sp, #0
 80011da:	6078      	str	r0, [r7, #4]
	return channelId;
 80011dc:	687b      	ldr	r3, [r7, #4]
 80011de:	7b5b      	ldrb	r3, [r3, #13]
}
 80011e0:	4618      	mov	r0, r3
 80011e2:	370c      	adds	r7, #12
 80011e4:	46bd      	mov	sp, r7
 80011e6:	f85d 7b04 	ldr.w	r7, [sp], #4
 80011ea:	4770      	bx	lr

080011ec <_ZNK15AbstractChannel11IsChannelIdEh>:
{
	return type == channelType;
}

bool AbstractChannel::IsChannelId(uint8_t id) const
{
 80011ec:	b480      	push	{r7}
 80011ee:	b083      	sub	sp, #12
 80011f0:	af00      	add	r7, sp, #0
 80011f2:	6078      	str	r0, [r7, #4]
 80011f4:	460b      	mov	r3, r1
 80011f6:	70fb      	strb	r3, [r7, #3]
	return channelId == id;
 80011f8:	687b      	ldr	r3, [r7, #4]
 80011fa:	7b5b      	ldrb	r3, [r3, #13]
 80011fc:	78fa      	ldrb	r2, [r7, #3]
 80011fe:	429a      	cmp	r2, r3
 8001200:	bf0c      	ite	eq
 8001202:	2301      	moveq	r3, #1
 8001204:	2300      	movne	r3, #0
 8001206:	b2db      	uxtb	r3, r3
}
 8001208:	4618      	mov	r0, r3
 800120a:	370c      	adds	r7, #12
 800120c:	46bd      	mov	sp, r7
 800120e:	f85d 7b04 	ldr.w	r7, [sp], #4
 8001212:	4770      	bx	lr

08001214 <_ZN15AbstractChannel11IsRefreshedEv>:

bool AbstractChannel::IsRefreshed()
{
 8001214:	b480      	push	{r7}
 8001216:	b083      	sub	sp, #12
 8001218:	af00      	add	r7, sp, #0
 800121a:	6078      	str	r0, [r7, #4]
	if (refreshDivider == 0)
 800121c:	687b      	ldr	r3, [r7, #4]
 800121e:	685b      	ldr	r3, [r3, #4]
 8001220:	2b00      	cmp	r3, #0
 8001222:	d101      	bne.n	8001228 <_ZN15AbstractChannel11IsRefreshedEv+0x14>
		return false;
 8001224:	2300      	movs	r3, #0
 8001226:	e010      	b.n	800124a <_ZN15AbstractChannel11IsRefreshedEv+0x36>
	refreshCounter++;
 8001228:	687b      	ldr	r3, [r7, #4]
 800122a:	689b      	ldr	r3, [r3, #8]
 800122c:	1c5a      	adds	r2, r3, #1
 800122e:	687b      	ldr	r3, [r7, #4]
 8001230:	609a      	str	r2, [r3, #8]
	if (refreshCounter != refreshDivider)
 8001232:	687b      	ldr	r3, [r7, #4]
 8001234:	689a      	ldr	r2, [r3, #8]
 8001236:	687b      	ldr	r3, [r7, #4]
 8001238:	685b      	ldr	r3, [r3, #4]
 800123a:	429a      	cmp	r2, r3
 800123c:	d001      	beq.n	8001242 <_ZN15AbstractChannel11IsRefreshedEv+0x2e>
		return false;
 800123e:	2300      	movs	r3, #0
 8001240:	e003      	b.n	800124a <_ZN15AbstractChannel11IsRefreshedEv+0x36>

	refreshCounter = 0;
 8001242:	687b      	ldr	r3, [r7, #4]
 8001244:	2200      	movs	r2, #0
 8001246:	609a      	str	r2, [r3, #8]
	return true;
 8001248:	2301      	movs	r3, #1
}
 800124a:	4618      	mov	r0, r3
 800124c:	370c      	adds	r7, #12
 800124e:	46bd      	mov	sp, r7
 8001250:	f85d 7b04 	ldr.w	r7, [sp], #4
 8001254:	4770      	bx	lr
	...

08001258 <_ZN15AbstractChannel14processMessageEhPhRh>:

int AbstractChannel::processMessage(uint8_t commandId, uint8_t *returnData, uint8_t &n)
{
 8001258:	b580      	push	{r7, lr}
 800125a:	b088      	sub	sp, #32
 800125c:	af00      	add	r7, sp, #0
 800125e:	60f8      	str	r0, [r7, #12]
 8001260:	607a      	str	r2, [r7, #4]
 8001262:	603b      	str	r3, [r7, #0]
 8001264:	460b      	mov	r3, r1
 8001266:	72fb      	strb	r3, [r7, #11]
	SetMsg_t *setMsg;
	setMsg = (SetMsg_t*) returnData;
 8001268:	687b      	ldr	r3, [r7, #4]
 800126a:	61fb      	str	r3, [r7, #28]
	int32_t temp = 0;
 800126c:	2300      	movs	r3, #0
 800126e:	617b      	str	r3, [r7, #20]
	int status = 0;
 8001270:	2300      	movs	r3, #0
 8001272:	61bb      	str	r3, [r7, #24]
	switch (commandId)
 8001274:	7afb      	ldrb	r3, [r7, #11]
 8001276:	2b06      	cmp	r3, #6
 8001278:	d862      	bhi.n	8001340 <_ZN15AbstractChannel14processMessageEhPhRh+0xe8>
 800127a:	a201      	add	r2, pc, #4	; (adr r2, 8001280 <_ZN15AbstractChannel14processMessageEhPhRh+0x28>)
 800127c:	f852 f023 	ldr.w	pc, [r2, r3, lsl #2]
 8001280:	080012cb 	.word	0x080012cb
 8001284:	08001341 	.word	0x08001341
 8001288:	08001337 	.word	0x08001337
 800128c:	08001341 	.word	0x08001341
 8001290:	080012db 	.word	0x080012db
 8001294:	08001341 	.word	0x08001341
 8001298:	0800129d 	.word	0x0800129d
	{
		case COMMON_REQ_GET_VARIABLE:
			status = getVariable(setMsg->variable_id, temp);
 800129c:	68fb      	ldr	r3, [r7, #12]
 800129e:	681b      	ldr	r3, [r3, #0]
 80012a0:	3320      	adds	r3, #32
 80012a2:	681b      	ldr	r3, [r3, #0]
 80012a4:	69fa      	ldr	r2, [r7, #28]
 80012a6:	7811      	ldrb	r1, [r2, #0]
 80012a8:	f107 0214 	add.w	r2, r7, #20
 80012ac:	68f8      	ldr	r0, [r7, #12]
 80012ae:	4798      	blx	r3
 80012b0:	61b8      	str	r0, [r7, #24]
			setMsg->value = temp;
 80012b2:	697a      	ldr	r2, [r7, #20]
 80012b4:	69fb      	ldr	r3, [r7, #28]
 80012b6:	f8c3 2001 	str.w	r2, [r3, #1]
			n += sizeof(SetMsg_t);
 80012ba:	683b      	ldr	r3, [r7, #0]
 80012bc:	781b      	ldrb	r3, [r3, #0]
 80012be:	3305      	adds	r3, #5
 80012c0:	b2da      	uxtb	r2, r3
 80012c2:	683b      	ldr	r3, [r7, #0]
 80012c4:	701a      	strb	r2, [r3, #0]
			return status;
 80012c6:	69bb      	ldr	r3, [r7, #24]
 80012c8:	e03c      	b.n	8001344 <_ZN15AbstractChannel14processMessageEhPhRh+0xec>

		case COMMON_REQ_RESET_SETTINGS:
			return reset();
 80012ca:	68fb      	ldr	r3, [r7, #12]
 80012cc:	681b      	ldr	r3, [r3, #0]
 80012ce:	330c      	adds	r3, #12
 80012d0:	681b      	ldr	r3, [r3, #0]
 80012d2:	68f8      	ldr	r0, [r7, #12]
 80012d4:	4798      	blx	r3
 80012d6:	4603      	mov	r3, r0
 80012d8:	e034      	b.n	8001344 <_ZN15AbstractChannel14processMessageEhPhRh+0xec>

		case COMMON_REQ_SET_VARIABLE:
			if (setVariable(setMsg->variable_id, setMsg->value) == -1)
 80012da:	68fb      	ldr	r3, [r7, #12]
 80012dc:	681b      	ldr	r3, [r3, #0]
 80012de:	331c      	adds	r3, #28
 80012e0:	681b      	ldr	r3, [r3, #0]
 80012e2:	69fa      	ldr	r2, [r7, #28]
 80012e4:	7811      	ldrb	r1, [r2, #0]
 80012e6:	69fa      	ldr	r2, [r7, #28]
 80012e8:	f8d2 2001 	ldr.w	r2, [r2, #1]
 80012ec:	68f8      	ldr	r0, [r7, #12]
 80012ee:	4798      	blx	r3
 80012f0:	4603      	mov	r3, r0
 80012f2:	f1b3 3fff 	cmp.w	r3, #4294967295	; 0xffffffff
 80012f6:	bf0c      	ite	eq
 80012f8:	2301      	moveq	r3, #1
 80012fa:	2300      	movne	r3, #0
 80012fc:	b2db      	uxtb	r3, r3
 80012fe:	2b00      	cmp	r3, #0
 8001300:	d002      	beq.n	8001308 <_ZN15AbstractChannel14processMessageEhPhRh+0xb0>
				return -1;
 8001302:	f04f 33ff 	mov.w	r3, #4294967295	; 0xffffffff
 8001306:	e01d      	b.n	8001344 <_ZN15AbstractChannel14processMessageEhPhRh+0xec>
			status = getVariable(setMsg->variable_id, temp);
 8001308:	68fb      	ldr	r3, [r7, #12]
 800130a:	681b      	ldr	r3, [r3, #0]
 800130c:	3320      	adds	r3, #32
 800130e:	681b      	ldr	r3, [r3, #0]
 8001310:	69fa      	ldr	r2, [r7, #28]
 8001312:	7811      	ldrb	r1, [r2, #0]
 8001314:	f107 0214 	add.w	r2, r7, #20
 8001318:	68f8      	ldr	r0, [r7, #12]
 800131a:	4798      	blx	r3
 800131c:	61b8      	str	r0, [r7, #24]
			setMsg->value = temp;
 800131e:	697a      	ldr	r2, [r7, #20]
 8001320:	69fb      	ldr	r3, [r7, #28]
 8001322:	f8c3 2001 	str.w	r2, [r3, #1]
			n += sizeof(SetMsg_t);
 8001326:	683b      	ldr	r3, [r7, #0]
 8001328:	781b      	ldrb	r3, [r3, #0]
 800132a:	3305      	adds	r3, #5
 800132c:	b2da      	uxtb	r2, r3
 800132e:	683b      	ldr	r3, [r7, #0]
 8001330:	701a      	strb	r2, [r3, #0]
			return status;
 8001332:	69bb      	ldr	r3, [r7, #24]
 8001334:	e006      	b.n	8001344 <_ZN15AbstractChannel14processMessageEhPhRh+0xec>

		case COMMON_REQ_STATUS:
			return getChannelStatus();
 8001336:	68f8      	ldr	r0, [r7, #12]
 8001338:	f7ff ff40 	bl	80011bc <_ZNK15AbstractChannel16getChannelStatusEv>
 800133c:	4603      	mov	r3, r0
 800133e:	e001      	b.n	8001344 <_ZN15AbstractChannel14processMessageEhPhRh+0xec>

		default:
			return -1;
 8001340:	f04f 33ff 	mov.w	r3, #4294967295	; 0xffffffff
	}
}
 8001344:	4618      	mov	r0, r3
 8001346:	3720      	adds	r7, #32
 8001348:	46bd      	mov	sp, r7
 800134a:	bd80      	pop	{r7, pc}

0800134c <_ZN15AbstractChannelD1Ev>:

AbstractChannel::~AbstractChannel()
 800134c:	b480      	push	{r7}
 800134e:	b083      	sub	sp, #12
 8001350:	af00      	add	r7, sp, #0
 8001352:	6078      	str	r0, [r7, #4]
 8001354:	4a04      	ldr	r2, [pc, #16]	; (8001368 <_ZN15AbstractChannelD1Ev+0x1c>)
 8001356:	687b      	ldr	r3, [r7, #4]
 8001358:	601a      	str	r2, [r3, #0]
{
}
 800135a:	687b      	ldr	r3, [r7, #4]
 800135c:	4618      	mov	r0, r3
 800135e:	370c      	adds	r7, #12
 8001360:	46bd      	mov	sp, r7
 8001362:	f85d 7b04 	ldr.w	r7, [sp], #4
 8001366:	4770      	bx	lr
 8001368:	08008f60 	.word	0x08008f60

0800136c <_ZN17DigitalOutChannelC1EhRK20STRHAL_ADC_Channel_tRK13STRHAL_GPIO_t19STRHAL_ADC_InType_tm>:
#include <Channels/DigitalOutChannel.h>

DigitalOutChannel::DigitalOutChannel(uint8_t id, const STRHAL_ADC_Channel_t &adcChannel, const STRHAL_GPIO_t &cntrlPin, STRHAL_ADC_InType_t adcInType, uint32_t refreshDivider) :
 800136c:	b580      	push	{r7, lr}
 800136e:	b084      	sub	sp, #16
 8001370:	af00      	add	r7, sp, #0
 8001372:	60f8      	str	r0, [r7, #12]
 8001374:	607a      	str	r2, [r7, #4]
 8001376:	603b      	str	r3, [r7, #0]
 8001378:	460b      	mov	r3, r1
 800137a:	72fb      	strb	r3, [r7, #11]
		AbstractChannel(CHANNEL_TYPE_DIGITAL_OUT, id, refreshDivider), adcChannel(adcChannel), cntrlPin(cntrlPin), adcInType(adcInType), hasFeedback(true)
 800137c:	68f8      	ldr	r0, [r7, #12]
 800137e:	7afa      	ldrb	r2, [r7, #11]
 8001380:	69fb      	ldr	r3, [r7, #28]
 8001382:	2107      	movs	r1, #7
 8001384:	f7ff feea 	bl	800115c <_ZN15AbstractChannelC1E12CHANNEL_TYPEhm>
 8001388:	4a10      	ldr	r2, [pc, #64]	; (80013cc <_ZN17DigitalOutChannelC1EhRK20STRHAL_ADC_Channel_tRK13STRHAL_GPIO_t19STRHAL_ADC_InType_tm+0x60>)
 800138a:	68fb      	ldr	r3, [r7, #12]
 800138c:	601a      	str	r2, [r3, #0]
 800138e:	68fb      	ldr	r3, [r7, #12]
 8001390:	687a      	ldr	r2, [r7, #4]
 8001392:	3314      	adds	r3, #20
 8001394:	e892 0003 	ldmia.w	r2, {r0, r1}
 8001398:	e883 0003 	stmia.w	r3, {r0, r1}
 800139c:	68fb      	ldr	r3, [r7, #12]
 800139e:	2200      	movs	r2, #0
 80013a0:	61da      	str	r2, [r3, #28]
 80013a2:	68fb      	ldr	r3, [r7, #12]
 80013a4:	683a      	ldr	r2, [r7, #0]
 80013a6:	3320      	adds	r3, #32
 80013a8:	e892 0003 	ldmia.w	r2, {r0, r1}
 80013ac:	e883 0003 	stmia.w	r3, {r0, r1}
 80013b0:	68fb      	ldr	r3, [r7, #12]
 80013b2:	7e3a      	ldrb	r2, [r7, #24]
 80013b4:	f883 2028 	strb.w	r2, [r3, #40]	; 0x28
 80013b8:	68fb      	ldr	r3, [r7, #12]
 80013ba:	2201      	movs	r2, #1
 80013bc:	f883 2029 	strb.w	r2, [r3, #41]	; 0x29
{
}
 80013c0:	68fb      	ldr	r3, [r7, #12]
 80013c2:	4618      	mov	r0, r3
 80013c4:	3710      	adds	r7, #16
 80013c6:	46bd      	mov	sp, r7
 80013c8:	bd80      	pop	{r7, pc}
 80013ca:	bf00      	nop
 80013cc:	08008f8c 	.word	0x08008f8c

080013d0 <_ZN17DigitalOutChannel4initEv>:
		AbstractChannel(CHANNEL_TYPE_DIGITAL_OUT, id, refreshDivider), cntrlPin(cntrlPin)
{
}

int DigitalOutChannel::init()
{
 80013d0:	b580      	push	{r7, lr}
 80013d2:	b082      	sub	sp, #8
 80013d4:	af00      	add	r7, sp, #0
 80013d6:	6078      	str	r0, [r7, #4]
	STRHAL_GPIO_SingleInit(&cntrlPin, STRHAL_GPIO_TYPE_OPP);
 80013d8:	687b      	ldr	r3, [r7, #4]
 80013da:	3320      	adds	r3, #32
 80013dc:	2100      	movs	r1, #0
 80013de:	4618      	mov	r0, r3
 80013e0:	f005 f9b6 	bl	8006750 <STRHAL_GPIO_SingleInit>
	if (hasFeedback)
 80013e4:	687b      	ldr	r3, [r7, #4]
 80013e6:	f893 3029 	ldrb.w	r3, [r3, #41]	; 0x29
 80013ea:	2b00      	cmp	r3, #0
 80013ec:	d013      	beq.n	8001416 <_ZN17DigitalOutChannel4initEv+0x46>
	{
		adcMeasurement = STRHAL_ADC_SubscribeChannel(&adcChannel, adcInType);
 80013ee:	687b      	ldr	r3, [r7, #4]
 80013f0:	f103 0214 	add.w	r2, r3, #20
 80013f4:	687b      	ldr	r3, [r7, #4]
 80013f6:	f893 3028 	ldrb.w	r3, [r3, #40]	; 0x28
 80013fa:	4619      	mov	r1, r3
 80013fc:	4610      	mov	r0, r2
 80013fe:	f004 f94f 	bl	80056a0 <STRHAL_ADC_SubscribeChannel>
 8001402:	4602      	mov	r2, r0
 8001404:	687b      	ldr	r3, [r7, #4]
 8001406:	61da      	str	r2, [r3, #28]

		if (adcMeasurement == nullptr)
 8001408:	687b      	ldr	r3, [r7, #4]
 800140a:	69db      	ldr	r3, [r3, #28]
 800140c:	2b00      	cmp	r3, #0
 800140e:	d102      	bne.n	8001416 <_ZN17DigitalOutChannel4initEv+0x46>
			return -1;
 8001410:	f04f 33ff 	mov.w	r3, #4294967295	; 0xffffffff
 8001414:	e000      	b.n	8001418 <_ZN17DigitalOutChannel4initEv+0x48>
	}

	return 0;
 8001416:	2300      	movs	r3, #0
}
 8001418:	4618      	mov	r0, r3
 800141a:	3708      	adds	r7, #8
 800141c:	46bd      	mov	sp, r7
 800141e:	bd80      	pop	{r7, pc}

08001420 <_ZN17DigitalOutChannel4execEv>:

int DigitalOutChannel::exec()
{
 8001420:	b480      	push	{r7}
 8001422:	b083      	sub	sp, #12
 8001424:	af00      	add	r7, sp, #0
 8001426:	6078      	str	r0, [r7, #4]
	return 0;
 8001428:	2300      	movs	r3, #0
}
 800142a:	4618      	mov	r0, r3
 800142c:	370c      	adds	r7, #12
 800142e:	46bd      	mov	sp, r7
 8001430:	f85d 7b04 	ldr.w	r7, [sp], #4
 8001434:	4770      	bx	lr

08001436 <_ZN17DigitalOutChannel5resetEv>:

int DigitalOutChannel::reset()
{
 8001436:	b480      	push	{r7}
 8001438:	b083      	sub	sp, #12
 800143a:	af00      	add	r7, sp, #0
 800143c:	6078      	str	r0, [r7, #4]
	return 0;
 800143e:	2300      	movs	r3, #0
}
 8001440:	4618      	mov	r0, r3
 8001442:	370c      	adds	r7, #12
 8001444:	46bd      	mov	sp, r7
 8001446:	f85d 7b04 	ldr.w	r7, [sp], #4
 800144a:	4770      	bx	lr

0800144c <_ZN17DigitalOutChannel14processMessageEhPhRh>:

int DigitalOutChannel::processMessage(uint8_t commandId, uint8_t *returnData, uint8_t &n)
{
 800144c:	b580      	push	{r7, lr}
 800144e:	b084      	sub	sp, #16
 8001450:	af00      	add	r7, sp, #0
 8001452:	60f8      	str	r0, [r7, #12]
 8001454:	607a      	str	r2, [r7, #4]
 8001456:	603b      	str	r3, [r7, #0]
 8001458:	460b      	mov	r3, r1
 800145a:	72fb      	strb	r3, [r7, #11]
	switch (commandId)
	{
		default:
			return AbstractChannel::processMessage(commandId, returnData, n);
 800145c:	68f8      	ldr	r0, [r7, #12]
 800145e:	7af9      	ldrb	r1, [r7, #11]
 8001460:	683b      	ldr	r3, [r7, #0]
 8001462:	687a      	ldr	r2, [r7, #4]
 8001464:	f7ff fef8 	bl	8001258 <_ZN15AbstractChannel14processMessageEhPhRh>
 8001468:	4603      	mov	r3, r0
	}
}
 800146a:	4618      	mov	r0, r3
 800146c:	3710      	adds	r7, #16
 800146e:	46bd      	mov	sp, r7
 8001470:	bd80      	pop	{r7, pc}

08001472 <_ZN17DigitalOutChannel13getSensorDataEPhRh>:

int DigitalOutChannel::getSensorData(uint8_t *data, uint8_t &n)
{
 8001472:	b480      	push	{r7}
 8001474:	b087      	sub	sp, #28
 8001476:	af00      	add	r7, sp, #0
 8001478:	60f8      	str	r0, [r7, #12]
 800147a:	60b9      	str	r1, [r7, #8]
 800147c:	607a      	str	r2, [r7, #4]
	uint16_t *out = (uint16_t*) (data + n);
 800147e:	687b      	ldr	r3, [r7, #4]
 8001480:	781b      	ldrb	r3, [r3, #0]
 8001482:	461a      	mov	r2, r3
 8001484:	68bb      	ldr	r3, [r7, #8]
 8001486:	4413      	add	r3, r2
 8001488:	617b      	str	r3, [r7, #20]
	*out = (hasFeedback) ? (*adcMeasurement << 4) : 0; // shift to 16bit full scale, if no feedback is present return 0
 800148a:	68fb      	ldr	r3, [r7, #12]
 800148c:	f893 3029 	ldrb.w	r3, [r3, #41]	; 0x29
 8001490:	2b00      	cmp	r3, #0
 8001492:	d006      	beq.n	80014a2 <_ZN17DigitalOutChannel13getSensorDataEPhRh+0x30>
 8001494:	68fb      	ldr	r3, [r7, #12]
 8001496:	69db      	ldr	r3, [r3, #28]
 8001498:	881b      	ldrh	r3, [r3, #0]
 800149a:	b29b      	uxth	r3, r3
 800149c:	011b      	lsls	r3, r3, #4
 800149e:	b29a      	uxth	r2, r3
 80014a0:	e000      	b.n	80014a4 <_ZN17DigitalOutChannel13getSensorDataEPhRh+0x32>
 80014a2:	2200      	movs	r2, #0
 80014a4:	697b      	ldr	r3, [r7, #20]
 80014a6:	801a      	strh	r2, [r3, #0]

	n += DIGITAL_OUT_DATA_N_BYTES;
 80014a8:	687b      	ldr	r3, [r7, #4]
 80014aa:	781b      	ldrb	r3, [r3, #0]
 80014ac:	3302      	adds	r3, #2
 80014ae:	b2da      	uxtb	r2, r3
 80014b0:	687b      	ldr	r3, [r7, #4]
 80014b2:	701a      	strb	r2, [r3, #0]
	return 0;
 80014b4:	2300      	movs	r3, #0
}
 80014b6:	4618      	mov	r0, r3
 80014b8:	371c      	adds	r7, #28
 80014ba:	46bd      	mov	sp, r7
 80014bc:	f85d 7b04 	ldr.w	r7, [sp], #4
 80014c0:	4770      	bx	lr
	...

080014c4 <_ZN17DigitalOutChannel11setVariableEhl>:

int DigitalOutChannel::setVariable(uint8_t variableId, int32_t data)
{
 80014c4:	b580      	push	{r7, lr}
 80014c6:	b084      	sub	sp, #16
 80014c8:	af00      	add	r7, sp, #0
 80014ca:	60f8      	str	r0, [r7, #12]
 80014cc:	460b      	mov	r3, r1
 80014ce:	607a      	str	r2, [r7, #4]
 80014d0:	72fb      	strb	r3, [r7, #11]
	switch (variableId)
 80014d2:	7afb      	ldrb	r3, [r7, #11]
 80014d4:	2b04      	cmp	r3, #4
 80014d6:	d833      	bhi.n	8001540 <_ZN17DigitalOutChannel11setVariableEhl+0x7c>
 80014d8:	a201      	add	r2, pc, #4	; (adr r2, 80014e0 <_ZN17DigitalOutChannel11setVariableEhl+0x1c>)
 80014da:	f852 f023 	ldr.w	pc, [r2, r3, lsl #2]
 80014de:	bf00      	nop
 80014e0:	080014f5 	.word	0x080014f5
 80014e4:	08001519 	.word	0x08001519
 80014e8:	08001525 	.word	0x08001525
 80014ec:	08001541 	.word	0x08001541
 80014f0:	08001531 	.word	0x08001531
	{
		case DIGITAL_OUT_STATE:
			if (setState(data) != 0)
 80014f4:	687b      	ldr	r3, [r7, #4]
 80014f6:	4619      	mov	r1, r3
 80014f8:	68f8      	ldr	r0, [r7, #12]
 80014fa:	f000 f876 	bl	80015ea <_ZN17DigitalOutChannel8setStateEm>
 80014fe:	4603      	mov	r3, r0
 8001500:	2b00      	cmp	r3, #0
 8001502:	bf14      	ite	ne
 8001504:	2301      	movne	r3, #1
 8001506:	2300      	moveq	r3, #0
 8001508:	b2db      	uxtb	r3, r3
 800150a:	2b00      	cmp	r3, #0
 800150c:	d002      	beq.n	8001514 <_ZN17DigitalOutChannel11setVariableEhl+0x50>
				return -1;
 800150e:	f04f 33ff 	mov.w	r3, #4294967295	; 0xffffffff
 8001512:	e017      	b.n	8001544 <_ZN17DigitalOutChannel11setVariableEhl+0x80>
			return 0;
 8001514:	2300      	movs	r3, #0
 8001516:	e015      	b.n	8001544 <_ZN17DigitalOutChannel11setVariableEhl+0x80>
		case DIGITAL_OUT_DUTY_CYCLE:
			dutyCycle = data;
 8001518:	687b      	ldr	r3, [r7, #4]
 800151a:	b29a      	uxth	r2, r3
 800151c:	68fb      	ldr	r3, [r7, #12]
 800151e:	821a      	strh	r2, [r3, #16]
			return 0;
 8001520:	2300      	movs	r3, #0
 8001522:	e00f      	b.n	8001544 <_ZN17DigitalOutChannel11setVariableEhl+0x80>
		case DIGITAL_OUT_FREQUENCY:
			frequency = data;
 8001524:	687b      	ldr	r3, [r7, #4]
 8001526:	b29a      	uxth	r2, r3
 8001528:	68fb      	ldr	r3, [r7, #12]
 800152a:	825a      	strh	r2, [r3, #18]
			return 0;
 800152c:	2300      	movs	r3, #0
 800152e:	e009      	b.n	8001544 <_ZN17DigitalOutChannel11setVariableEhl+0x80>
		case DIGITAL_OUT_SENSOR_REFRESH_DIVIDER:
			refreshDivider = data;
 8001530:	687a      	ldr	r2, [r7, #4]
 8001532:	68fb      	ldr	r3, [r7, #12]
 8001534:	605a      	str	r2, [r3, #4]
			refreshCounter = 0;
 8001536:	68fb      	ldr	r3, [r7, #12]
 8001538:	2200      	movs	r2, #0
 800153a:	609a      	str	r2, [r3, #8]
			return 0;
 800153c:	2300      	movs	r3, #0
 800153e:	e001      	b.n	8001544 <_ZN17DigitalOutChannel11setVariableEhl+0x80>
		default:
			return -1;
 8001540:	f04f 33ff 	mov.w	r3, #4294967295	; 0xffffffff
	}
}
 8001544:	4618      	mov	r0, r3
 8001546:	3710      	adds	r7, #16
 8001548:	46bd      	mov	sp, r7
 800154a:	bd80      	pop	{r7, pc}

0800154c <_ZNK17DigitalOutChannel11getVariableEhRl>:

int DigitalOutChannel::getVariable(uint8_t variableId, int32_t &data) const
{
 800154c:	b580      	push	{r7, lr}
 800154e:	b084      	sub	sp, #16
 8001550:	af00      	add	r7, sp, #0
 8001552:	60f8      	str	r0, [r7, #12]
 8001554:	460b      	mov	r3, r1
 8001556:	607a      	str	r2, [r7, #4]
 8001558:	72fb      	strb	r3, [r7, #11]
	switch (variableId)
 800155a:	7afb      	ldrb	r3, [r7, #11]
 800155c:	2b04      	cmp	r3, #4
 800155e:	d82b      	bhi.n	80015b8 <_ZNK17DigitalOutChannel11getVariableEhRl+0x6c>
 8001560:	a201      	add	r2, pc, #4	; (adr r2, 8001568 <_ZNK17DigitalOutChannel11getVariableEhRl+0x1c>)
 8001562:	f852 f023 	ldr.w	pc, [r2, r3, lsl #2]
 8001566:	bf00      	nop
 8001568:	0800157d 	.word	0x0800157d
 800156c:	0800158f 	.word	0x0800158f
 8001570:	0800159d 	.word	0x0800159d
 8001574:	080015b9 	.word	0x080015b9
 8001578:	080015ab 	.word	0x080015ab
	{
		case DIGITAL_OUT_STATE:
			data = getState();
 800157c:	68f8      	ldr	r0, [r7, #12]
 800157e:	f000 f821 	bl	80015c4 <_ZNK17DigitalOutChannel8getStateEv>
 8001582:	4603      	mov	r3, r0
 8001584:	461a      	mov	r2, r3
 8001586:	687b      	ldr	r3, [r7, #4]
 8001588:	601a      	str	r2, [r3, #0]
			return 0;
 800158a:	2300      	movs	r3, #0
 800158c:	e016      	b.n	80015bc <_ZNK17DigitalOutChannel11getVariableEhRl+0x70>
		case DIGITAL_OUT_DUTY_CYCLE:
			data = dutyCycle;
 800158e:	68fb      	ldr	r3, [r7, #12]
 8001590:	8a1b      	ldrh	r3, [r3, #16]
 8001592:	461a      	mov	r2, r3
 8001594:	687b      	ldr	r3, [r7, #4]
 8001596:	601a      	str	r2, [r3, #0]
			return 0;
 8001598:	2300      	movs	r3, #0
 800159a:	e00f      	b.n	80015bc <_ZNK17DigitalOutChannel11getVariableEhRl+0x70>
		case DIGITAL_OUT_FREQUENCY:
			data = frequency;
 800159c:	68fb      	ldr	r3, [r7, #12]
 800159e:	8a5b      	ldrh	r3, [r3, #18]
 80015a0:	461a      	mov	r2, r3
 80015a2:	687b      	ldr	r3, [r7, #4]
 80015a4:	601a      	str	r2, [r3, #0]
			return 0;
 80015a6:	2300      	movs	r3, #0
 80015a8:	e008      	b.n	80015bc <_ZNK17DigitalOutChannel11getVariableEhRl+0x70>
		case DIGITAL_OUT_SENSOR_REFRESH_DIVIDER:
			data = (int32_t) refreshDivider;
 80015aa:	68fb      	ldr	r3, [r7, #12]
 80015ac:	685b      	ldr	r3, [r3, #4]
 80015ae:	461a      	mov	r2, r3
 80015b0:	687b      	ldr	r3, [r7, #4]
 80015b2:	601a      	str	r2, [r3, #0]
			return 0;
 80015b4:	2300      	movs	r3, #0
 80015b6:	e001      	b.n	80015bc <_ZNK17DigitalOutChannel11getVariableEhRl+0x70>
		default:
			return -1;
 80015b8:	f04f 33ff 	mov.w	r3, #4294967295	; 0xffffffff
	}
}
 80015bc:	4618      	mov	r0, r3
 80015be:	3710      	adds	r7, #16
 80015c0:	46bd      	mov	sp, r7
 80015c2:	bd80      	pop	{r7, pc}

080015c4 <_ZNK17DigitalOutChannel8getStateEv>:

uint32_t DigitalOutChannel::getState() const
{
 80015c4:	b580      	push	{r7, lr}
 80015c6:	b082      	sub	sp, #8
 80015c8:	af00      	add	r7, sp, #0
 80015ca:	6078      	str	r0, [r7, #4]
	return (STRHAL_GPIO_ReadOutput(&cntrlPin) == STRHAL_GPIO_VALUE_L) ? 0UL : 1UL;
 80015cc:	687b      	ldr	r3, [r7, #4]
 80015ce:	3320      	adds	r3, #32
 80015d0:	4618      	mov	r0, r3
 80015d2:	f005 f942 	bl	800685a <STRHAL_GPIO_ReadOutput>
 80015d6:	4603      	mov	r3, r0
 80015d8:	2b00      	cmp	r3, #0
 80015da:	bf14      	ite	ne
 80015dc:	2301      	movne	r3, #1
 80015de:	2300      	moveq	r3, #0
 80015e0:	b2db      	uxtb	r3, r3
}
 80015e2:	4618      	mov	r0, r3
 80015e4:	3708      	adds	r7, #8
 80015e6:	46bd      	mov	sp, r7
 80015e8:	bd80      	pop	{r7, pc}

080015ea <_ZN17DigitalOutChannel8setStateEm>:

int DigitalOutChannel::setState(uint32_t state)
{
 80015ea:	b580      	push	{r7, lr}
 80015ec:	b082      	sub	sp, #8
 80015ee:	af00      	add	r7, sp, #0
 80015f0:	6078      	str	r0, [r7, #4]
 80015f2:	6039      	str	r1, [r7, #0]
	if (state == 0)
 80015f4:	683b      	ldr	r3, [r7, #0]
 80015f6:	2b00      	cmp	r3, #0
 80015f8:	d106      	bne.n	8001608 <_ZN17DigitalOutChannel8setStateEm+0x1e>
	{
		STRHAL_GPIO_Write(&cntrlPin, STRHAL_GPIO_VALUE_L);
 80015fa:	687b      	ldr	r3, [r7, #4]
 80015fc:	3320      	adds	r3, #32
 80015fe:	2100      	movs	r1, #0
 8001600:	4618      	mov	r0, r3
 8001602:	f005 f901 	bl	8006808 <STRHAL_GPIO_Write>
 8001606:	e005      	b.n	8001614 <_ZN17DigitalOutChannel8setStateEm+0x2a>
	}
	else
	{
		STRHAL_GPIO_Write(&cntrlPin, STRHAL_GPIO_VALUE_H);
 8001608:	687b      	ldr	r3, [r7, #4]
 800160a:	3320      	adds	r3, #32
 800160c:	2101      	movs	r1, #1
 800160e:	4618      	mov	r0, r3
 8001610:	f005 f8fa 	bl	8006808 <STRHAL_GPIO_Write>
	}
	return 0;
 8001614:	2300      	movs	r3, #0
}
 8001616:	4618      	mov	r0, r3
 8001618:	3708      	adds	r7, #8
 800161a:	46bd      	mov	sp, r7
 800161c:	bd80      	pop	{r7, pc}
	...

08001620 <_ZN14GenericChannelC1Emmm>:
#include <git_version.h>

GenericChannel* GenericChannel::gcPtr = nullptr; // necessary for static callbacks
bool GenericChannel::loraActive = false;

GenericChannel::GenericChannel(uint32_t nodeId, uint32_t firmwareVersion, uint32_t refreshDivider) :
 8001620:	b580      	push	{r7, lr}
 8001622:	b084      	sub	sp, #16
 8001624:	af00      	add	r7, sp, #0
 8001626:	60f8      	str	r0, [r7, #12]
 8001628:	60b9      	str	r1, [r7, #8]
 800162a:	607a      	str	r2, [r7, #4]
 800162c:	603b      	str	r3, [r7, #0]
		AbstractChannel(CHANNEL_TYPE_NODE_GENERIC, GENERIC_CHANNEL_ID, refreshDivider), can(Can::instance(nodeId)), flash(W25Qxx_Flash::instance()), nodeId(nodeId), firmwareVersion(GIT_COMMIT_HASH_VALUE)
 800162e:	68f8      	ldr	r0, [r7, #12]
 8001630:	683b      	ldr	r3, [r7, #0]
 8001632:	223f      	movs	r2, #63	; 0x3f
 8001634:	2101      	movs	r1, #1
 8001636:	f7ff fd91 	bl	800115c <_ZN15AbstractChannelC1E12CHANNEL_TYPEhm>
 800163a:	4a1b      	ldr	r2, [pc, #108]	; (80016a8 <_ZN14GenericChannelC1Emmm+0x88>)
 800163c:	68fb      	ldr	r3, [r7, #12]
 800163e:	601a      	str	r2, [r3, #0]
 8001640:	68fb      	ldr	r3, [r7, #12]
 8001642:	3310      	adds	r3, #16
 8001644:	2280      	movs	r2, #128	; 0x80
 8001646:	2100      	movs	r1, #0
 8001648:	4618      	mov	r0, r3
 800164a:	f007 fb0f 	bl	8008c6c <memset>
 800164e:	68fb      	ldr	r3, [r7, #12]
 8001650:	3390      	adds	r3, #144	; 0x90
 8001652:	2220      	movs	r2, #32
 8001654:	2100      	movs	r1, #0
 8001656:	4618      	mov	r0, r3
 8001658:	f007 fb08 	bl	8008c6c <memset>
 800165c:	68b8      	ldr	r0, [r7, #8]
 800165e:	f7fe fe03 	bl	8000268 <_ZN3Can8instanceEm>
 8001662:	4602      	mov	r2, r0
 8001664:	68fb      	ldr	r3, [r7, #12]
 8001666:	f8c3 20b0 	str.w	r2, [r3, #176]	; 0xb0
 800166a:	f000 fd69 	bl	8002140 <_ZN12W25Qxx_Flash8instanceEv>
 800166e:	4602      	mov	r2, r0
 8001670:	68fb      	ldr	r3, [r7, #12]
 8001672:	f8c3 20b4 	str.w	r2, [r3, #180]	; 0xb4
 8001676:	68fb      	ldr	r3, [r7, #12]
 8001678:	68ba      	ldr	r2, [r7, #8]
 800167a:	f8c3 20b8 	str.w	r2, [r3, #184]	; 0xb8
 800167e:	68fb      	ldr	r3, [r7, #12]
 8001680:	4a0a      	ldr	r2, [pc, #40]	; (80016ac <_ZN14GenericChannelC1Emmm+0x8c>)
 8001682:	f8c3 20bc 	str.w	r2, [r3, #188]	; 0xbc
 8001686:	68fb      	ldr	r3, [r7, #12]
 8001688:	2200      	movs	r2, #0
 800168a:	f883 20c4 	strb.w	r2, [r3, #196]	; 0xc4
 800168e:	68fb      	ldr	r3, [r7, #12]
 8001690:	2200      	movs	r2, #0
 8001692:	f883 20c5 	strb.w	r2, [r3, #197]	; 0xc5
{
	gcPtr = this;
 8001696:	4a06      	ldr	r2, [pc, #24]	; (80016b0 <_ZN14GenericChannelC1Emmm+0x90>)
 8001698:	68fb      	ldr	r3, [r7, #12]
 800169a:	6013      	str	r3, [r2, #0]
}
 800169c:	68fb      	ldr	r3, [r7, #12]
 800169e:	4618      	mov	r0, r3
 80016a0:	3710      	adds	r7, #16
 80016a2:	46bd      	mov	sp, r7
 80016a4:	bd80      	pop	{r7, pc}
 80016a6:	bf00      	nop
 80016a8:	08008fb8 	.word	0x08008fb8
 80016ac:	758bea84 	.word	0x758bea84
 80016b0:	20000818 	.word	0x20000818

080016b4 <_ZNK14GenericChannel9getNodeIdEv>:

uint32_t GenericChannel::getNodeId() const
{
 80016b4:	b480      	push	{r7}
 80016b6:	b083      	sub	sp, #12
 80016b8:	af00      	add	r7, sp, #0
 80016ba:	6078      	str	r0, [r7, #4]
	return nodeId;
 80016bc:	687b      	ldr	r3, [r7, #4]
 80016be:	f8d3 30b8 	ldr.w	r3, [r3, #184]	; 0xb8
}
 80016c2:	4618      	mov	r0, r3
 80016c4:	370c      	adds	r7, #12
 80016c6:	46bd      	mov	sp, r7
 80016c8:	f85d 7b04 	ldr.w	r7, [sp], #4
 80016cc:	4770      	bx	lr

080016ce <_ZN14GenericChannel4initEv>:

int GenericChannel::init()
{
 80016ce:	b580      	push	{r7, lr}
 80016d0:	b08a      	sub	sp, #40	; 0x28
 80016d2:	af00      	add	r7, sp, #0
 80016d4:	6078      	str	r0, [r7, #4]
	for (AbstractModule *module : modules)
 80016d6:	687b      	ldr	r3, [r7, #4]
 80016d8:	3390      	adds	r3, #144	; 0x90
 80016da:	61fb      	str	r3, [r7, #28]
 80016dc:	69fb      	ldr	r3, [r7, #28]
 80016de:	627b      	str	r3, [r7, #36]	; 0x24
 80016e0:	69fb      	ldr	r3, [r7, #28]
 80016e2:	3320      	adds	r3, #32
 80016e4:	61bb      	str	r3, [r7, #24]
 80016e6:	6a7a      	ldr	r2, [r7, #36]	; 0x24
 80016e8:	69bb      	ldr	r3, [r7, #24]
 80016ea:	429a      	cmp	r2, r3
 80016ec:	d01a      	beq.n	8001724 <_ZN14GenericChannel4initEv+0x56>
 80016ee:	6a7b      	ldr	r3, [r7, #36]	; 0x24
 80016f0:	681b      	ldr	r3, [r3, #0]
 80016f2:	617b      	str	r3, [r7, #20]
	{
		if (module == nullptr)
 80016f4:	697b      	ldr	r3, [r7, #20]
 80016f6:	2b00      	cmp	r3, #0
 80016f8:	d00f      	beq.n	800171a <_ZN14GenericChannel4initEv+0x4c>
			continue;
		if (module->init() != 0)
 80016fa:	697b      	ldr	r3, [r7, #20]
 80016fc:	681b      	ldr	r3, [r3, #0]
 80016fe:	681b      	ldr	r3, [r3, #0]
 8001700:	6978      	ldr	r0, [r7, #20]
 8001702:	4798      	blx	r3
 8001704:	4603      	mov	r3, r0
 8001706:	2b00      	cmp	r3, #0
 8001708:	bf14      	ite	ne
 800170a:	2301      	movne	r3, #1
 800170c:	2300      	moveq	r3, #0
 800170e:	b2db      	uxtb	r3, r3
 8001710:	2b00      	cmp	r3, #0
 8001712:	d003      	beq.n	800171c <_ZN14GenericChannel4initEv+0x4e>
			return -1;
 8001714:	f04f 33ff 	mov.w	r3, #4294967295	; 0xffffffff
 8001718:	e02d      	b.n	8001776 <_ZN14GenericChannel4initEv+0xa8>
			continue;
 800171a:	bf00      	nop
	for (AbstractModule *module : modules)
 800171c:	6a7b      	ldr	r3, [r7, #36]	; 0x24
 800171e:	3304      	adds	r3, #4
 8001720:	627b      	str	r3, [r7, #36]	; 0x24
 8001722:	e7e0      	b.n	80016e6 <_ZN14GenericChannel4initEv+0x18>
	}

	for (AbstractChannel *channel : channels)
 8001724:	687b      	ldr	r3, [r7, #4]
 8001726:	3310      	adds	r3, #16
 8001728:	613b      	str	r3, [r7, #16]
 800172a:	693b      	ldr	r3, [r7, #16]
 800172c:	623b      	str	r3, [r7, #32]
 800172e:	693b      	ldr	r3, [r7, #16]
 8001730:	3380      	adds	r3, #128	; 0x80
 8001732:	60fb      	str	r3, [r7, #12]
 8001734:	6a3a      	ldr	r2, [r7, #32]
 8001736:	68fb      	ldr	r3, [r7, #12]
 8001738:	429a      	cmp	r2, r3
 800173a:	d01b      	beq.n	8001774 <_ZN14GenericChannel4initEv+0xa6>
 800173c:	6a3b      	ldr	r3, [r7, #32]
 800173e:	681b      	ldr	r3, [r3, #0]
 8001740:	60bb      	str	r3, [r7, #8]
	{
		if (channel == nullptr)
 8001742:	68bb      	ldr	r3, [r7, #8]
 8001744:	2b00      	cmp	r3, #0
 8001746:	d010      	beq.n	800176a <_ZN14GenericChannel4initEv+0x9c>
			continue;
		if (channel->init() != 0)
 8001748:	68bb      	ldr	r3, [r7, #8]
 800174a:	681b      	ldr	r3, [r3, #0]
 800174c:	3308      	adds	r3, #8
 800174e:	681b      	ldr	r3, [r3, #0]
 8001750:	68b8      	ldr	r0, [r7, #8]
 8001752:	4798      	blx	r3
 8001754:	4603      	mov	r3, r0
 8001756:	2b00      	cmp	r3, #0
 8001758:	bf14      	ite	ne
 800175a:	2301      	movne	r3, #1
 800175c:	2300      	moveq	r3, #0
 800175e:	b2db      	uxtb	r3, r3
 8001760:	2b00      	cmp	r3, #0
 8001762:	d003      	beq.n	800176c <_ZN14GenericChannel4initEv+0x9e>
		{
			return -1;
 8001764:	f04f 33ff 	mov.w	r3, #4294967295	; 0xffffffff
 8001768:	e005      	b.n	8001776 <_ZN14GenericChannel4initEv+0xa8>
			continue;
 800176a:	bf00      	nop
	for (AbstractChannel *channel : channels)
 800176c:	6a3b      	ldr	r3, [r7, #32]
 800176e:	3304      	adds	r3, #4
 8001770:	623b      	str	r3, [r7, #32]
 8001772:	e7df      	b.n	8001734 <_ZN14GenericChannel4initEv+0x66>
		}
	}

	return 0;
 8001774:	2300      	movs	r3, #0
}
 8001776:	4618      	mov	r0, r3
 8001778:	3728      	adds	r7, #40	; 0x28
 800177a:	46bd      	mov	sp, r7
 800177c:	bd80      	pop	{r7, pc}

0800177e <_ZN14GenericChannel4execEv>:

int GenericChannel::exec()
{
 800177e:	b580      	push	{r7, lr}
 8001780:	b08a      	sub	sp, #40	; 0x28
 8001782:	af00      	add	r7, sp, #0
 8001784:	6078      	str	r0, [r7, #4]
	for (AbstractModule *module : modules)
 8001786:	687b      	ldr	r3, [r7, #4]
 8001788:	3390      	adds	r3, #144	; 0x90
 800178a:	61fb      	str	r3, [r7, #28]
 800178c:	69fb      	ldr	r3, [r7, #28]
 800178e:	627b      	str	r3, [r7, #36]	; 0x24
 8001790:	69fb      	ldr	r3, [r7, #28]
 8001792:	3320      	adds	r3, #32
 8001794:	61bb      	str	r3, [r7, #24]
 8001796:	6a7a      	ldr	r2, [r7, #36]	; 0x24
 8001798:	69bb      	ldr	r3, [r7, #24]
 800179a:	429a      	cmp	r2, r3
 800179c:	d01b      	beq.n	80017d6 <_ZN14GenericChannel4execEv+0x58>
 800179e:	6a7b      	ldr	r3, [r7, #36]	; 0x24
 80017a0:	681b      	ldr	r3, [r3, #0]
 80017a2:	617b      	str	r3, [r7, #20]
	{
		if (module == nullptr)
 80017a4:	697b      	ldr	r3, [r7, #20]
 80017a6:	2b00      	cmp	r3, #0
 80017a8:	d010      	beq.n	80017cc <_ZN14GenericChannel4execEv+0x4e>
			continue;
		if (module->exec() != 0)
 80017aa:	697b      	ldr	r3, [r7, #20]
 80017ac:	681b      	ldr	r3, [r3, #0]
 80017ae:	3308      	adds	r3, #8
 80017b0:	681b      	ldr	r3, [r3, #0]
 80017b2:	6978      	ldr	r0, [r7, #20]
 80017b4:	4798      	blx	r3
 80017b6:	4603      	mov	r3, r0
 80017b8:	2b00      	cmp	r3, #0
 80017ba:	bf14      	ite	ne
 80017bc:	2301      	movne	r3, #1
 80017be:	2300      	moveq	r3, #0
 80017c0:	b2db      	uxtb	r3, r3
 80017c2:	2b00      	cmp	r3, #0
 80017c4:	d003      	beq.n	80017ce <_ZN14GenericChannel4execEv+0x50>
			return -1;
 80017c6:	f04f 33ff 	mov.w	r3, #4294967295	; 0xffffffff
 80017ca:	e02d      	b.n	8001828 <_ZN14GenericChannel4execEv+0xaa>
			continue;
 80017cc:	bf00      	nop
	for (AbstractModule *module : modules)
 80017ce:	6a7b      	ldr	r3, [r7, #36]	; 0x24
 80017d0:	3304      	adds	r3, #4
 80017d2:	627b      	str	r3, [r7, #36]	; 0x24
 80017d4:	e7df      	b.n	8001796 <_ZN14GenericChannel4execEv+0x18>
	}

	for (AbstractChannel *channel : channels)
 80017d6:	687b      	ldr	r3, [r7, #4]
 80017d8:	3310      	adds	r3, #16
 80017da:	613b      	str	r3, [r7, #16]
 80017dc:	693b      	ldr	r3, [r7, #16]
 80017de:	623b      	str	r3, [r7, #32]
 80017e0:	693b      	ldr	r3, [r7, #16]
 80017e2:	3380      	adds	r3, #128	; 0x80
 80017e4:	60fb      	str	r3, [r7, #12]
 80017e6:	6a3a      	ldr	r2, [r7, #32]
 80017e8:	68fb      	ldr	r3, [r7, #12]
 80017ea:	429a      	cmp	r2, r3
 80017ec:	d01b      	beq.n	8001826 <_ZN14GenericChannel4execEv+0xa8>
 80017ee:	6a3b      	ldr	r3, [r7, #32]
 80017f0:	681b      	ldr	r3, [r3, #0]
 80017f2:	60bb      	str	r3, [r7, #8]
	{
		if (channel == nullptr)
 80017f4:	68bb      	ldr	r3, [r7, #8]
 80017f6:	2b00      	cmp	r3, #0
 80017f8:	d010      	beq.n	800181c <_ZN14GenericChannel4execEv+0x9e>
			continue;
		if (channel->exec() != 0)
 80017fa:	68bb      	ldr	r3, [r7, #8]
 80017fc:	681b      	ldr	r3, [r3, #0]
 80017fe:	3310      	adds	r3, #16
 8001800:	681b      	ldr	r3, [r3, #0]
 8001802:	68b8      	ldr	r0, [r7, #8]
 8001804:	4798      	blx	r3
 8001806:	4603      	mov	r3, r0
 8001808:	2b00      	cmp	r3, #0
 800180a:	bf14      	ite	ne
 800180c:	2301      	movne	r3, #1
 800180e:	2300      	moveq	r3, #0
 8001810:	b2db      	uxtb	r3, r3
 8001812:	2b00      	cmp	r3, #0
 8001814:	d003      	beq.n	800181e <_ZN14GenericChannel4execEv+0xa0>
			return -1;
 8001816:	f04f 33ff 	mov.w	r3, #4294967295	; 0xffffffff
 800181a:	e005      	b.n	8001828 <_ZN14GenericChannel4execEv+0xaa>
			continue;
 800181c:	bf00      	nop
	for (AbstractChannel *channel : channels)
 800181e:	6a3b      	ldr	r3, [r7, #32]
 8001820:	3304      	adds	r3, #4
 8001822:	623b      	str	r3, [r7, #32]
 8001824:	e7df      	b.n	80017e6 <_ZN14GenericChannel4execEv+0x68>
	}
	return 0;
 8001826:	2300      	movs	r3, #0
}
 8001828:	4618      	mov	r0, r3
 800182a:	3728      	adds	r7, #40	; 0x28
 800182c:	46bd      	mov	sp, r7
 800182e:	bd80      	pop	{r7, pc}

08001830 <_ZN14GenericChannel5resetEv>:

int GenericChannel::reset()
{
 8001830:	b580      	push	{r7, lr}
 8001832:	b082      	sub	sp, #8
 8001834:	af00      	add	r7, sp, #0
 8001836:	6078      	str	r0, [r7, #4]
	(void) flash.reset();
 8001838:	687b      	ldr	r3, [r7, #4]
 800183a:	f8d3 20b4 	ldr.w	r2, [r3, #180]	; 0xb4
 800183e:	687b      	ldr	r3, [r7, #4]
 8001840:	f8d3 30b4 	ldr.w	r3, [r3, #180]	; 0xb4
 8001844:	681b      	ldr	r3, [r3, #0]
 8001846:	3304      	adds	r3, #4
 8001848:	681b      	ldr	r3, [r3, #0]
 800184a:	4610      	mov	r0, r2
 800184c:	4798      	blx	r3
	return 0;
 800184e:	2300      	movs	r3, #0
}
 8001850:	4618      	mov	r0, r3
 8001852:	3708      	adds	r7, #8
 8001854:	46bd      	mov	sp, r7
 8001856:	bd80      	pop	{r7, pc}

08001858 <_ZN14GenericChannel14processMessageEhPhRh>:

int GenericChannel::processMessage(uint8_t commandId, uint8_t *returnData, uint8_t &n)
{
 8001858:	b580      	push	{r7, lr}
 800185a:	b088      	sub	sp, #32
 800185c:	af00      	add	r7, sp, #0
 800185e:	60f8      	str	r0, [r7, #12]
 8001860:	607a      	str	r2, [r7, #4]
 8001862:	603b      	str	r3, [r7, #0]
 8001864:	460b      	mov	r3, r1
 8001866:	72fb      	strb	r3, [r7, #11]
	switch (commandId)
 8001868:	7afb      	ldrb	r3, [r7, #11]
 800186a:	2b12      	cmp	r3, #18
 800186c:	d86d      	bhi.n	800194a <_ZN14GenericChannel14processMessageEhPhRh+0xf2>
 800186e:	a201      	add	r2, pc, #4	; (adr r2, 8001874 <_ZN14GenericChannel14processMessageEhPhRh+0x1c>)
 8001870:	f852 f023 	ldr.w	pc, [r2, r3, lsl #2]
 8001874:	080018e3 	.word	0x080018e3
 8001878:	0800194b 	.word	0x0800194b
 800187c:	0800194b 	.word	0x0800194b
 8001880:	0800194b 	.word	0x0800194b
 8001884:	0800194b 	.word	0x0800194b
 8001888:	0800194b 	.word	0x0800194b
 800188c:	0800194b 	.word	0x0800194b
 8001890:	0800194b 	.word	0x0800194b
 8001894:	0800194b 	.word	0x0800194b
 8001898:	0800194b 	.word	0x0800194b
 800189c:	080018cf 	.word	0x080018cf
 80018a0:	0800194b 	.word	0x0800194b
 80018a4:	080018c1 	.word	0x080018c1
 80018a8:	0800194b 	.word	0x0800194b
 80018ac:	0800194b 	.word	0x0800194b
 80018b0:	0800194b 	.word	0x0800194b
 80018b4:	0800194b 	.word	0x0800194b
 80018b8:	0800194b 	.word	0x0800194b
 80018bc:	0800192f 	.word	0x0800192f
	{
		case GENERIC_REQ_NODE_INFO:
			//LL_mDelay(100*this->nodeId);
			return this->getNodeInfo(returnData, n);
 80018c0:	683a      	ldr	r2, [r7, #0]
 80018c2:	6879      	ldr	r1, [r7, #4]
 80018c4:	68f8      	ldr	r0, [r7, #12]
 80018c6:	f000 f9c1 	bl	8001c4c <_ZN14GenericChannel11getNodeInfoEPhRh>
 80018ca:	4603      	mov	r3, r0
 80018cc:	e045      	b.n	800195a <_ZN14GenericChannel14processMessageEhPhRh+0x102>
		case GENERIC_REQ_DATA:
			return this->getSensorData(returnData, n);
 80018ce:	68fb      	ldr	r3, [r7, #12]
 80018d0:	681b      	ldr	r3, [r3, #0]
 80018d2:	3318      	adds	r3, #24
 80018d4:	681b      	ldr	r3, [r3, #0]
 80018d6:	683a      	ldr	r2, [r7, #0]
 80018d8:	6879      	ldr	r1, [r7, #4]
 80018da:	68f8      	ldr	r0, [r7, #12]
 80018dc:	4798      	blx	r3
 80018de:	4603      	mov	r3, r0
 80018e0:	e03b      	b.n	800195a <_ZN14GenericChannel14processMessageEhPhRh+0x102>
		case GENERIC_REQ_RESET_ALL_SETTINGS:
			(void) flash.configReset();
 80018e2:	68fb      	ldr	r3, [r7, #12]
 80018e4:	f8d3 30b4 	ldr.w	r3, [r3, #180]	; 0xb4
 80018e8:	4618      	mov	r0, r3
 80018ea:	f001 f87b 	bl	80029e4 <_ZN12W25Qxx_Flash11configResetEv>
			for (AbstractChannel *channel : channels)
 80018ee:	68fb      	ldr	r3, [r7, #12]
 80018f0:	3310      	adds	r3, #16
 80018f2:	61bb      	str	r3, [r7, #24]
 80018f4:	69bb      	ldr	r3, [r7, #24]
 80018f6:	61fb      	str	r3, [r7, #28]
 80018f8:	69bb      	ldr	r3, [r7, #24]
 80018fa:	3380      	adds	r3, #128	; 0x80
 80018fc:	617b      	str	r3, [r7, #20]
 80018fe:	69fa      	ldr	r2, [r7, #28]
 8001900:	697b      	ldr	r3, [r7, #20]
 8001902:	429a      	cmp	r2, r3
 8001904:	d011      	beq.n	800192a <_ZN14GenericChannel14processMessageEhPhRh+0xd2>
 8001906:	69fb      	ldr	r3, [r7, #28]
 8001908:	681b      	ldr	r3, [r3, #0]
 800190a:	613b      	str	r3, [r7, #16]
			{
				if (channel == nullptr)
 800190c:	693b      	ldr	r3, [r7, #16]
 800190e:	2b00      	cmp	r3, #0
 8001910:	d006      	beq.n	8001920 <_ZN14GenericChannel14processMessageEhPhRh+0xc8>
					continue;

				channel->reset(); // TODO implement good reset for every channel
 8001912:	693b      	ldr	r3, [r7, #16]
 8001914:	681b      	ldr	r3, [r3, #0]
 8001916:	330c      	adds	r3, #12
 8001918:	681b      	ldr	r3, [r3, #0]
 800191a:	6938      	ldr	r0, [r7, #16]
 800191c:	4798      	blx	r3
 800191e:	e000      	b.n	8001922 <_ZN14GenericChannel14processMessageEhPhRh+0xca>
					continue;
 8001920:	bf00      	nop
			for (AbstractChannel *channel : channels)
 8001922:	69fb      	ldr	r3, [r7, #28]
 8001924:	3304      	adds	r3, #4
 8001926:	61fb      	str	r3, [r7, #28]
 8001928:	e7e9      	b.n	80018fe <_ZN14GenericChannel14processMessageEhPhRh+0xa6>
			}
			return 0;
 800192a:	2300      	movs	r3, #0
 800192c:	e015      	b.n	800195a <_ZN14GenericChannel14processMessageEhPhRh+0x102>
		case GENERIC_REQ_FLASH_CLEAR:
			(void) flash.setState(FlashState::CLEARING);
 800192e:	68fb      	ldr	r3, [r7, #12]
 8001930:	f8d3 30b4 	ldr.w	r3, [r3, #180]	; 0xb4
 8001934:	2101      	movs	r1, #1
 8001936:	4618      	mov	r0, r3
 8001938:	f000 fdde 	bl	80024f8 <_ZN12W25Qxx_Flash8setStateE10FlashState>
			return this->getFlashClearInfo(returnData, n);
 800193c:	683a      	ldr	r2, [r7, #0]
 800193e:	6879      	ldr	r1, [r7, #4]
 8001940:	68f8      	ldr	r0, [r7, #12]
 8001942:	f000 f958 	bl	8001bf6 <_ZN14GenericChannel17getFlashClearInfoEPhRh>
 8001946:	4603      	mov	r3, r0
 8001948:	e007      	b.n	800195a <_ZN14GenericChannel14processMessageEhPhRh+0x102>
		default:
			return AbstractChannel::processMessage(commandId, returnData, n);
 800194a:	68f8      	ldr	r0, [r7, #12]
 800194c:	7af9      	ldrb	r1, [r7, #11]
 800194e:	683b      	ldr	r3, [r7, #0]
 8001950:	687a      	ldr	r2, [r7, #4]
 8001952:	f7ff fc81 	bl	8001258 <_ZN15AbstractChannel14processMessageEhPhRh>
 8001956:	4603      	mov	r3, r0
 8001958:	bf00      	nop
	}
}
 800195a:	4618      	mov	r0, r3
 800195c:	3720      	adds	r7, #32
 800195e:	46bd      	mov	sp, r7
 8001960:	bd80      	pop	{r7, pc}
 8001962:	bf00      	nop

08001964 <_ZN14GenericChannel14processMessageEhPhRhh>:

int GenericChannel::processMessage(uint8_t commandId, uint8_t *returnData, uint8_t &n, uint8_t channelId)
{
 8001964:	b590      	push	{r4, r7, lr}
 8001966:	b089      	sub	sp, #36	; 0x24
 8001968:	af00      	add	r7, sp, #0
 800196a:	60f8      	str	r0, [r7, #12]
 800196c:	607a      	str	r2, [r7, #4]
 800196e:	603b      	str	r3, [r7, #0]
 8001970:	460b      	mov	r3, r1
 8001972:	72fb      	strb	r3, [r7, #11]
	for (AbstractChannel *channel : channels)
 8001974:	68fb      	ldr	r3, [r7, #12]
 8001976:	3310      	adds	r3, #16
 8001978:	61bb      	str	r3, [r7, #24]
 800197a:	69bb      	ldr	r3, [r7, #24]
 800197c:	61fb      	str	r3, [r7, #28]
 800197e:	69bb      	ldr	r3, [r7, #24]
 8001980:	3380      	adds	r3, #128	; 0x80
 8001982:	617b      	str	r3, [r7, #20]
 8001984:	69fa      	ldr	r2, [r7, #28]
 8001986:	697b      	ldr	r3, [r7, #20]
 8001988:	429a      	cmp	r2, r3
 800198a:	d029      	beq.n	80019e0 <_ZN14GenericChannel14processMessageEhPhRhh+0x7c>
 800198c:	69fb      	ldr	r3, [r7, #28]
 800198e:	681b      	ldr	r3, [r3, #0]
 8001990:	613b      	str	r3, [r7, #16]
	{
		if (channel->IsChannelId(channelId))
 8001992:	f897 3030 	ldrb.w	r3, [r7, #48]	; 0x30
 8001996:	4619      	mov	r1, r3
 8001998:	6938      	ldr	r0, [r7, #16]
 800199a:	f7ff fc27 	bl	80011ec <_ZNK15AbstractChannel11IsChannelIdEh>
 800199e:	4603      	mov	r3, r0
 80019a0:	2b00      	cmp	r3, #0
 80019a2:	d019      	beq.n	80019d8 <_ZN14GenericChannel14processMessageEhPhRhh+0x74>
		{
			if (channel == nullptr)
 80019a4:	693b      	ldr	r3, [r7, #16]
 80019a6:	2b00      	cmp	r3, #0
 80019a8:	d015      	beq.n	80019d6 <_ZN14GenericChannel14processMessageEhPhRhh+0x72>
				continue;

			if (channel->processMessage(commandId, returnData, n) != 0)
 80019aa:	693b      	ldr	r3, [r7, #16]
 80019ac:	681b      	ldr	r3, [r3, #0]
 80019ae:	3314      	adds	r3, #20
 80019b0:	681c      	ldr	r4, [r3, #0]
 80019b2:	7af9      	ldrb	r1, [r7, #11]
 80019b4:	683b      	ldr	r3, [r7, #0]
 80019b6:	687a      	ldr	r2, [r7, #4]
 80019b8:	6938      	ldr	r0, [r7, #16]
 80019ba:	47a0      	blx	r4
 80019bc:	4603      	mov	r3, r0
 80019be:	2b00      	cmp	r3, #0
 80019c0:	bf14      	ite	ne
 80019c2:	2301      	movne	r3, #1
 80019c4:	2300      	moveq	r3, #0
 80019c6:	b2db      	uxtb	r3, r3
 80019c8:	2b00      	cmp	r3, #0
 80019ca:	d002      	beq.n	80019d2 <_ZN14GenericChannel14processMessageEhPhRhh+0x6e>
				return -1;
 80019cc:	f04f 33ff 	mov.w	r3, #4294967295	; 0xffffffff
 80019d0:	e008      	b.n	80019e4 <_ZN14GenericChannel14processMessageEhPhRhh+0x80>
			return 0;
 80019d2:	2300      	movs	r3, #0
 80019d4:	e006      	b.n	80019e4 <_ZN14GenericChannel14processMessageEhPhRhh+0x80>
				continue;
 80019d6:	bf00      	nop
	for (AbstractChannel *channel : channels)
 80019d8:	69fb      	ldr	r3, [r7, #28]
 80019da:	3304      	adds	r3, #4
 80019dc:	61fb      	str	r3, [r7, #28]
 80019de:	e7d1      	b.n	8001984 <_ZN14GenericChannel14processMessageEhPhRhh+0x20>
		}

	}
	return -1;
 80019e0:	f04f 33ff 	mov.w	r3, #4294967295	; 0xffffffff
}
 80019e4:	4618      	mov	r0, r3
 80019e6:	3724      	adds	r7, #36	; 0x24
 80019e8:	46bd      	mov	sp, r7
 80019ea:	bd90      	pop	{r4, r7, pc}

080019ec <_ZN14GenericChannel11setVariableEhl>:

int GenericChannel::setVariable(uint8_t variableId, int32_t data)
{
 80019ec:	b580      	push	{r7, lr}
 80019ee:	b084      	sub	sp, #16
 80019f0:	af00      	add	r7, sp, #0
 80019f2:	60f8      	str	r0, [r7, #12]
 80019f4:	460b      	mov	r3, r1
 80019f6:	607a      	str	r2, [r7, #4]
 80019f8:	72fb      	strb	r3, [r7, #11]
	switch (variableId)
 80019fa:	7afb      	ldrb	r3, [r7, #11]
 80019fc:	2b08      	cmp	r3, #8
 80019fe:	d029      	beq.n	8001a54 <_ZN14GenericChannel11setVariableEhl+0x68>
 8001a00:	2b08      	cmp	r3, #8
 8001a02:	dc33      	bgt.n	8001a6c <_ZN14GenericChannel11setVariableEhl+0x80>
 8001a04:	2b05      	cmp	r3, #5
 8001a06:	d002      	beq.n	8001a0e <_ZN14GenericChannel11setVariableEhl+0x22>
 8001a08:	2b07      	cmp	r3, #7
 8001a0a:	d008      	beq.n	8001a1e <_ZN14GenericChannel11setVariableEhl+0x32>
 8001a0c:	e02e      	b.n	8001a6c <_ZN14GenericChannel11setVariableEhl+0x80>
	{
		case GENERIC_REFRESH_DIVIDER:
			refreshDivider = data;
 8001a0e:	687a      	ldr	r2, [r7, #4]
 8001a10:	68fb      	ldr	r3, [r7, #12]
 8001a12:	605a      	str	r2, [r3, #4]
			refreshCounter = 0;
 8001a14:	68fb      	ldr	r3, [r7, #12]
 8001a16:	2200      	movs	r2, #0
 8001a18:	609a      	str	r2, [r3, #8]
			return 0;
 8001a1a:	2300      	movs	r3, #0
 8001a1c:	e028      	b.n	8001a70 <_ZN14GenericChannel11setVariableEhl+0x84>
		case GENERIC_LOGGING_ENABLED:
			loggingEnabled = data;
 8001a1e:	687b      	ldr	r3, [r7, #4]
 8001a20:	b2da      	uxtb	r2, r3
 8001a22:	68fb      	ldr	r3, [r7, #12]
 8001a24:	f883 20c4 	strb.w	r2, [r3, #196]	; 0xc4
			if (loggingEnabled == 0)
 8001a28:	68fb      	ldr	r3, [r7, #12]
 8001a2a:	f893 30c4 	ldrb.w	r3, [r3, #196]	; 0xc4
 8001a2e:	2b00      	cmp	r3, #0
 8001a30:	d107      	bne.n	8001a42 <_ZN14GenericChannel11setVariableEhl+0x56>
			{
				flash.setState(FlashState::IDLE);
 8001a32:	68fb      	ldr	r3, [r7, #12]
 8001a34:	f8d3 30b4 	ldr.w	r3, [r3, #180]	; 0xb4
 8001a38:	2100      	movs	r1, #0
 8001a3a:	4618      	mov	r0, r3
 8001a3c:	f000 fd5c 	bl	80024f8 <_ZN12W25Qxx_Flash8setStateE10FlashState>
 8001a40:	e006      	b.n	8001a50 <_ZN14GenericChannel11setVariableEhl+0x64>
			}
			else
			{
				flash.setState(FlashState::LOGGING);
 8001a42:	68fb      	ldr	r3, [r7, #12]
 8001a44:	f8d3 30b4 	ldr.w	r3, [r3, #180]	; 0xb4
 8001a48:	2103      	movs	r1, #3
 8001a4a:	4618      	mov	r0, r3
 8001a4c:	f000 fd54 	bl	80024f8 <_ZN12W25Qxx_Flash8setStateE10FlashState>
			}
			return 0;
 8001a50:	2300      	movs	r3, #0
 8001a52:	e00d      	b.n	8001a70 <_ZN14GenericChannel11setVariableEhl+0x84>
		case GENERIC_LORA_ENABLED:
			if (data == 0)
 8001a54:	687b      	ldr	r3, [r7, #4]
 8001a56:	2b00      	cmp	r3, #0
 8001a58:	d103      	bne.n	8001a62 <_ZN14GenericChannel11setVariableEhl+0x76>
			{
				setLoraActive(false);
 8001a5a:	2000      	movs	r0, #0
 8001a5c:	f000 f992 	bl	8001d84 <_ZN14GenericChannel13setLoraActiveEb>
 8001a60:	e002      	b.n	8001a68 <_ZN14GenericChannel11setVariableEhl+0x7c>
			}
			else
			{
				setLoraActive(true);
 8001a62:	2001      	movs	r0, #1
 8001a64:	f000 f98e 	bl	8001d84 <_ZN14GenericChannel13setLoraActiveEb>
			}
			return 0;
 8001a68:	2300      	movs	r3, #0
 8001a6a:	e001      	b.n	8001a70 <_ZN14GenericChannel11setVariableEhl+0x84>
		default:
			return -1;
 8001a6c:	f04f 33ff 	mov.w	r3, #4294967295	; 0xffffffff
	}
}
 8001a70:	4618      	mov	r0, r3
 8001a72:	3710      	adds	r7, #16
 8001a74:	46bd      	mov	sp, r7
 8001a76:	bd80      	pop	{r7, pc}

08001a78 <_ZNK14GenericChannel11getVariableEhRl>:

int GenericChannel::getVariable(uint8_t variableId, int32_t &data) const
{
 8001a78:	b480      	push	{r7}
 8001a7a:	b085      	sub	sp, #20
 8001a7c:	af00      	add	r7, sp, #0
 8001a7e:	60f8      	str	r0, [r7, #12]
 8001a80:	460b      	mov	r3, r1
 8001a82:	607a      	str	r2, [r7, #4]
 8001a84:	72fb      	strb	r3, [r7, #11]
	switch (variableId)
 8001a86:	7afb      	ldrb	r3, [r7, #11]
 8001a88:	2b08      	cmp	r3, #8
 8001a8a:	d015      	beq.n	8001ab8 <_ZNK14GenericChannel11getVariableEhRl+0x40>
 8001a8c:	2b08      	cmp	r3, #8
 8001a8e:	dc20      	bgt.n	8001ad2 <_ZNK14GenericChannel11getVariableEhRl+0x5a>
 8001a90:	2b05      	cmp	r3, #5
 8001a92:	d002      	beq.n	8001a9a <_ZNK14GenericChannel11getVariableEhRl+0x22>
 8001a94:	2b07      	cmp	r3, #7
 8001a96:	d007      	beq.n	8001aa8 <_ZNK14GenericChannel11getVariableEhRl+0x30>
 8001a98:	e01b      	b.n	8001ad2 <_ZNK14GenericChannel11getVariableEhRl+0x5a>
	{
		case GENERIC_REFRESH_DIVIDER:
			data = (int32_t) refreshDivider;
 8001a9a:	68fb      	ldr	r3, [r7, #12]
 8001a9c:	685b      	ldr	r3, [r3, #4]
 8001a9e:	461a      	mov	r2, r3
 8001aa0:	687b      	ldr	r3, [r7, #4]
 8001aa2:	601a      	str	r2, [r3, #0]
			return 0;
 8001aa4:	2300      	movs	r3, #0
 8001aa6:	e016      	b.n	8001ad6 <_ZNK14GenericChannel11getVariableEhRl+0x5e>
		case GENERIC_LOGGING_ENABLED:
			data = (int32_t) loggingEnabled;
 8001aa8:	68fb      	ldr	r3, [r7, #12]
 8001aaa:	f893 30c4 	ldrb.w	r3, [r3, #196]	; 0xc4
 8001aae:	461a      	mov	r2, r3
 8001ab0:	687b      	ldr	r3, [r7, #4]
 8001ab2:	601a      	str	r2, [r3, #0]
			return 0;
 8001ab4:	2300      	movs	r3, #0
 8001ab6:	e00e      	b.n	8001ad6 <_ZNK14GenericChannel11getVariableEhRl+0x5e>
		case GENERIC_LORA_ENABLED:
			if (loraActive)
 8001ab8:	4b0a      	ldr	r3, [pc, #40]	; (8001ae4 <_ZNK14GenericChannel11getVariableEhRl+0x6c>)
 8001aba:	781b      	ldrb	r3, [r3, #0]
 8001abc:	2b00      	cmp	r3, #0
 8001abe:	d003      	beq.n	8001ac8 <_ZNK14GenericChannel11getVariableEhRl+0x50>
				data = 1;
 8001ac0:	687b      	ldr	r3, [r7, #4]
 8001ac2:	2201      	movs	r2, #1
 8001ac4:	601a      	str	r2, [r3, #0]
 8001ac6:	e002      	b.n	8001ace <_ZNK14GenericChannel11getVariableEhRl+0x56>
			else
				data = 0;
 8001ac8:	687b      	ldr	r3, [r7, #4]
 8001aca:	2200      	movs	r2, #0
 8001acc:	601a      	str	r2, [r3, #0]
			return 0;
 8001ace:	2300      	movs	r3, #0
 8001ad0:	e001      	b.n	8001ad6 <_ZNK14GenericChannel11getVariableEhRl+0x5e>
		default:
			return -1;
 8001ad2:	f04f 33ff 	mov.w	r3, #4294967295	; 0xffffffff
	}
}
 8001ad6:	4618      	mov	r0, r3
 8001ad8:	3714      	adds	r7, #20
 8001ada:	46bd      	mov	sp, r7
 8001adc:	f85d 7b04 	ldr.w	r7, [sp], #4
 8001ae0:	4770      	bx	lr
 8001ae2:	bf00      	nop
 8001ae4:	2000081c 	.word	0x2000081c

08001ae8 <_ZN14GenericChannel13getSensorDataEPhRh>:
	n = sizeof(FlashStatusMsg_t);
	return 0;
}

int GenericChannel::getSensorData(uint8_t *data, uint8_t &n)
{
 8001ae8:	b580      	push	{r7, lr}
 8001aea:	b08a      	sub	sp, #40	; 0x28
 8001aec:	af00      	add	r7, sp, #0
 8001aee:	60f8      	str	r0, [r7, #12]
 8001af0:	60b9      	str	r1, [r7, #8]
 8001af2:	607a      	str	r2, [r7, #4]
	if (!IsRefreshed())
 8001af4:	68fb      	ldr	r3, [r7, #12]
 8001af6:	4618      	mov	r0, r3
 8001af8:	f7ff fb8c 	bl	8001214 <_ZN15AbstractChannel11IsRefreshedEv>
 8001afc:	4603      	mov	r3, r0
 8001afe:	f083 0301 	eor.w	r3, r3, #1
 8001b02:	b2db      	uxtb	r3, r3
 8001b04:	2b00      	cmp	r3, #0
 8001b06:	d002      	beq.n	8001b0e <_ZN14GenericChannel13getSensorDataEPhRh+0x26>
		return -1;
 8001b08:	f04f 33ff 	mov.w	r3, #4294967295	; 0xffffffff
 8001b0c:	e06f      	b.n	8001bee <_ZN14GenericChannel13getSensorDataEPhRh+0x106>

	DataMsg_t *dataMsg = (DataMsg_t*) data;
 8001b0e:	68bb      	ldr	r3, [r7, #8]
 8001b10:	623b      	str	r3, [r7, #32]
	dataMsg->channel_mask = 0;
 8001b12:	6a3b      	ldr	r3, [r7, #32]
 8001b14:	2200      	movs	r2, #0
 8001b16:	701a      	strb	r2, [r3, #0]
 8001b18:	2200      	movs	r2, #0
 8001b1a:	705a      	strb	r2, [r3, #1]
 8001b1c:	2200      	movs	r2, #0
 8001b1e:	709a      	strb	r2, [r3, #2]
 8001b20:	2200      	movs	r2, #0
 8001b22:	70da      	strb	r2, [r3, #3]
	for (AbstractChannel *channel : channels)
 8001b24:	68fb      	ldr	r3, [r7, #12]
 8001b26:	3310      	adds	r3, #16
 8001b28:	61fb      	str	r3, [r7, #28]
 8001b2a:	69fb      	ldr	r3, [r7, #28]
 8001b2c:	627b      	str	r3, [r7, #36]	; 0x24
 8001b2e:	69fb      	ldr	r3, [r7, #28]
 8001b30:	3380      	adds	r3, #128	; 0x80
 8001b32:	61bb      	str	r3, [r7, #24]
 8001b34:	6a7a      	ldr	r2, [r7, #36]	; 0x24
 8001b36:	69bb      	ldr	r3, [r7, #24]
 8001b38:	429a      	cmp	r2, r3
 8001b3a:	d03a      	beq.n	8001bb2 <_ZN14GenericChannel13getSensorDataEPhRh+0xca>
 8001b3c:	6a7b      	ldr	r3, [r7, #36]	; 0x24
 8001b3e:	681b      	ldr	r3, [r3, #0]
 8001b40:	617b      	str	r3, [r7, #20]
	{
		if (channel == nullptr || !channel->IsRefreshed())
 8001b42:	697b      	ldr	r3, [r7, #20]
 8001b44:	2b00      	cmp	r3, #0
 8001b46:	d008      	beq.n	8001b5a <_ZN14GenericChannel13getSensorDataEPhRh+0x72>
 8001b48:	6978      	ldr	r0, [r7, #20]
 8001b4a:	f7ff fb63 	bl	8001214 <_ZN15AbstractChannel11IsRefreshedEv>
 8001b4e:	4603      	mov	r3, r0
 8001b50:	f083 0301 	eor.w	r3, r3, #1
 8001b54:	b2db      	uxtb	r3, r3
 8001b56:	2b00      	cmp	r3, #0
 8001b58:	d001      	beq.n	8001b5e <_ZN14GenericChannel13getSensorDataEPhRh+0x76>
 8001b5a:	2301      	movs	r3, #1
 8001b5c:	e000      	b.n	8001b60 <_ZN14GenericChannel13getSensorDataEPhRh+0x78>
 8001b5e:	2300      	movs	r3, #0
 8001b60:	2b00      	cmp	r3, #0
 8001b62:	d11f      	bne.n	8001ba4 <_ZN14GenericChannel13getSensorDataEPhRh+0xbc>
			continue;
		if (channel->getSensorData(&dataMsg->uint8[0], n) == -1)
 8001b64:	697b      	ldr	r3, [r7, #20]
 8001b66:	681b      	ldr	r3, [r3, #0]
 8001b68:	3318      	adds	r3, #24
 8001b6a:	681b      	ldr	r3, [r3, #0]
 8001b6c:	6a3a      	ldr	r2, [r7, #32]
 8001b6e:	1d11      	adds	r1, r2, #4
 8001b70:	687a      	ldr	r2, [r7, #4]
 8001b72:	6978      	ldr	r0, [r7, #20]
 8001b74:	4798      	blx	r3
 8001b76:	4603      	mov	r3, r0
 8001b78:	f1b3 3fff 	cmp.w	r3, #4294967295	; 0xffffffff
 8001b7c:	bf0c      	ite	eq
 8001b7e:	2301      	moveq	r3, #1
 8001b80:	2300      	movne	r3, #0
 8001b82:	b2db      	uxtb	r3, r3
 8001b84:	2b00      	cmp	r3, #0
 8001b86:	d10f      	bne.n	8001ba8 <_ZN14GenericChannel13getSensorDataEPhRh+0xc0>
			continue;
		dataMsg->channel_mask |= 1 << channel->getChannelId();
 8001b88:	6978      	ldr	r0, [r7, #20]
 8001b8a:	f7ff fb23 	bl	80011d4 <_ZNK15AbstractChannel12getChannelIdEv>
 8001b8e:	4603      	mov	r3, r0
 8001b90:	461a      	mov	r2, r3
 8001b92:	2301      	movs	r3, #1
 8001b94:	fa03 f202 	lsl.w	r2, r3, r2
 8001b98:	6a3b      	ldr	r3, [r7, #32]
 8001b9a:	681b      	ldr	r3, [r3, #0]
 8001b9c:	431a      	orrs	r2, r3
 8001b9e:	6a3b      	ldr	r3, [r7, #32]
 8001ba0:	601a      	str	r2, [r3, #0]
 8001ba2:	e002      	b.n	8001baa <_ZN14GenericChannel13getSensorDataEPhRh+0xc2>
			continue;
 8001ba4:	bf00      	nop
 8001ba6:	e000      	b.n	8001baa <_ZN14GenericChannel13getSensorDataEPhRh+0xc2>
			continue;
 8001ba8:	bf00      	nop
	for (AbstractChannel *channel : channels)
 8001baa:	6a7b      	ldr	r3, [r7, #36]	; 0x24
 8001bac:	3304      	adds	r3, #4
 8001bae:	627b      	str	r3, [r7, #36]	; 0x24
 8001bb0:	e7c0      	b.n	8001b34 <_ZN14GenericChannel13getSensorDataEPhRh+0x4c>
	}
	n += 1 * sizeof(uint32_t);
 8001bb2:	687b      	ldr	r3, [r7, #4]
 8001bb4:	781b      	ldrb	r3, [r3, #0]
 8001bb6:	3304      	adds	r3, #4
 8001bb8:	b2da      	uxtb	r2, r3
 8001bba:	687b      	ldr	r3, [r7, #4]
 8001bbc:	701a      	strb	r2, [r3, #0]

	if (loggingEnabled && !flash.lock)
 8001bbe:	68fb      	ldr	r3, [r7, #12]
 8001bc0:	f893 30c4 	ldrb.w	r3, [r3, #196]	; 0xc4
 8001bc4:	2b00      	cmp	r3, #0
 8001bc6:	d011      	beq.n	8001bec <_ZN14GenericChannel13getSensorDataEPhRh+0x104>
 8001bc8:	68fb      	ldr	r3, [r7, #12]
 8001bca:	f8d3 30b4 	ldr.w	r3, [r3, #180]	; 0xb4
 8001bce:	791b      	ldrb	r3, [r3, #4]
 8001bd0:	f083 0301 	eor.w	r3, r3, #1
 8001bd4:	b2db      	uxtb	r3, r3
 8001bd6:	2b00      	cmp	r3, #0
 8001bd8:	d008      	beq.n	8001bec <_ZN14GenericChannel13getSensorDataEPhRh+0x104>
		flash.addLog(data, n);
 8001bda:	68fb      	ldr	r3, [r7, #12]
 8001bdc:	f8d3 00b4 	ldr.w	r0, [r3, #180]	; 0xb4
 8001be0:	687b      	ldr	r3, [r7, #4]
 8001be2:	781b      	ldrb	r3, [r3, #0]
 8001be4:	461a      	mov	r2, r3
 8001be6:	68b9      	ldr	r1, [r7, #8]
 8001be8:	f000 fd19 	bl	800261e <_ZN12W25Qxx_Flash6addLogEPhh>
	return 0;
 8001bec:	2300      	movs	r3, #0
}
 8001bee:	4618      	mov	r0, r3
 8001bf0:	3728      	adds	r7, #40	; 0x28
 8001bf2:	46bd      	mov	sp, r7
 8001bf4:	bd80      	pop	{r7, pc}

08001bf6 <_ZN14GenericChannel17getFlashClearInfoEPhRh>:

int GenericChannel::getFlashClearInfo(uint8_t *data, uint8_t &n)
{
 8001bf6:	b580      	push	{r7, lr}
 8001bf8:	b086      	sub	sp, #24
 8001bfa:	af00      	add	r7, sp, #0
 8001bfc:	60f8      	str	r0, [r7, #12]
 8001bfe:	60b9      	str	r1, [r7, #8]
 8001c00:	607a      	str	r2, [r7, #4]

	FlashStatusMsg_t *info = (FlashStatusMsg_t*) data;
 8001c02:	68bb      	ldr	r3, [r7, #8]
 8001c04:	617b      	str	r3, [r7, #20]

	FlashState flashState = flash.getState();
 8001c06:	68fb      	ldr	r3, [r7, #12]
 8001c08:	f8d3 30b4 	ldr.w	r3, [r3, #180]	; 0xb4
 8001c0c:	4618      	mov	r0, r3
 8001c0e:	f000 fc82 	bl	8002516 <_ZN12W25Qxx_Flash8getStateEv>
 8001c12:	6138      	str	r0, [r7, #16]
	if (flashState == FlashState::IDLE || flashState == FlashState::CLEARING)
 8001c14:	693b      	ldr	r3, [r7, #16]
 8001c16:	2b00      	cmp	r3, #0
 8001c18:	d002      	beq.n	8001c20 <_ZN14GenericChannel17getFlashClearInfoEPhRh+0x2a>
 8001c1a:	693b      	ldr	r3, [r7, #16]
 8001c1c:	2b01      	cmp	r3, #1
 8001c1e:	d103      	bne.n	8001c28 <_ZN14GenericChannel17getFlashClearInfoEPhRh+0x32>
	{ //TODO actually check if clearing has initiated
		info->status = INITIATED;
 8001c20:	697b      	ldr	r3, [r7, #20]
 8001c22:	2200      	movs	r2, #0
 8001c24:	701a      	strb	r2, [r3, #0]
 8001c26:	e009      	b.n	8001c3c <_ZN14GenericChannel17getFlashClearInfoEPhRh+0x46>
	}
	else if (flashState == FlashState::READY)
 8001c28:	693b      	ldr	r3, [r7, #16]
 8001c2a:	2b02      	cmp	r3, #2
 8001c2c:	d103      	bne.n	8001c36 <_ZN14GenericChannel17getFlashClearInfoEPhRh+0x40>
	{
		info->status = COMPLETED;
 8001c2e:	697b      	ldr	r3, [r7, #20]
 8001c30:	2201      	movs	r2, #1
 8001c32:	701a      	strb	r2, [r3, #0]
 8001c34:	e002      	b.n	8001c3c <_ZN14GenericChannel17getFlashClearInfoEPhRh+0x46>
	}
	else
	{
		info->status = INITIATED;
 8001c36:	697b      	ldr	r3, [r7, #20]
 8001c38:	2200      	movs	r2, #0
 8001c3a:	701a      	strb	r2, [r3, #0]
	}

	n = sizeof(FlashStatusMsg_t);
 8001c3c:	687b      	ldr	r3, [r7, #4]
 8001c3e:	2201      	movs	r2, #1
 8001c40:	701a      	strb	r2, [r3, #0]
	return 0;
 8001c42:	2300      	movs	r3, #0
}
 8001c44:	4618      	mov	r0, r3
 8001c46:	3718      	adds	r7, #24
 8001c48:	46bd      	mov	sp, r7
 8001c4a:	bd80      	pop	{r7, pc}

08001c4c <_ZN14GenericChannel11getNodeInfoEPhRh>:

int GenericChannel::getNodeInfo(uint8_t *data, uint8_t &n)
{
 8001c4c:	b590      	push	{r4, r7, lr}
 8001c4e:	b08d      	sub	sp, #52	; 0x34
 8001c50:	af00      	add	r7, sp, #0
 8001c52:	60f8      	str	r0, [r7, #12]
 8001c54:	60b9      	str	r1, [r7, #8]
 8001c56:	607a      	str	r2, [r7, #4]
	NodeInfoMsg_t *info = (NodeInfoMsg_t*) data;
 8001c58:	68bb      	ldr	r3, [r7, #8]
 8001c5a:	623b      	str	r3, [r7, #32]

	info->firmware_version = firmwareVersion;
 8001c5c:	68fb      	ldr	r3, [r7, #12]
 8001c5e:	f8d3 20bc 	ldr.w	r2, [r3, #188]	; 0xbc
 8001c62:	6a3b      	ldr	r3, [r7, #32]
 8001c64:	601a      	str	r2, [r3, #0]

	info->channel_mask = 0x00000000;
 8001c66:	6a3b      	ldr	r3, [r7, #32]
 8001c68:	2200      	movs	r2, #0
 8001c6a:	711a      	strb	r2, [r3, #4]
 8001c6c:	2200      	movs	r2, #0
 8001c6e:	715a      	strb	r2, [r3, #5]
 8001c70:	2200      	movs	r2, #0
 8001c72:	719a      	strb	r2, [r3, #6]
 8001c74:	2200      	movs	r2, #0
 8001c76:	71da      	strb	r2, [r3, #7]
	uint32_t length = 0;
 8001c78:	2300      	movs	r3, #0
 8001c7a:	62fb      	str	r3, [r7, #44]	; 0x2c
	uint8_t i = 0;
 8001c7c:	2300      	movs	r3, #0
 8001c7e:	f887 302b 	strb.w	r3, [r7, #43]	; 0x2b
	for (AbstractChannel *channel : channels)
 8001c82:	68fb      	ldr	r3, [r7, #12]
 8001c84:	3310      	adds	r3, #16
 8001c86:	61fb      	str	r3, [r7, #28]
 8001c88:	69fb      	ldr	r3, [r7, #28]
 8001c8a:	627b      	str	r3, [r7, #36]	; 0x24
 8001c8c:	69fb      	ldr	r3, [r7, #28]
 8001c8e:	3380      	adds	r3, #128	; 0x80
 8001c90:	61bb      	str	r3, [r7, #24]
 8001c92:	6a7a      	ldr	r2, [r7, #36]	; 0x24
 8001c94:	69bb      	ldr	r3, [r7, #24]
 8001c96:	429a      	cmp	r2, r3
 8001c98:	d02a      	beq.n	8001cf0 <_ZN14GenericChannel11getNodeInfoEPhRh+0xa4>
 8001c9a:	6a7b      	ldr	r3, [r7, #36]	; 0x24
 8001c9c:	681b      	ldr	r3, [r3, #0]
 8001c9e:	617b      	str	r3, [r7, #20]
	{
		if (channel == nullptr)
 8001ca0:	697b      	ldr	r3, [r7, #20]
 8001ca2:	2b00      	cmp	r3, #0
 8001ca4:	d01f      	beq.n	8001ce6 <_ZN14GenericChannel11getNodeInfoEPhRh+0x9a>
			continue;

		info->channel_type[i] = channel->getChannelType();
 8001ca6:	f897 402b 	ldrb.w	r4, [r7, #43]	; 0x2b
 8001caa:	6978      	ldr	r0, [r7, #20]
 8001cac:	f7ff fa7a 	bl	80011a4 <_ZNK15AbstractChannel14getChannelTypeEv>
 8001cb0:	4603      	mov	r3, r0
 8001cb2:	461a      	mov	r2, r3
 8001cb4:	6a3b      	ldr	r3, [r7, #32]
 8001cb6:	4423      	add	r3, r4
 8001cb8:	721a      	strb	r2, [r3, #8]
		info->channel_mask |= 1 << channel->getChannelId();
 8001cba:	6978      	ldr	r0, [r7, #20]
 8001cbc:	f7ff fa8a 	bl	80011d4 <_ZNK15AbstractChannel12getChannelIdEv>
 8001cc0:	4603      	mov	r3, r0
 8001cc2:	461a      	mov	r2, r3
 8001cc4:	2301      	movs	r3, #1
 8001cc6:	fa03 f202 	lsl.w	r2, r3, r2
 8001cca:	6a3b      	ldr	r3, [r7, #32]
 8001ccc:	685b      	ldr	r3, [r3, #4]
 8001cce:	431a      	orrs	r2, r3
 8001cd0:	6a3b      	ldr	r3, [r7, #32]
 8001cd2:	605a      	str	r2, [r3, #4]
		length++;
 8001cd4:	6afb      	ldr	r3, [r7, #44]	; 0x2c
 8001cd6:	3301      	adds	r3, #1
 8001cd8:	62fb      	str	r3, [r7, #44]	; 0x2c
		i++;
 8001cda:	f897 302b 	ldrb.w	r3, [r7, #43]	; 0x2b
 8001cde:	3301      	adds	r3, #1
 8001ce0:	f887 302b 	strb.w	r3, [r7, #43]	; 0x2b
 8001ce4:	e000      	b.n	8001ce8 <_ZN14GenericChannel11getNodeInfoEPhRh+0x9c>
			continue;
 8001ce6:	bf00      	nop
	for (AbstractChannel *channel : channels)
 8001ce8:	6a7b      	ldr	r3, [r7, #36]	; 0x24
 8001cea:	3304      	adds	r3, #4
 8001cec:	627b      	str	r3, [r7, #36]	; 0x24
 8001cee:	e7d0      	b.n	8001c92 <_ZN14GenericChannel11getNodeInfoEPhRh+0x46>
	}
	n = length + 2 * sizeof(uint32_t);
 8001cf0:	6afb      	ldr	r3, [r7, #44]	; 0x2c
 8001cf2:	b2db      	uxtb	r3, r3
 8001cf4:	3308      	adds	r3, #8
 8001cf6:	b2da      	uxtb	r2, r3
 8001cf8:	687b      	ldr	r3, [r7, #4]
 8001cfa:	701a      	strb	r2, [r3, #0]
	return 0;
 8001cfc:	2300      	movs	r3, #0
}
 8001cfe:	4618      	mov	r0, r3
 8001d00:	3734      	adds	r7, #52	; 0x34
 8001d02:	46bd      	mov	sp, r7
 8001d04:	bd90      	pop	{r4, r7, pc}

08001d06 <_ZN14GenericChannel15registerChannelEP15AbstractChannel>:

void GenericChannel::registerChannel(AbstractChannel *channel)
{
 8001d06:	b580      	push	{r7, lr}
 8001d08:	b082      	sub	sp, #8
 8001d0a:	af00      	add	r7, sp, #0
 8001d0c:	6078      	str	r0, [r7, #4]
 8001d0e:	6039      	str	r1, [r7, #0]
	if (channel->getChannelId() < MAX_CHANNELS)
 8001d10:	6838      	ldr	r0, [r7, #0]
 8001d12:	f7ff fa5f 	bl	80011d4 <_ZNK15AbstractChannel12getChannelIdEv>
 8001d16:	4603      	mov	r3, r0
 8001d18:	2b1f      	cmp	r3, #31
 8001d1a:	bf94      	ite	ls
 8001d1c:	2301      	movls	r3, #1
 8001d1e:	2300      	movhi	r3, #0
 8001d20:	b2db      	uxtb	r3, r3
 8001d22:	2b00      	cmp	r3, #0
 8001d24:	d009      	beq.n	8001d3a <_ZN14GenericChannel15registerChannelEP15AbstractChannel+0x34>
		channels[channel->getChannelId()] = channel;
 8001d26:	6838      	ldr	r0, [r7, #0]
 8001d28:	f7ff fa54 	bl	80011d4 <_ZNK15AbstractChannel12getChannelIdEv>
 8001d2c:	4603      	mov	r3, r0
 8001d2e:	461a      	mov	r2, r3
 8001d30:	687b      	ldr	r3, [r7, #4]
 8001d32:	3204      	adds	r2, #4
 8001d34:	6839      	ldr	r1, [r7, #0]
 8001d36:	f843 1022 	str.w	r1, [r3, r2, lsl #2]
}
 8001d3a:	bf00      	nop
 8001d3c:	3708      	adds	r7, #8
 8001d3e:	46bd      	mov	sp, r7
 8001d40:	bd80      	pop	{r7, pc}

08001d42 <_ZN14GenericChannel14registerModuleEP14AbstractModule>:
		registerChannel(channels[i]);
	}
}

void GenericChannel::registerModule(AbstractModule *module)
{
 8001d42:	b480      	push	{r7}
 8001d44:	b083      	sub	sp, #12
 8001d46:	af00      	add	r7, sp, #0
 8001d48:	6078      	str	r0, [r7, #4]
 8001d4a:	6039      	str	r1, [r7, #0]
	if (moduleIndex < MAX_MODULES)
 8001d4c:	687b      	ldr	r3, [r7, #4]
 8001d4e:	f893 30c5 	ldrb.w	r3, [r3, #197]	; 0xc5
 8001d52:	2b07      	cmp	r3, #7
 8001d54:	d810      	bhi.n	8001d78 <_ZN14GenericChannel14registerModuleEP14AbstractModule+0x36>
	{
		modules[moduleIndex] = module;
 8001d56:	687b      	ldr	r3, [r7, #4]
 8001d58:	f893 30c5 	ldrb.w	r3, [r3, #197]	; 0xc5
 8001d5c:	461a      	mov	r2, r3
 8001d5e:	687b      	ldr	r3, [r7, #4]
 8001d60:	3224      	adds	r2, #36	; 0x24
 8001d62:	6839      	ldr	r1, [r7, #0]
 8001d64:	f843 1022 	str.w	r1, [r3, r2, lsl #2]
		moduleIndex++;
 8001d68:	687b      	ldr	r3, [r7, #4]
 8001d6a:	f893 30c5 	ldrb.w	r3, [r3, #197]	; 0xc5
 8001d6e:	3301      	adds	r3, #1
 8001d70:	b2da      	uxtb	r2, r3
 8001d72:	687b      	ldr	r3, [r7, #4]
 8001d74:	f883 20c5 	strb.w	r2, [r3, #197]	; 0xc5
	}
}
 8001d78:	bf00      	nop
 8001d7a:	370c      	adds	r7, #12
 8001d7c:	46bd      	mov	sp, r7
 8001d7e:	f85d 7b04 	ldr.w	r7, [sp], #4
 8001d82:	4770      	bx	lr

08001d84 <_ZN14GenericChannel13setLoraActiveEb>:
	{
		printLog();
	}
}

void GenericChannel::setLoraActive(bool enable) {
 8001d84:	b480      	push	{r7}
 8001d86:	b083      	sub	sp, #12
 8001d88:	af00      	add	r7, sp, #0
 8001d8a:	4603      	mov	r3, r0
 8001d8c:	71fb      	strb	r3, [r7, #7]
	loraActive = enable;
 8001d8e:	4a04      	ldr	r2, [pc, #16]	; (8001da0 <_ZN14GenericChannel13setLoraActiveEb+0x1c>)
 8001d90:	79fb      	ldrb	r3, [r7, #7]
 8001d92:	7013      	strb	r3, [r2, #0]
}
 8001d94:	bf00      	nop
 8001d96:	370c      	adds	r7, #12
 8001d98:	46bd      	mov	sp, r7
 8001d9a:	f85d 7b04 	ldr.w	r7, [sp], #4
 8001d9e:	4770      	bx	lr
 8001da0:	2000081c 	.word	0x2000081c

08001da4 <_ZN14GenericChannel8receptorEmPhm>:

	(void) STRHAL_CAN_Send(STRHAL_FDCAN1, msgId.uint32, msgData.uint8, CAN_MSG_LENGTH(ret_n));
}

void GenericChannel::receptor(uint32_t id, uint8_t *data, uint32_t n)
{
 8001da4:	b5f0      	push	{r4, r5, r6, r7, lr}
 8001da6:	b0ab      	sub	sp, #172	; 0xac
 8001da8:	af02      	add	r7, sp, #8
 8001daa:	60f8      	str	r0, [r7, #12]
 8001dac:	60b9      	str	r1, [r7, #8]
 8001dae:	607a      	str	r2, [r7, #4]
	Can_MessageId_t msgId =
 8001db0:	2300      	movs	r3, #0
 8001db2:	f8c7 3098 	str.w	r3, [r7, #152]	; 0x98
	{ 0 };
	Can_MessageData_t msgData =
 8001db6:	f107 0354 	add.w	r3, r7, #84	; 0x54
 8001dba:	2242      	movs	r2, #66	; 0x42
 8001dbc:	2100      	movs	r1, #0
 8001dbe:	4618      	mov	r0, r3
 8001dc0:	f006 ff54 	bl	8008c6c <memset>
	{ 0 };

	msgId.uint32 = id;
 8001dc4:	68fb      	ldr	r3, [r7, #12]
 8001dc6:	f8c7 3098 	str.w	r3, [r7, #152]	; 0x98
	memcpy(msgData.uint8, data, 64); //TODO only copy n bytes
 8001dca:	68bb      	ldr	r3, [r7, #8]
 8001dcc:	461c      	mov	r4, r3
 8001dce:	f107 0654 	add.w	r6, r7, #84	; 0x54
 8001dd2:	f104 0c40 	add.w	ip, r4, #64	; 0x40
 8001dd6:	4635      	mov	r5, r6
 8001dd8:	4623      	mov	r3, r4
 8001dda:	6818      	ldr	r0, [r3, #0]
 8001ddc:	6859      	ldr	r1, [r3, #4]
 8001dde:	689a      	ldr	r2, [r3, #8]
 8001de0:	68db      	ldr	r3, [r3, #12]
 8001de2:	c50f      	stmia	r5!, {r0, r1, r2, r3}
 8001de4:	3410      	adds	r4, #16
 8001de6:	3610      	adds	r6, #16
 8001de8:	4564      	cmp	r4, ip
 8001dea:	d1f4      	bne.n	8001dd6 <_ZN14GenericChannel8receptorEmPhm+0x32>
	uint8_t commandId = msgData.bit.cmd_id;
 8001dec:	f897 3055 	ldrb.w	r3, [r7, #85]	; 0x55
 8001df0:	f887 309f 	strb.w	r3, [r7, #159]	; 0x9f
	uint8_t channelId = msgData.bit.info.channel_id;
 8001df4:	f897 3054 	ldrb.w	r3, [r7, #84]	; 0x54
 8001df8:	f3c3 0305 	ubfx	r3, r3, #0, #6
 8001dfc:	b2db      	uxtb	r3, r3
 8001dfe:	f887 309e 	strb.w	r3, [r7, #158]	; 0x9e
	uint8_t ret_n = 0;
 8001e02:	2300      	movs	r3, #0
 8001e04:	f887 3053 	strb.w	r3, [r7, #83]	; 0x53

	if (channelId == GENERIC_CHANNEL_ID)
 8001e08:	f897 309e 	ldrb.w	r3, [r7, #158]	; 0x9e
 8001e0c:	2b3f      	cmp	r3, #63	; 0x3f
 8001e0e:	d118      	bne.n	8001e42 <_ZN14GenericChannel8receptorEmPhm+0x9e>
	{
		if (gcPtr->processMessage(commandId, msgData.bit.data.uint8, ret_n) != 0)
 8001e10:	4b4b      	ldr	r3, [pc, #300]	; (8001f40 <_ZN14GenericChannel8receptorEmPhm+0x19c>)
 8001e12:	6818      	ldr	r0, [r3, #0]
 8001e14:	4b4a      	ldr	r3, [pc, #296]	; (8001f40 <_ZN14GenericChannel8receptorEmPhm+0x19c>)
 8001e16:	681b      	ldr	r3, [r3, #0]
 8001e18:	681b      	ldr	r3, [r3, #0]
 8001e1a:	3314      	adds	r3, #20
 8001e1c:	681c      	ldr	r4, [r3, #0]
 8001e1e:	f107 0553 	add.w	r5, r7, #83	; 0x53
 8001e22:	f107 0354 	add.w	r3, r7, #84	; 0x54
 8001e26:	1c9a      	adds	r2, r3, #2
 8001e28:	f897 109f 	ldrb.w	r1, [r7, #159]	; 0x9f
 8001e2c:	462b      	mov	r3, r5
 8001e2e:	47a0      	blx	r4
 8001e30:	4603      	mov	r3, r0
 8001e32:	2b00      	cmp	r3, #0
 8001e34:	bf14      	ite	ne
 8001e36:	2301      	movne	r3, #1
 8001e38:	2300      	moveq	r3, #0
 8001e3a:	b2db      	uxtb	r3, r3
 8001e3c:	2b00      	cmp	r3, #0
 8001e3e:	d017      	beq.n	8001e70 <_ZN14GenericChannel8receptorEmPhm+0xcc>
			return;
 8001e40:	e07a      	b.n	8001f38 <_ZN14GenericChannel8receptorEmPhm+0x194>
	}
	else
	{
		if (gcPtr->processMessage(commandId, msgData.bit.data.uint8, ret_n, channelId) != 0)
 8001e42:	4b3f      	ldr	r3, [pc, #252]	; (8001f40 <_ZN14GenericChannel8receptorEmPhm+0x19c>)
 8001e44:	6818      	ldr	r0, [r3, #0]
 8001e46:	f107 0453 	add.w	r4, r7, #83	; 0x53
 8001e4a:	f107 0354 	add.w	r3, r7, #84	; 0x54
 8001e4e:	1c9a      	adds	r2, r3, #2
 8001e50:	f897 109f 	ldrb.w	r1, [r7, #159]	; 0x9f
 8001e54:	f897 309e 	ldrb.w	r3, [r7, #158]	; 0x9e
 8001e58:	9300      	str	r3, [sp, #0]
 8001e5a:	4623      	mov	r3, r4
 8001e5c:	f7ff fd82 	bl	8001964 <_ZN14GenericChannel14processMessageEhPhRhh>
 8001e60:	4603      	mov	r3, r0
 8001e62:	2b00      	cmp	r3, #0
 8001e64:	bf14      	ite	ne
 8001e66:	2301      	movne	r3, #1
 8001e68:	2300      	moveq	r3, #0
 8001e6a:	b2db      	uxtb	r3, r3
 8001e6c:	2b00      	cmp	r3, #0
 8001e6e:	d162      	bne.n	8001f36 <_ZN14GenericChannel8receptorEmPhm+0x192>
			return;
	}

	msgId.info.direction = NODE2MASTER_DIRECTION;
 8001e70:	f897 3098 	ldrb.w	r3, [r7, #152]	; 0x98
 8001e74:	f043 0301 	orr.w	r3, r3, #1
 8001e78:	f887 3098 	strb.w	r3, [r7, #152]	; 0x98
	msgId.info.node_id = gcPtr->getNodeId();
 8001e7c:	4b30      	ldr	r3, [pc, #192]	; (8001f40 <_ZN14GenericChannel8receptorEmPhm+0x19c>)
 8001e7e:	681b      	ldr	r3, [r3, #0]
 8001e80:	4618      	mov	r0, r3
 8001e82:	f7ff fc17 	bl	80016b4 <_ZNK14GenericChannel9getNodeIdEv>
 8001e86:	4603      	mov	r3, r0
 8001e88:	f003 033f 	and.w	r3, r3, #63	; 0x3f
 8001e8c:	b2da      	uxtb	r2, r3
 8001e8e:	f897 3098 	ldrb.w	r3, [r7, #152]	; 0x98
 8001e92:	f362 0346 	bfi	r3, r2, #1, #6
 8001e96:	f887 3098 	strb.w	r3, [r7, #152]	; 0x98
	msgId.info.special_cmd = STANDARD_SPECIAL_CMD;
 8001e9a:	f8b7 3098 	ldrh.w	r3, [r7, #152]	; 0x98
 8001e9e:	f443 73c0 	orr.w	r3, r3, #384	; 0x180
 8001ea2:	f8a7 3098 	strh.w	r3, [r7, #152]	; 0x98
	msgId.info.priority = STANDARD_PRIORITY;
 8001ea6:	f897 3099 	ldrb.w	r3, [r7, #153]	; 0x99
 8001eaa:	2202      	movs	r2, #2
 8001eac:	f362 0342 	bfi	r3, r2, #1, #2
 8001eb0:	f887 3099 	strb.w	r3, [r7, #153]	; 0x99
	msgData.bit.cmd_id = commandId + 1;
 8001eb4:	f897 309f 	ldrb.w	r3, [r7, #159]	; 0x9f
 8001eb8:	3301      	adds	r3, #1
 8001eba:	b2db      	uxtb	r3, r3
 8001ebc:	f887 3055 	strb.w	r3, [r7, #85]	; 0x55

#ifdef UART_DEBUG
	uint8_t msgBuf[66] =
 8001ec0:	2300      	movs	r3, #0
 8001ec2:	613b      	str	r3, [r7, #16]
 8001ec4:	f107 0314 	add.w	r3, r7, #20
 8001ec8:	223e      	movs	r2, #62	; 0x3e
 8001eca:	2100      	movs	r1, #0
 8001ecc:	4618      	mov	r0, r3
 8001ece:	f006 fecd 	bl	8008c6c <memset>
	{ 0 };
	msgBuf[0] = 0x3A;
 8001ed2:	233a      	movs	r3, #58	; 0x3a
 8001ed4:	743b      	strb	r3, [r7, #16]
	msgBuf[1] = gcPtr->getNodeId();
 8001ed6:	4b1a      	ldr	r3, [pc, #104]	; (8001f40 <_ZN14GenericChannel8receptorEmPhm+0x19c>)
 8001ed8:	681b      	ldr	r3, [r3, #0]
 8001eda:	4618      	mov	r0, r3
 8001edc:	f7ff fbea 	bl	80016b4 <_ZNK14GenericChannel9getNodeIdEv>
 8001ee0:	4603      	mov	r3, r0
 8001ee2:	b2db      	uxtb	r3, r3
 8001ee4:	747b      	strb	r3, [r7, #17]
	memcpy(&msgBuf[2], msgData.uint8, CAN_MSG_LENGTH(ret_n));
 8001ee6:	f897 3053 	ldrb.w	r3, [r7, #83]	; 0x53
 8001eea:	1c9a      	adds	r2, r3, #2
 8001eec:	f107 0154 	add.w	r1, r7, #84	; 0x54
 8001ef0:	f107 0310 	add.w	r3, r7, #16
 8001ef4:	3302      	adds	r3, #2
 8001ef6:	4618      	mov	r0, r3
 8001ef8:	f006 feaa 	bl	8008c50 <memcpy>
	msgBuf[CAN_MSG_LENGTH(ret_n) + 2] = 0x0A;
 8001efc:	f897 3053 	ldrb.w	r3, [r7, #83]	; 0x53
 8001f00:	3304      	adds	r3, #4
 8001f02:	f107 02a0 	add.w	r2, r7, #160	; 0xa0
 8001f06:	4413      	add	r3, r2
 8001f08:	220a      	movs	r2, #10
 8001f0a:	f803 2c90 	strb.w	r2, [r3, #-144]
	STRHAL_UART_Debug_Write_DMA((char *) msgBuf, CAN_MSG_LENGTH(ret_n) + 3);
 8001f0e:	f897 3053 	ldrb.w	r3, [r7, #83]	; 0x53
 8001f12:	1d5a      	adds	r2, r3, #5
 8001f14:	f107 0310 	add.w	r3, r7, #16
 8001f18:	4611      	mov	r1, r2
 8001f1a:	4618      	mov	r0, r3
 8001f1c:	f006 fbd6 	bl	80086cc <STRHAL_UART_Debug_Write_DMA>
#endif

	(void) STRHAL_CAN_Send(STRHAL_FDCAN1, msgId.uint32, msgData.uint8, CAN_MSG_LENGTH(ret_n));
 8001f20:	f8d7 1098 	ldr.w	r1, [r7, #152]	; 0x98
 8001f24:	f897 3053 	ldrb.w	r3, [r7, #83]	; 0x53
 8001f28:	3302      	adds	r3, #2
 8001f2a:	f107 0254 	add.w	r2, r7, #84	; 0x54
 8001f2e:	2000      	movs	r0, #0
 8001f30:	f004 f8f6 	bl	8006120 <STRHAL_CAN_Send>
 8001f34:	e000      	b.n	8001f38 <_ZN14GenericChannel8receptorEmPhm+0x194>
			return;
 8001f36:	bf00      	nop
}
 8001f38:	37a4      	adds	r7, #164	; 0xa4
 8001f3a:	46bd      	mov	sp, r7
 8001f3c:	bdf0      	pop	{r4, r5, r6, r7, pc}
 8001f3e:	bf00      	nop
 8001f40:	20000818 	.word	0x20000818

08001f44 <_ZN14GenericChannel12heartbeatCanEv>:

void GenericChannel::heartbeatCan()
{
 8001f44:	b590      	push	{r4, r7, lr}
 8001f46:	b0a5      	sub	sp, #148	; 0x94
 8001f48:	af00      	add	r7, sp, #0
	Can_MessageId_t msgId =
 8001f4a:	2300      	movs	r3, #0
 8001f4c:	f8c7 308c 	str.w	r3, [r7, #140]	; 0x8c
	{ 0 };
	msgId.info.special_cmd = STANDARD_SPECIAL_CMD;
 8001f50:	f8b7 308c 	ldrh.w	r3, [r7, #140]	; 0x8c
 8001f54:	f443 73c0 	orr.w	r3, r3, #384	; 0x180
 8001f58:	f8a7 308c 	strh.w	r3, [r7, #140]	; 0x8c
	msgId.info.direction = NODE2MASTER_DIRECTION;
 8001f5c:	f897 308c 	ldrb.w	r3, [r7, #140]	; 0x8c
 8001f60:	f043 0301 	orr.w	r3, r3, #1
 8001f64:	f887 308c 	strb.w	r3, [r7, #140]	; 0x8c
	msgId.info.node_id = gcPtr->getNodeId();
 8001f68:	4b49      	ldr	r3, [pc, #292]	; (8002090 <_ZN14GenericChannel12heartbeatCanEv+0x14c>)
 8001f6a:	681b      	ldr	r3, [r3, #0]
 8001f6c:	4618      	mov	r0, r3
 8001f6e:	f7ff fba1 	bl	80016b4 <_ZNK14GenericChannel9getNodeIdEv>
 8001f72:	4603      	mov	r3, r0
 8001f74:	f003 033f 	and.w	r3, r3, #63	; 0x3f
 8001f78:	b2da      	uxtb	r2, r3
 8001f7a:	f897 308c 	ldrb.w	r3, [r7, #140]	; 0x8c
 8001f7e:	f362 0346 	bfi	r3, r2, #1, #6
 8001f82:	f887 308c 	strb.w	r3, [r7, #140]	; 0x8c
	msgId.info.priority = STANDARD_PRIORITY;
 8001f86:	f897 308d 	ldrb.w	r3, [r7, #141]	; 0x8d
 8001f8a:	2202      	movs	r2, #2
 8001f8c:	f362 0342 	bfi	r3, r2, #1, #2
 8001f90:	f887 308d 	strb.w	r3, [r7, #141]	; 0x8d

	Can_MessageData_t msgData =
 8001f94:	f107 0348 	add.w	r3, r7, #72	; 0x48
 8001f98:	2242      	movs	r2, #66	; 0x42
 8001f9a:	2100      	movs	r1, #0
 8001f9c:	4618      	mov	r0, r3
 8001f9e:	f006 fe65 	bl	8008c6c <memset>
	{ 0 };
	msgData.bit.cmd_id = GENERIC_RES_DATA;
 8001fa2:	230b      	movs	r3, #11
 8001fa4:	f887 3049 	strb.w	r3, [r7, #73]	; 0x49
	msgData.bit.info.channel_id = GENERIC_CHANNEL_ID;
 8001fa8:	f897 3048 	ldrb.w	r3, [r7, #72]	; 0x48
 8001fac:	f043 033f 	orr.w	r3, r3, #63	; 0x3f
 8001fb0:	f887 3048 	strb.w	r3, [r7, #72]	; 0x48
	msgData.bit.info.buffer = DIRECT_BUFFER;
 8001fb4:	f897 3048 	ldrb.w	r3, [r7, #72]	; 0x48
 8001fb8:	f36f 1387 	bfc	r3, #6, #2
 8001fbc:	f887 3048 	strb.w	r3, [r7, #72]	; 0x48

	uint8_t n = 0;
 8001fc0:	2300      	movs	r3, #0
 8001fc2:	f887 3047 	strb.w	r3, [r7, #71]	; 0x47
	if (gcPtr->getSensorData(&msgData.bit.data.uint8[0], n) != 0)
 8001fc6:	4b32      	ldr	r3, [pc, #200]	; (8002090 <_ZN14GenericChannel12heartbeatCanEv+0x14c>)
 8001fc8:	6818      	ldr	r0, [r3, #0]
 8001fca:	4b31      	ldr	r3, [pc, #196]	; (8002090 <_ZN14GenericChannel12heartbeatCanEv+0x14c>)
 8001fcc:	681b      	ldr	r3, [r3, #0]
 8001fce:	681b      	ldr	r3, [r3, #0]
 8001fd0:	3318      	adds	r3, #24
 8001fd2:	681b      	ldr	r3, [r3, #0]
 8001fd4:	f107 0447 	add.w	r4, r7, #71	; 0x47
 8001fd8:	f107 0248 	add.w	r2, r7, #72	; 0x48
 8001fdc:	1c91      	adds	r1, r2, #2
 8001fde:	4622      	mov	r2, r4
 8001fe0:	4798      	blx	r3
 8001fe2:	4603      	mov	r3, r0
 8001fe4:	2b00      	cmp	r3, #0
 8001fe6:	bf14      	ite	ne
 8001fe8:	2301      	movne	r3, #1
 8001fea:	2300      	moveq	r3, #0
 8001fec:	b2db      	uxtb	r3, r3
 8001fee:	2b00      	cmp	r3, #0
 8001ff0:	d149      	bne.n	8002086 <_ZN14GenericChannel12heartbeatCanEv+0x142>
	{ // Sensor Data collection failed, or Refresh Divider not yet met
		return;
	}

	if (loraActive)
 8001ff2:	4b28      	ldr	r3, [pc, #160]	; (8002094 <_ZN14GenericChannel12heartbeatCanEv+0x150>)
 8001ff4:	781b      	ldrb	r3, [r3, #0]
 8001ff6:	2b00      	cmp	r3, #0
 8001ff8:	d00d      	beq.n	8002016 <_ZN14GenericChannel12heartbeatCanEv+0xd2>
	{
		Radio::msgArray[Radio::RCU_START_ADDR] = 1;
 8001ffa:	4b27      	ldr	r3, [pc, #156]	; (8002098 <_ZN14GenericChannel12heartbeatCanEv+0x154>)
 8001ffc:	2201      	movs	r2, #1
 8001ffe:	f883 2037 	strb.w	r2, [r3, #55]	; 0x37
		memcpy(&Radio::msgArray[Radio::RCU_START_ADDR + 1], msgData.bit.data.uint8, n);
 8002002:	f897 3047 	ldrb.w	r3, [r7, #71]	; 0x47
 8002006:	461a      	mov	r2, r3
 8002008:	f107 0348 	add.w	r3, r7, #72	; 0x48
 800200c:	3302      	adds	r3, #2
 800200e:	4619      	mov	r1, r3
 8002010:	4822      	ldr	r0, [pc, #136]	; (800209c <_ZN14GenericChannel12heartbeatCanEv+0x158>)
 8002012:	f006 fe1d 	bl	8008c50 <memcpy>
	}

#ifdef UART_DEBUG
	uint8_t msgBuf[66] =
 8002016:	2300      	movs	r3, #0
 8002018:	607b      	str	r3, [r7, #4]
 800201a:	f107 0308 	add.w	r3, r7, #8
 800201e:	223e      	movs	r2, #62	; 0x3e
 8002020:	2100      	movs	r1, #0
 8002022:	4618      	mov	r0, r3
 8002024:	f006 fe22 	bl	8008c6c <memset>
	{ 0 };
	msgBuf[0] = 0x3A;
 8002028:	233a      	movs	r3, #58	; 0x3a
 800202a:	713b      	strb	r3, [r7, #4]
	msgBuf[1] = gcPtr->getNodeId();
 800202c:	4b18      	ldr	r3, [pc, #96]	; (8002090 <_ZN14GenericChannel12heartbeatCanEv+0x14c>)
 800202e:	681b      	ldr	r3, [r3, #0]
 8002030:	4618      	mov	r0, r3
 8002032:	f7ff fb3f 	bl	80016b4 <_ZNK14GenericChannel9getNodeIdEv>
 8002036:	4603      	mov	r3, r0
 8002038:	b2db      	uxtb	r3, r3
 800203a:	717b      	strb	r3, [r7, #5]
	memcpy(&msgBuf[2], msgData.uint8, CAN_MSG_LENGTH(n));
 800203c:	f897 3047 	ldrb.w	r3, [r7, #71]	; 0x47
 8002040:	1c9a      	adds	r2, r3, #2
 8002042:	f107 0148 	add.w	r1, r7, #72	; 0x48
 8002046:	1d3b      	adds	r3, r7, #4
 8002048:	3302      	adds	r3, #2
 800204a:	4618      	mov	r0, r3
 800204c:	f006 fe00 	bl	8008c50 <memcpy>
	msgBuf[CAN_MSG_LENGTH(n) + 2] = 0x0A;
 8002050:	f897 3047 	ldrb.w	r3, [r7, #71]	; 0x47
 8002054:	3304      	adds	r3, #4
 8002056:	f107 0290 	add.w	r2, r7, #144	; 0x90
 800205a:	4413      	add	r3, r2
 800205c:	220a      	movs	r2, #10
 800205e:	f803 2c8c 	strb.w	r2, [r3, #-140]
	STRHAL_UART_Debug_Write_DMA((char *) msgBuf, CAN_MSG_LENGTH(n) + 3);
 8002062:	f897 3047 	ldrb.w	r3, [r7, #71]	; 0x47
 8002066:	1d5a      	adds	r2, r3, #5
 8002068:	1d3b      	adds	r3, r7, #4
 800206a:	4611      	mov	r1, r2
 800206c:	4618      	mov	r0, r3
 800206e:	f006 fb2d 	bl	80086cc <STRHAL_UART_Debug_Write_DMA>
#endif

	(void) STRHAL_CAN_Send(STRHAL_FDCAN1, msgId.uint32, msgData.uint8, n);
 8002072:	f8d7 108c 	ldr.w	r1, [r7, #140]	; 0x8c
 8002076:	f897 3047 	ldrb.w	r3, [r7, #71]	; 0x47
 800207a:	f107 0248 	add.w	r2, r7, #72	; 0x48
 800207e:	2000      	movs	r0, #0
 8002080:	f004 f84e 	bl	8006120 <STRHAL_CAN_Send>
 8002084:	e000      	b.n	8002088 <_ZN14GenericChannel12heartbeatCanEv+0x144>
		return;
 8002086:	bf00      	nop
}
 8002088:	3794      	adds	r7, #148	; 0x94
 800208a:	46bd      	mov	sp, r7
 800208c:	bd90      	pop	{r4, r7, pc}
 800208e:	bf00      	nop
 8002090:	20000818 	.word	0x20000818
 8002094:	2000081c 	.word	0x2000081c
 8002098:	200007b8 	.word	0x200007b8
 800209c:	200007f0 	.word	0x200007f0

080020a0 <_ZN14AbstractModuleC1Ev>:
#ifndef ABSTRACTMODULE_H
#define ABSTRACTMODULE_H

class AbstractModule
 80020a0:	b480      	push	{r7}
 80020a2:	b083      	sub	sp, #12
 80020a4:	af00      	add	r7, sp, #0
 80020a6:	6078      	str	r0, [r7, #4]
 80020a8:	4a04      	ldr	r2, [pc, #16]	; (80020bc <_ZN14AbstractModuleC1Ev+0x1c>)
 80020aa:	687b      	ldr	r3, [r7, #4]
 80020ac:	601a      	str	r2, [r3, #0]
 80020ae:	687b      	ldr	r3, [r7, #4]
 80020b0:	4618      	mov	r0, r3
 80020b2:	370c      	adds	r7, #12
 80020b4:	46bd      	mov	sp, r7
 80020b6:	f85d 7b04 	ldr.w	r7, [sp], #4
 80020ba:	4770      	bx	lr
 80020bc:	08008fe4 	.word	0x08008fe4

080020c0 <_ZN12W25Qxx_FlashC1Ev>:
#include <STRHAL.h>
#include <channels/generic_channel_def.h>

#include <cstring>

W25Qxx_Flash::W25Qxx_Flash() :
 80020c0:	b580      	push	{r7, lr}
 80020c2:	b082      	sub	sp, #8
 80020c4:	af00      	add	r7, sp, #0
 80020c6:	6078      	str	r0, [r7, #4]
		state(FlashState::IDLE), pageCount(0), sectorCount(0), can(Can::instance())
 80020c8:	687b      	ldr	r3, [r7, #4]
 80020ca:	4618      	mov	r0, r3
 80020cc:	f7ff ffe8 	bl	80020a0 <_ZN14AbstractModuleC1Ev>
 80020d0:	4a1a      	ldr	r2, [pc, #104]	; (800213c <_ZN12W25Qxx_FlashC1Ev+0x7c>)
 80020d2:	687b      	ldr	r3, [r7, #4]
 80020d4:	601a      	str	r2, [r3, #0]
 80020d6:	687b      	ldr	r3, [r7, #4]
 80020d8:	2200      	movs	r2, #0
 80020da:	711a      	strb	r2, [r3, #4]
 80020dc:	687b      	ldr	r3, [r7, #4]
 80020de:	2200      	movs	r2, #0
 80020e0:	609a      	str	r2, [r3, #8]
 80020e2:	687b      	ldr	r3, [r7, #4]
 80020e4:	2200      	movs	r2, #0
 80020e6:	60da      	str	r2, [r3, #12]
 80020e8:	687b      	ldr	r3, [r7, #4]
 80020ea:	2200      	movs	r2, #0
 80020ec:	611a      	str	r2, [r3, #16]
 80020ee:	6879      	ldr	r1, [r7, #4]
 80020f0:	f04f 0200 	mov.w	r2, #0
 80020f4:	f04f 0300 	mov.w	r3, #0
 80020f8:	e9c1 2346 	strd	r2, r3, [r1, #280]	; 0x118
 80020fc:	6879      	ldr	r1, [r7, #4]
 80020fe:	f04f 0200 	mov.w	r2, #0
 8002102:	f04f 0300 	mov.w	r3, #0
 8002106:	e9c1 2348 	strd	r2, r3, [r1, #288]	; 0x120
 800210a:	687b      	ldr	r3, [r7, #4]
 800210c:	2200      	movs	r2, #0
 800210e:	f8c3 2128 	str.w	r2, [r3, #296]	; 0x128
 8002112:	687b      	ldr	r3, [r7, #4]
 8002114:	2200      	movs	r2, #0
 8002116:	f8c3 212c 	str.w	r2, [r3, #300]	; 0x12c
 800211a:	687b      	ldr	r3, [r7, #4]
 800211c:	2200      	movs	r2, #0
 800211e:	f883 2230 	strb.w	r2, [r3, #560]	; 0x230
 8002122:	2000      	movs	r0, #0
 8002124:	f7fe f8a0 	bl	8000268 <_ZN3Can8instanceEm>
 8002128:	4602      	mov	r2, r0
 800212a:	687b      	ldr	r3, [r7, #4]
 800212c:	f8c3 2234 	str.w	r2, [r3, #564]	; 0x234
{
}
 8002130:	687b      	ldr	r3, [r7, #4]
 8002132:	4618      	mov	r0, r3
 8002134:	3708      	adds	r7, #8
 8002136:	46bd      	mov	sp, r7
 8002138:	bd80      	pop	{r7, pc}
 800213a:	bf00      	nop
 800213c:	08008ff8 	.word	0x08008ff8

08002140 <_ZN12W25Qxx_Flash8instanceEv>:

W25Qxx_Flash& W25Qxx_Flash::instance()
{
 8002140:	b580      	push	{r7, lr}
 8002142:	af00      	add	r7, sp, #0
	static W25Qxx_Flash instance;
 8002144:	4b10      	ldr	r3, [pc, #64]	; (8002188 <_ZN12W25Qxx_Flash8instanceEv+0x48>)
 8002146:	781b      	ldrb	r3, [r3, #0]
 8002148:	f3bf 8f5b 	dmb	ish
 800214c:	b2db      	uxtb	r3, r3
 800214e:	f003 0301 	and.w	r3, r3, #1
 8002152:	2b00      	cmp	r3, #0
 8002154:	bf0c      	ite	eq
 8002156:	2301      	moveq	r3, #1
 8002158:	2300      	movne	r3, #0
 800215a:	b2db      	uxtb	r3, r3
 800215c:	2b00      	cmp	r3, #0
 800215e:	d010      	beq.n	8002182 <_ZN12W25Qxx_Flash8instanceEv+0x42>
 8002160:	4809      	ldr	r0, [pc, #36]	; (8002188 <_ZN12W25Qxx_Flash8instanceEv+0x48>)
 8002162:	f006 fd17 	bl	8008b94 <__cxa_guard_acquire>
 8002166:	4603      	mov	r3, r0
 8002168:	2b00      	cmp	r3, #0
 800216a:	bf14      	ite	ne
 800216c:	2301      	movne	r3, #1
 800216e:	2300      	moveq	r3, #0
 8002170:	b2db      	uxtb	r3, r3
 8002172:	2b00      	cmp	r3, #0
 8002174:	d005      	beq.n	8002182 <_ZN12W25Qxx_Flash8instanceEv+0x42>
 8002176:	4805      	ldr	r0, [pc, #20]	; (800218c <_ZN12W25Qxx_Flash8instanceEv+0x4c>)
 8002178:	f7ff ffa2 	bl	80020c0 <_ZN12W25Qxx_FlashC1Ev>
 800217c:	4802      	ldr	r0, [pc, #8]	; (8002188 <_ZN12W25Qxx_Flash8instanceEv+0x48>)
 800217e:	f006 fd15 	bl	8008bac <__cxa_guard_release>

	return instance;
 8002182:	4b02      	ldr	r3, [pc, #8]	; (800218c <_ZN12W25Qxx_Flash8instanceEv+0x4c>)
}
 8002184:	4618      	mov	r0, r3
 8002186:	bd80      	pop	{r7, pc}
 8002188:	20000a58 	.word	0x20000a58
 800218c:	20000820 	.word	0x20000820

08002190 <_ZN12W25Qxx_Flash4initEv>:

int W25Qxx_Flash::init()
{
 8002190:	b580      	push	{r7, lr}
 8002192:	b084      	sub	sp, #16
 8002194:	af00      	add	r7, sp, #0
 8002196:	6078      	str	r0, [r7, #4]
	memset(loggingBuffer, 0, 256);
 8002198:	687b      	ldr	r3, [r7, #4]
 800219a:	f503 7398 	add.w	r3, r3, #304	; 0x130
 800219e:	f44f 7280 	mov.w	r2, #256	; 0x100
 80021a2:	2100      	movs	r1, #0
 80021a4:	4618      	mov	r0, r3
 80021a6:	f006 fd61 	bl	8008c6c <memset>

	STRHAL_QSPI_Config_t qspi_conf;
	qspi_conf.clk_level = 0x0;
 80021aa:	7bbb      	ldrb	r3, [r7, #14]
 80021ac:	f36f 0300 	bfc	r3, #0, #1
 80021b0:	73bb      	strb	r3, [r7, #14]
	qspi_conf.flash_size = SIZE_2N;
 80021b2:	7b7b      	ldrb	r3, [r7, #13]
 80021b4:	f043 031f 	orr.w	r3, r3, #31
 80021b8:	737b      	strb	r3, [r7, #13]
	qspi_conf.ncs_high_time = 0x7;
 80021ba:	7b7b      	ldrb	r3, [r7, #13]
 80021bc:	f043 03e0 	orr.w	r3, r3, #224	; 0xe0
 80021c0:	737b      	strb	r3, [r7, #13]
	qspi_conf.psc = 19;
 80021c2:	7b3b      	ldrb	r3, [r7, #12]
 80021c4:	2213      	movs	r2, #19
 80021c6:	f362 0304 	bfi	r3, r2, #0, #5
 80021ca:	733b      	strb	r3, [r7, #12]

	if (STRHAL_QSPI_Flash_Init(&qspi_conf) < 0)
 80021cc:	f107 030c 	add.w	r3, r7, #12
 80021d0:	4618      	mov	r0, r3
 80021d2:	f004 fce9 	bl	8006ba8 <STRHAL_QSPI_Flash_Init>
 80021d6:	4603      	mov	r3, r0
 80021d8:	0fdb      	lsrs	r3, r3, #31
 80021da:	b2db      	uxtb	r3, r3
 80021dc:	2b00      	cmp	r3, #0
 80021de:	d002      	beq.n	80021e6 <_ZN12W25Qxx_Flash4initEv+0x56>
		return -1;
 80021e0:	f04f 33ff 	mov.w	r3, #4294967295	; 0xffffffff
 80021e4:	e029      	b.n	800223a <_ZN12W25Qxx_Flash4initEv+0xaa>

	STRHAL_QSPI_Run();
 80021e6:	f004 fd51 	bl	8006c8c <STRHAL_QSPI_Run>

	if (!enter4ByteAddrMode())
 80021ea:	6878      	ldr	r0, [r7, #4]
 80021ec:	f000 fad8 	bl	80027a0 <_ZN12W25Qxx_Flash18enter4ByteAddrModeEv>
 80021f0:	4603      	mov	r3, r0
 80021f2:	f083 0301 	eor.w	r3, r3, #1
 80021f6:	b2db      	uxtb	r3, r3
 80021f8:	2b00      	cmp	r3, #0
 80021fa:	d002      	beq.n	8002202 <_ZN12W25Qxx_Flash4initEv+0x72>
	{
		return -1;
 80021fc:	f04f 33ff 	mov.w	r3, #4294967295	; 0xffffffff
 8002200:	e01b      	b.n	800223a <_ZN12W25Qxx_Flash4initEv+0xaa>
	}

	if (!writeEnable())
 8002202:	6878      	ldr	r0, [r7, #4]
 8002204:	f000 fa5f 	bl	80026c6 <_ZN12W25Qxx_Flash11writeEnableEv>
 8002208:	4603      	mov	r3, r0
 800220a:	f083 0301 	eor.w	r3, r3, #1
 800220e:	b2db      	uxtb	r3, r3
 8002210:	2b00      	cmp	r3, #0
 8002212:	d002      	beq.n	800221a <_ZN12W25Qxx_Flash4initEv+0x8a>
	{
		return -1;
 8002214:	f04f 33ff 	mov.w	r3, #4294967295	; 0xffffffff
 8002218:	e00f      	b.n	800223a <_ZN12W25Qxx_Flash4initEv+0xaa>
	}

	if (!disableWPS())
 800221a:	6878      	ldr	r0, [r7, #4]
 800221c:	f000 fa7f 	bl	800271e <_ZN12W25Qxx_Flash10disableWPSEv>
 8002220:	4603      	mov	r3, r0
 8002222:	f083 0301 	eor.w	r3, r3, #1
 8002226:	b2db      	uxtb	r3, r3
 8002228:	2b00      	cmp	r3, #0
 800222a:	d002      	beq.n	8002232 <_ZN12W25Qxx_Flash4initEv+0xa2>
	{
		return -1;
 800222c:	f04f 33ff 	mov.w	r3, #4294967295	; 0xffffffff
 8002230:	e003      	b.n	800223a <_ZN12W25Qxx_Flash4initEv+0xaa>
	}

	LL_mDelay(10);
 8002232:	200a      	movs	r0, #10
 8002234:	f002 fa16 	bl	8004664 <LL_mDelay>

	return 0;
 8002238:	2300      	movs	r3, #0
}
 800223a:	4618      	mov	r0, r3
 800223c:	3710      	adds	r7, #16
 800223e:	46bd      	mov	sp, r7
 8002240:	bd80      	pop	{r7, pc}

08002242 <_ZN12W25Qxx_Flash4execEv>:

int W25Qxx_Flash::exec()
{
 8002242:	b5b0      	push	{r4, r5, r7, lr}
 8002244:	b086      	sub	sp, #24
 8002246:	af00      	add	r7, sp, #0
 8002248:	6078      	str	r0, [r7, #4]
	uint64_t time = STRHAL_Systick_GetTick();
 800224a:	f004 ffd5 	bl	80071f8 <STRHAL_Systick_GetTick>
 800224e:	e9c7 0102 	strd	r0, r1, [r7, #8]
	if ((time - timeLastSample) < EXEC_SAMPLE_TICKS)
 8002252:	687b      	ldr	r3, [r7, #4]
 8002254:	e9d3 2346 	ldrd	r2, r3, [r3, #280]	; 0x118
 8002258:	e9d7 0102 	ldrd	r0, r1, [r7, #8]
 800225c:	1a84      	subs	r4, r0, r2
 800225e:	eb61 0503 	sbc.w	r5, r1, r3
 8002262:	2d00      	cmp	r5, #0
 8002264:	bf08      	it	eq
 8002266:	2c0a      	cmpeq	r4, #10
 8002268:	d201      	bcs.n	800226e <_ZN12W25Qxx_Flash4execEv+0x2c>
		return 0;
 800226a:	2300      	movs	r3, #0
 800226c:	e039      	b.n	80022e2 <_ZN12W25Qxx_Flash4execEv+0xa0>

	timeLastSample = time;
 800226e:	6879      	ldr	r1, [r7, #4]
 8002270:	e9d7 2302 	ldrd	r2, r3, [r7, #8]
 8002274:	e9c1 2346 	strd	r2, r3, [r1, #280]	; 0x118

	// Current State Logic - executes state logic, also returns new state if transition conditions are met
	internalNextState = currentStateLogic(time);
 8002278:	e9d7 2302 	ldrd	r2, r3, [r7, #8]
 800227c:	6878      	ldr	r0, [r7, #4]
 800227e:	f000 f849 	bl	8002314 <_ZN12W25Qxx_Flash17currentStateLogicEy>
 8002282:	4602      	mov	r2, r0
 8002284:	687b      	ldr	r3, [r7, #4]
 8002286:	f8c3 2128 	str.w	r2, [r3, #296]	; 0x128

	FlashState nextState = state;
 800228a:	687b      	ldr	r3, [r7, #4]
 800228c:	689b      	ldr	r3, [r3, #8]
 800228e:	617b      	str	r3, [r7, #20]

	if (externalNextState != state)
 8002290:	687b      	ldr	r3, [r7, #4]
 8002292:	f8d3 212c 	ldr.w	r2, [r3, #300]	; 0x12c
 8002296:	687b      	ldr	r3, [r7, #4]
 8002298:	689b      	ldr	r3, [r3, #8]
 800229a:	429a      	cmp	r2, r3
 800229c:	d004      	beq.n	80022a8 <_ZN12W25Qxx_Flash4execEv+0x66>
	{ // Prioritize external event - there has to be some kind of priority, because internal could be different to external -> external means CAN -> either Sequence or Abort
		nextState = externalNextState;
 800229e:	687b      	ldr	r3, [r7, #4]
 80022a0:	f8d3 312c 	ldr.w	r3, [r3, #300]	; 0x12c
 80022a4:	617b      	str	r3, [r7, #20]
 80022a6:	e010      	b.n	80022ca <_ZN12W25Qxx_Flash4execEv+0x88>
	}
	else if (internalNextState != state)
 80022a8:	687b      	ldr	r3, [r7, #4]
 80022aa:	f8d3 2128 	ldr.w	r2, [r3, #296]	; 0x128
 80022ae:	687b      	ldr	r3, [r7, #4]
 80022b0:	689b      	ldr	r3, [r3, #8]
 80022b2:	429a      	cmp	r2, r3
 80022b4:	d009      	beq.n	80022ca <_ZN12W25Qxx_Flash4execEv+0x88>
	{
		externalNextState = internalNextState; // Incase an internal state change happens, the external state, which is from some previous change would block it, so it is updated here
 80022b6:	687b      	ldr	r3, [r7, #4]
 80022b8:	f8d3 2128 	ldr.w	r2, [r3, #296]	; 0x128
 80022bc:	687b      	ldr	r3, [r7, #4]
 80022be:	f8c3 212c 	str.w	r2, [r3, #300]	; 0x12c
		nextState = internalNextState;
 80022c2:	687b      	ldr	r3, [r7, #4]
 80022c4:	f8d3 3128 	ldr.w	r3, [r3, #296]	; 0x128
 80022c8:	617b      	str	r3, [r7, #20]
	}

	// Next State Logic
	if (nextState != state)
 80022ca:	687b      	ldr	r3, [r7, #4]
 80022cc:	689b      	ldr	r3, [r3, #8]
 80022ce:	697a      	ldr	r2, [r7, #20]
 80022d0:	429a      	cmp	r2, r3
 80022d2:	d005      	beq.n	80022e0 <_ZN12W25Qxx_Flash4execEv+0x9e>
	{
		nextStateLogic(nextState, time);
 80022d4:	e9d7 2302 	ldrd	r2, r3, [r7, #8]
 80022d8:	6979      	ldr	r1, [r7, #20]
 80022da:	6878      	ldr	r0, [r7, #4]
 80022dc:	f000 f86c 	bl	80023b8 <_ZN12W25Qxx_Flash14nextStateLogicE10FlashStatey>
	}

	return 0;
 80022e0:	2300      	movs	r3, #0
}
 80022e2:	4618      	mov	r0, r3
 80022e4:	3718      	adds	r7, #24
 80022e6:	46bd      	mov	sp, r7
 80022e8:	bdb0      	pop	{r4, r5, r7, pc}

080022ea <_ZN12W25Qxx_Flash5resetEv>:

int W25Qxx_Flash::reset()
{
 80022ea:	b480      	push	{r7}
 80022ec:	b083      	sub	sp, #12
 80022ee:	af00      	add	r7, sp, #0
 80022f0:	6078      	str	r0, [r7, #4]
	state = FlashState::IDLE;
 80022f2:	687b      	ldr	r3, [r7, #4]
 80022f4:	2200      	movs	r2, #0
 80022f6:	609a      	str	r2, [r3, #8]
	pageCount = 0;
 80022f8:	687b      	ldr	r3, [r7, #4]
 80022fa:	2200      	movs	r2, #0
 80022fc:	60da      	str	r2, [r3, #12]
	sectorCount = 0;
 80022fe:	687b      	ldr	r3, [r7, #4]
 8002300:	2200      	movs	r2, #0
 8002302:	611a      	str	r2, [r3, #16]
	return 0;
 8002304:	2300      	movs	r3, #0
}
 8002306:	4618      	mov	r0, r3
 8002308:	370c      	adds	r7, #12
 800230a:	46bd      	mov	sp, r7
 800230c:	f85d 7b04 	ldr.w	r7, [sp], #4
 8002310:	4770      	bx	lr
	...

08002314 <_ZN12W25Qxx_Flash17currentStateLogicEy>:

FlashState W25Qxx_Flash::currentStateLogic(uint64_t time)
{
 8002314:	b580      	push	{r7, lr}
 8002316:	b086      	sub	sp, #24
 8002318:	af00      	add	r7, sp, #0
 800231a:	60f8      	str	r0, [r7, #12]
 800231c:	e9c7 2300 	strd	r2, r3, [r7]
	switch (state)
 8002320:	68fb      	ldr	r3, [r7, #12]
 8002322:	689b      	ldr	r3, [r3, #8]
 8002324:	2b04      	cmp	r3, #4
 8002326:	d839      	bhi.n	800239c <_ZN12W25Qxx_Flash17currentStateLogicEy+0x88>
 8002328:	a201      	add	r2, pc, #4	; (adr r2, 8002330 <_ZN12W25Qxx_Flash17currentStateLogicEy+0x1c>)
 800232a:	f852 f023 	ldr.w	pc, [r2, r3, lsl #2]
 800232e:	bf00      	nop
 8002330:	0800239d 	.word	0x0800239d
 8002334:	08002345 	.word	0x08002345
 8002338:	0800239d 	.word	0x0800239d
 800233c:	0800236b 	.word	0x0800236b
 8002340:	0800239d 	.word	0x0800239d
		case FlashState::IDLE:
			break;
		case FlashState::CLEARING:
		{
			uint8_t sreg1;
			if (!readSREG1(sreg1))
 8002344:	f107 0317 	add.w	r3, r7, #23
 8002348:	4619      	mov	r1, r3
 800234a:	68f8      	ldr	r0, [r7, #12]
 800234c:	f000 f996 	bl	800267c <_ZNK12W25Qxx_Flash9readSREG1ERh>
 8002350:	4603      	mov	r3, r0
 8002352:	f083 0301 	eor.w	r3, r3, #1
 8002356:	b2db      	uxtb	r3, r3
 8002358:	2b00      	cmp	r3, #0
 800235a:	d121      	bne.n	80023a0 <_ZN12W25Qxx_Flash17currentStateLogicEy+0x8c>
				break;
			if (!(sreg1 & 0x01))
 800235c:	7dfb      	ldrb	r3, [r7, #23]
 800235e:	f003 0301 	and.w	r3, r3, #1
 8002362:	2b00      	cmp	r3, #0
 8002364:	d11e      	bne.n	80023a4 <_ZN12W25Qxx_Flash17currentStateLogicEy+0x90>
				return FlashState::READY;
 8002366:	2302      	movs	r3, #2
 8002368:	e021      	b.n	80023ae <_ZN12W25Qxx_Flash17currentStateLogicEy+0x9a>
			break;
		}
		case FlashState::READY:
			break;
		case FlashState::LOGGING:
			if (loggingIndex + 64 >= 256)
 800236a:	68fb      	ldr	r3, [r7, #12]
 800236c:	f893 3230 	ldrb.w	r3, [r3, #560]	; 0x230
 8002370:	2bbf      	cmp	r3, #191	; 0xbf
 8002372:	d919      	bls.n	80023a8 <_ZN12W25Qxx_Flash17currentStateLogicEy+0x94>
			{
				lock = true;
 8002374:	68fb      	ldr	r3, [r7, #12]
 8002376:	2201      	movs	r2, #1
 8002378:	711a      	strb	r2, [r3, #4]
				writeNextPage(loggingBuffer, 256);
 800237a:	68fb      	ldr	r3, [r7, #12]
 800237c:	f503 7398 	add.w	r3, r3, #304	; 0x130
 8002380:	f44f 7280 	mov.w	r2, #256	; 0x100
 8002384:	4619      	mov	r1, r3
 8002386:	68f8      	ldr	r0, [r7, #12]
 8002388:	f000 fa30 	bl	80027ec <_ZN12W25Qxx_Flash13writeNextPageEPKhm>
				loggingIndex = 0;
 800238c:	68fb      	ldr	r3, [r7, #12]
 800238e:	2200      	movs	r2, #0
 8002390:	f883 2230 	strb.w	r2, [r3, #560]	; 0x230
				lock = false;
 8002394:	68fb      	ldr	r3, [r7, #12]
 8002396:	2200      	movs	r2, #0
 8002398:	711a      	strb	r2, [r3, #4]
			}
			break;
 800239a:	e005      	b.n	80023a8 <_ZN12W25Qxx_Flash17currentStateLogicEy+0x94>
		case FlashState::FULL:
			break;
		default:
			break;
 800239c:	bf00      	nop
 800239e:	e004      	b.n	80023aa <_ZN12W25Qxx_Flash17currentStateLogicEy+0x96>
				break;
 80023a0:	bf00      	nop
 80023a2:	e002      	b.n	80023aa <_ZN12W25Qxx_Flash17currentStateLogicEy+0x96>
			break;
 80023a4:	bf00      	nop
 80023a6:	e000      	b.n	80023aa <_ZN12W25Qxx_Flash17currentStateLogicEy+0x96>
			break;
 80023a8:	bf00      	nop
	}
	return state;
 80023aa:	68fb      	ldr	r3, [r7, #12]
 80023ac:	689b      	ldr	r3, [r3, #8]
}
 80023ae:	4618      	mov	r0, r3
 80023b0:	3718      	adds	r7, #24
 80023b2:	46bd      	mov	sp, r7
 80023b4:	bd80      	pop	{r7, pc}
 80023b6:	bf00      	nop

080023b8 <_ZN12W25Qxx_Flash14nextStateLogicE10FlashStatey>:

void W25Qxx_Flash::nextStateLogic(FlashState nextState, uint64_t time)
{
 80023b8:	b580      	push	{r7, lr}
 80023ba:	b084      	sub	sp, #16
 80023bc:	af00      	add	r7, sp, #0
 80023be:	60f8      	str	r0, [r7, #12]
 80023c0:	60b9      	str	r1, [r7, #8]
 80023c2:	e9c7 2300 	strd	r2, r3, [r7]
	timeLastTransition = time;
 80023c6:	68f9      	ldr	r1, [r7, #12]
 80023c8:	e9d7 2300 	ldrd	r2, r3, [r7]
 80023cc:	e9c1 2348 	strd	r2, r3, [r1, #288]	; 0x120
 80023d0:	68bb      	ldr	r3, [r7, #8]
 80023d2:	2b04      	cmp	r3, #4
 80023d4:	d86f      	bhi.n	80024b6 <_ZN12W25Qxx_Flash14nextStateLogicE10FlashStatey+0xfe>
 80023d6:	a201      	add	r2, pc, #4	; (adr r2, 80023dc <_ZN12W25Qxx_Flash14nextStateLogicE10FlashStatey+0x24>)
 80023d8:	f852 f023 	ldr.w	pc, [r2, r3, lsl #2]
 80023dc:	080023f1 	.word	0x080023f1
 80023e0:	08002407 	.word	0x08002407
 80023e4:	08002453 	.word	0x08002453
 80023e8:	0800248d 	.word	0x0800248d
 80023ec:	080024a3 	.word	0x080024a3
	switch (nextState)
	{
		case FlashState::IDLE:
			if (state != FlashState::LOGGING)
 80023f0:	68fb      	ldr	r3, [r7, #12]
 80023f2:	689b      	ldr	r3, [r3, #8]
 80023f4:	2b03      	cmp	r3, #3
 80023f6:	d167      	bne.n	80024c8 <_ZN12W25Qxx_Flash14nextStateLogicE10FlashStatey+0x110>
			{
				return;
			}
			pageCount = 0;
 80023f8:	68fb      	ldr	r3, [r7, #12]
 80023fa:	2200      	movs	r2, #0
 80023fc:	60da      	str	r2, [r3, #12]
			sectorCount = 0;
 80023fe:	68fb      	ldr	r3, [r7, #12]
 8002400:	2200      	movs	r2, #0
 8002402:	611a      	str	r2, [r3, #16]
			break;
 8002404:	e05c      	b.n	80024c0 <_ZN12W25Qxx_Flash14nextStateLogicE10FlashStatey+0x108>
		case FlashState::CLEARING:
			if (state != FlashState::IDLE)
 8002406:	68fb      	ldr	r3, [r7, #12]
 8002408:	689b      	ldr	r3, [r3, #8]
 800240a:	2b00      	cmp	r3, #0
 800240c:	d15e      	bne.n	80024cc <_ZN12W25Qxx_Flash14nextStateLogicE10FlashStatey+0x114>
			{
				return;
			}
			STRHAL_UART_Write_Blocking(STRHAL_UART_DEBUG, "CLEARING!\n", 10, 100);
 800240e:	2364      	movs	r3, #100	; 0x64
 8002410:	220a      	movs	r2, #10
 8002412:	4936      	ldr	r1, [pc, #216]	; (80024ec <_ZN12W25Qxx_Flash14nextStateLogicE10FlashStatey+0x134>)
 8002414:	2002      	movs	r0, #2
 8002416:	f006 fa1d 	bl	8008854 <STRHAL_UART_Write_Blocking>
			if (!sendClearInitiated())
 800241a:	68f8      	ldr	r0, [r7, #12]
 800241c:	f000 f887 	bl	800252e <_ZN12W25Qxx_Flash18sendClearInitiatedEv>
 8002420:	4603      	mov	r3, r0
 8002422:	f083 0301 	eor.w	r3, r3, #1
 8002426:	b2db      	uxtb	r3, r3
 8002428:	2b00      	cmp	r3, #0
 800242a:	d151      	bne.n	80024d0 <_ZN12W25Qxx_Flash14nextStateLogicE10FlashStatey+0x118>
				return;
			if (!readConfig())
 800242c:	68f8      	ldr	r0, [r7, #12]
 800242e:	f000 fac1 	bl	80029b4 <_ZN12W25Qxx_Flash10readConfigEv>
 8002432:	4603      	mov	r3, r0
 8002434:	f083 0301 	eor.w	r3, r3, #1
 8002438:	b2db      	uxtb	r3, r3
 800243a:	2b00      	cmp	r3, #0
 800243c:	d14a      	bne.n	80024d4 <_ZN12W25Qxx_Flash14nextStateLogicE10FlashStatey+0x11c>
				return;

			if (!chipErase())
 800243e:	68f8      	ldr	r0, [r7, #12]
 8002440:	f000 fb4c 	bl	8002adc <_ZN12W25Qxx_Flash9chipEraseEv>
 8002444:	4603      	mov	r3, r0
 8002446:	f083 0301 	eor.w	r3, r3, #1
 800244a:	b2db      	uxtb	r3, r3
 800244c:	2b00      	cmp	r3, #0
 800244e:	d034      	beq.n	80024ba <_ZN12W25Qxx_Flash14nextStateLogicE10FlashStatey+0x102>
				return;
 8002450:	e049      	b.n	80024e6 <_ZN12W25Qxx_Flash14nextStateLogicE10FlashStatey+0x12e>
			break;
		case FlashState::READY:
			STRHAL_UART_Write_Blocking(STRHAL_UART_DEBUG, "READY!\n", 7, 100);
 8002452:	2364      	movs	r3, #100	; 0x64
 8002454:	2207      	movs	r2, #7
 8002456:	4926      	ldr	r1, [pc, #152]	; (80024f0 <_ZN12W25Qxx_Flash14nextStateLogicE10FlashStatey+0x138>)
 8002458:	2002      	movs	r0, #2
 800245a:	f006 f9fb 	bl	8008854 <STRHAL_UART_Write_Blocking>
			if (state != FlashState::CLEARING)
 800245e:	68fb      	ldr	r3, [r7, #12]
 8002460:	689b      	ldr	r3, [r3, #8]
 8002462:	2b01      	cmp	r3, #1
 8002464:	d138      	bne.n	80024d8 <_ZN12W25Qxx_Flash14nextStateLogicE10FlashStatey+0x120>
			{
				return;
			}
			if (!writeTempConfig())
 8002466:	68f8      	ldr	r0, [r7, #12]
 8002468:	f000 fa8c 	bl	8002984 <_ZN12W25Qxx_Flash15writeTempConfigEv>
 800246c:	4603      	mov	r3, r0
 800246e:	f083 0301 	eor.w	r3, r3, #1
 8002472:	b2db      	uxtb	r3, r3
 8002474:	2b00      	cmp	r3, #0
 8002476:	d131      	bne.n	80024dc <_ZN12W25Qxx_Flash14nextStateLogicE10FlashStatey+0x124>
				return;
			if (!sendClearDone())
 8002478:	68f8      	ldr	r0, [r7, #12]
 800247a:	f000 f880 	bl	800257e <_ZN12W25Qxx_Flash13sendClearDoneEv>
 800247e:	4603      	mov	r3, r0
 8002480:	f083 0301 	eor.w	r3, r3, #1
 8002484:	b2db      	uxtb	r3, r3
 8002486:	2b00      	cmp	r3, #0
 8002488:	d019      	beq.n	80024be <_ZN12W25Qxx_Flash14nextStateLogicE10FlashStatey+0x106>
				return;
 800248a:	e02c      	b.n	80024e6 <_ZN12W25Qxx_Flash14nextStateLogicE10FlashStatey+0x12e>

			break;
		case FlashState::LOGGING:
			if (state != FlashState::READY)
 800248c:	68fb      	ldr	r3, [r7, #12]
 800248e:	689b      	ldr	r3, [r3, #8]
 8002490:	2b02      	cmp	r3, #2
 8002492:	d125      	bne.n	80024e0 <_ZN12W25Qxx_Flash14nextStateLogicE10FlashStatey+0x128>
			{
				return;
			}
			STRHAL_UART_Write_Blocking(STRHAL_UART_DEBUG, "LOGGING!\n", 9, 100);
 8002494:	2364      	movs	r3, #100	; 0x64
 8002496:	2209      	movs	r2, #9
 8002498:	4916      	ldr	r1, [pc, #88]	; (80024f4 <_ZN12W25Qxx_Flash14nextStateLogicE10FlashStatey+0x13c>)
 800249a:	2002      	movs	r0, #2
 800249c:	f006 f9da 	bl	8008854 <STRHAL_UART_Write_Blocking>
			break;
 80024a0:	e00e      	b.n	80024c0 <_ZN12W25Qxx_Flash14nextStateLogicE10FlashStatey+0x108>
		case FlashState::FULL:
			if (!sendFull())
 80024a2:	68f8      	ldr	r0, [r7, #12]
 80024a4:	f000 f893 	bl	80025ce <_ZN12W25Qxx_Flash8sendFullEv>
 80024a8:	4603      	mov	r3, r0
 80024aa:	f083 0301 	eor.w	r3, r3, #1
 80024ae:	b2db      	uxtb	r3, r3
 80024b0:	2b00      	cmp	r3, #0
 80024b2:	d117      	bne.n	80024e4 <_ZN12W25Qxx_Flash14nextStateLogicE10FlashStatey+0x12c>
				return;
			break;
 80024b4:	e004      	b.n	80024c0 <_ZN12W25Qxx_Flash14nextStateLogicE10FlashStatey+0x108>
		default:
			break;
 80024b6:	bf00      	nop
 80024b8:	e002      	b.n	80024c0 <_ZN12W25Qxx_Flash14nextStateLogicE10FlashStatey+0x108>
			break;
 80024ba:	bf00      	nop
 80024bc:	e000      	b.n	80024c0 <_ZN12W25Qxx_Flash14nextStateLogicE10FlashStatey+0x108>
			break;
 80024be:	bf00      	nop
	}
	state = nextState;
 80024c0:	68fb      	ldr	r3, [r7, #12]
 80024c2:	68ba      	ldr	r2, [r7, #8]
 80024c4:	609a      	str	r2, [r3, #8]
	return;
 80024c6:	e00e      	b.n	80024e6 <_ZN12W25Qxx_Flash14nextStateLogicE10FlashStatey+0x12e>
				return;
 80024c8:	bf00      	nop
 80024ca:	e00c      	b.n	80024e6 <_ZN12W25Qxx_Flash14nextStateLogicE10FlashStatey+0x12e>
				return;
 80024cc:	bf00      	nop
 80024ce:	e00a      	b.n	80024e6 <_ZN12W25Qxx_Flash14nextStateLogicE10FlashStatey+0x12e>
				return;
 80024d0:	bf00      	nop
 80024d2:	e008      	b.n	80024e6 <_ZN12W25Qxx_Flash14nextStateLogicE10FlashStatey+0x12e>
				return;
 80024d4:	bf00      	nop
 80024d6:	e006      	b.n	80024e6 <_ZN12W25Qxx_Flash14nextStateLogicE10FlashStatey+0x12e>
				return;
 80024d8:	bf00      	nop
 80024da:	e004      	b.n	80024e6 <_ZN12W25Qxx_Flash14nextStateLogicE10FlashStatey+0x12e>
				return;
 80024dc:	bf00      	nop
 80024de:	e002      	b.n	80024e6 <_ZN12W25Qxx_Flash14nextStateLogicE10FlashStatey+0x12e>
				return;
 80024e0:	bf00      	nop
 80024e2:	e000      	b.n	80024e6 <_ZN12W25Qxx_Flash14nextStateLogicE10FlashStatey+0x12e>
				return;
 80024e4:	bf00      	nop
}
 80024e6:	3710      	adds	r7, #16
 80024e8:	46bd      	mov	sp, r7
 80024ea:	bd80      	pop	{r7, pc}
 80024ec:	08008ec8 	.word	0x08008ec8
 80024f0:	08008ed4 	.word	0x08008ed4
 80024f4:	08008edc 	.word	0x08008edc

080024f8 <_ZN12W25Qxx_Flash8setStateE10FlashState>:

void W25Qxx_Flash::setState(FlashState nextState)
{
 80024f8:	b480      	push	{r7}
 80024fa:	b083      	sub	sp, #12
 80024fc:	af00      	add	r7, sp, #0
 80024fe:	6078      	str	r0, [r7, #4]
 8002500:	6039      	str	r1, [r7, #0]
	externalNextState = nextState;
 8002502:	687b      	ldr	r3, [r7, #4]
 8002504:	683a      	ldr	r2, [r7, #0]
 8002506:	f8c3 212c 	str.w	r2, [r3, #300]	; 0x12c
}
 800250a:	bf00      	nop
 800250c:	370c      	adds	r7, #12
 800250e:	46bd      	mov	sp, r7
 8002510:	f85d 7b04 	ldr.w	r7, [sp], #4
 8002514:	4770      	bx	lr

08002516 <_ZN12W25Qxx_Flash8getStateEv>:

FlashState W25Qxx_Flash::getState()
{
 8002516:	b480      	push	{r7}
 8002518:	b083      	sub	sp, #12
 800251a:	af00      	add	r7, sp, #0
 800251c:	6078      	str	r0, [r7, #4]
	return state;
 800251e:	687b      	ldr	r3, [r7, #4]
 8002520:	689b      	ldr	r3, [r3, #8]
}
 8002522:	4618      	mov	r0, r3
 8002524:	370c      	adds	r7, #12
 8002526:	46bd      	mov	sp, r7
 8002528:	f85d 7b04 	ldr.w	r7, [sp], #4
 800252c:	4770      	bx	lr

0800252e <_ZN12W25Qxx_Flash18sendClearInitiatedEv>:

bool W25Qxx_Flash::sendClearInitiated()
{
 800252e:	b580      	push	{r7, lr}
 8002530:	b094      	sub	sp, #80	; 0x50
 8002532:	af00      	add	r7, sp, #0
 8002534:	6078      	str	r0, [r7, #4]
	Can_MessageData_t msgData =
 8002536:	f107 030c 	add.w	r3, r7, #12
 800253a:	2242      	movs	r2, #66	; 0x42
 800253c:	2100      	movs	r1, #0
 800253e:	4618      	mov	r0, r3
 8002540:	f006 fb94 	bl	8008c6c <memset>
	{ 0 };
	msgData.bit.cmd_id = GENERIC_RES_FLASH_STATUS;
 8002544:	2313      	movs	r3, #19
 8002546:	737b      	strb	r3, [r7, #13]
	msgData.bit.info.channel_id = GENERIC_CHANNEL_ID;
 8002548:	7b3b      	ldrb	r3, [r7, #12]
 800254a:	f043 033f 	orr.w	r3, r3, #63	; 0x3f
 800254e:	733b      	strb	r3, [r7, #12]
	msgData.bit.info.buffer = DIRECT_BUFFER;
 8002550:	7b3b      	ldrb	r3, [r7, #12]
 8002552:	f36f 1387 	bfc	r3, #6, #2
 8002556:	733b      	strb	r3, [r7, #12]
	msgData.bit.data.uint8[0] = INITIATED;
 8002558:	2300      	movs	r3, #0
 800255a:	73bb      	strb	r3, [r7, #14]

	return (can.send(0, (uint8_t*) &msgData, 1 + sizeof(uint32_t)) == 0) ? true : false;
 800255c:	f107 030c 	add.w	r3, r7, #12
 8002560:	2205      	movs	r2, #5
 8002562:	4619      	mov	r1, r3
 8002564:	2000      	movs	r0, #0
 8002566:	f7fe f883 	bl	8000670 <_ZN3Can4sendEmPhh>
 800256a:	4603      	mov	r3, r0
 800256c:	2b00      	cmp	r3, #0
 800256e:	bf0c      	ite	eq
 8002570:	2301      	moveq	r3, #1
 8002572:	2300      	movne	r3, #0
 8002574:	b2db      	uxtb	r3, r3
}
 8002576:	4618      	mov	r0, r3
 8002578:	3750      	adds	r7, #80	; 0x50
 800257a:	46bd      	mov	sp, r7
 800257c:	bd80      	pop	{r7, pc}

0800257e <_ZN12W25Qxx_Flash13sendClearDoneEv>:

bool W25Qxx_Flash::sendClearDone()
{
 800257e:	b580      	push	{r7, lr}
 8002580:	b094      	sub	sp, #80	; 0x50
 8002582:	af00      	add	r7, sp, #0
 8002584:	6078      	str	r0, [r7, #4]
	Can_MessageData_t msgData =
 8002586:	f107 030c 	add.w	r3, r7, #12
 800258a:	2242      	movs	r2, #66	; 0x42
 800258c:	2100      	movs	r1, #0
 800258e:	4618      	mov	r0, r3
 8002590:	f006 fb6c 	bl	8008c6c <memset>
	{ 0 };
	msgData.bit.cmd_id = GENERIC_RES_FLASH_STATUS;
 8002594:	2313      	movs	r3, #19
 8002596:	737b      	strb	r3, [r7, #13]
	msgData.bit.info.channel_id = GENERIC_CHANNEL_ID;
 8002598:	7b3b      	ldrb	r3, [r7, #12]
 800259a:	f043 033f 	orr.w	r3, r3, #63	; 0x3f
 800259e:	733b      	strb	r3, [r7, #12]
	msgData.bit.info.buffer = DIRECT_BUFFER;
 80025a0:	7b3b      	ldrb	r3, [r7, #12]
 80025a2:	f36f 1387 	bfc	r3, #6, #2
 80025a6:	733b      	strb	r3, [r7, #12]
	msgData.bit.data.uint8[0] = COMPLETED;
 80025a8:	2301      	movs	r3, #1
 80025aa:	73bb      	strb	r3, [r7, #14]

	return (can.send(0, (uint8_t*) &msgData, 1 + sizeof(uint32_t)) == 0) ? true : false;
 80025ac:	f107 030c 	add.w	r3, r7, #12
 80025b0:	2205      	movs	r2, #5
 80025b2:	4619      	mov	r1, r3
 80025b4:	2000      	movs	r0, #0
 80025b6:	f7fe f85b 	bl	8000670 <_ZN3Can4sendEmPhh>
 80025ba:	4603      	mov	r3, r0
 80025bc:	2b00      	cmp	r3, #0
 80025be:	bf0c      	ite	eq
 80025c0:	2301      	moveq	r3, #1
 80025c2:	2300      	movne	r3, #0
 80025c4:	b2db      	uxtb	r3, r3
}
 80025c6:	4618      	mov	r0, r3
 80025c8:	3750      	adds	r7, #80	; 0x50
 80025ca:	46bd      	mov	sp, r7
 80025cc:	bd80      	pop	{r7, pc}

080025ce <_ZN12W25Qxx_Flash8sendFullEv>:

bool W25Qxx_Flash::sendFull()
{
 80025ce:	b580      	push	{r7, lr}
 80025d0:	b094      	sub	sp, #80	; 0x50
 80025d2:	af00      	add	r7, sp, #0
 80025d4:	6078      	str	r0, [r7, #4]
	Can_MessageData_t msgData =
 80025d6:	f107 030c 	add.w	r3, r7, #12
 80025da:	2242      	movs	r2, #66	; 0x42
 80025dc:	2100      	movs	r1, #0
 80025de:	4618      	mov	r0, r3
 80025e0:	f006 fb44 	bl	8008c6c <memset>
	{ 0 };
	msgData.bit.cmd_id = GENERIC_RES_FLASH_STATUS;
 80025e4:	2313      	movs	r3, #19
 80025e6:	737b      	strb	r3, [r7, #13]
	msgData.bit.info.channel_id = GENERIC_CHANNEL_ID;
 80025e8:	7b3b      	ldrb	r3, [r7, #12]
 80025ea:	f043 033f 	orr.w	r3, r3, #63	; 0x3f
 80025ee:	733b      	strb	r3, [r7, #12]
	msgData.bit.info.buffer = DIRECT_BUFFER;
 80025f0:	7b3b      	ldrb	r3, [r7, #12]
 80025f2:	f36f 1387 	bfc	r3, #6, #2
 80025f6:	733b      	strb	r3, [r7, #12]
	msgData.bit.data.uint8[0] = FULL;
 80025f8:	2302      	movs	r3, #2
 80025fa:	73bb      	strb	r3, [r7, #14]

	return (can.send(0, (uint8_t*) &msgData, 1 + sizeof(uint32_t)) == 0) ? true : false;
 80025fc:	f107 030c 	add.w	r3, r7, #12
 8002600:	2205      	movs	r2, #5
 8002602:	4619      	mov	r1, r3
 8002604:	2000      	movs	r0, #0
 8002606:	f7fe f833 	bl	8000670 <_ZN3Can4sendEmPhh>
 800260a:	4603      	mov	r3, r0
 800260c:	2b00      	cmp	r3, #0
 800260e:	bf0c      	ite	eq
 8002610:	2301      	moveq	r3, #1
 8002612:	2300      	movne	r3, #0
 8002614:	b2db      	uxtb	r3, r3
}
 8002616:	4618      	mov	r0, r3
 8002618:	3750      	adds	r7, #80	; 0x50
 800261a:	46bd      	mov	sp, r7
 800261c:	bd80      	pop	{r7, pc}

0800261e <_ZN12W25Qxx_Flash6addLogEPhh>:

void W25Qxx_Flash::addLog(uint8_t *data, uint8_t n)
{
 800261e:	b580      	push	{r7, lr}
 8002620:	b084      	sub	sp, #16
 8002622:	af00      	add	r7, sp, #0
 8002624:	60f8      	str	r0, [r7, #12]
 8002626:	60b9      	str	r1, [r7, #8]
 8002628:	4613      	mov	r3, r2
 800262a:	71fb      	strb	r3, [r7, #7]
	if (state != FlashState::LOGGING)
 800262c:	68fb      	ldr	r3, [r7, #12]
 800262e:	689b      	ldr	r3, [r3, #8]
 8002630:	2b03      	cmp	r3, #3
 8002632:	d11d      	bne.n	8002670 <_ZN12W25Qxx_Flash6addLogEPhh+0x52>
		return;
	if (loggingIndex + n >= 256)
 8002634:	68fb      	ldr	r3, [r7, #12]
 8002636:	f893 3230 	ldrb.w	r3, [r3, #560]	; 0x230
 800263a:	461a      	mov	r2, r3
 800263c:	79fb      	ldrb	r3, [r7, #7]
 800263e:	4413      	add	r3, r2
 8002640:	2bff      	cmp	r3, #255	; 0xff
 8002642:	dc17      	bgt.n	8002674 <_ZN12W25Qxx_Flash6addLogEPhh+0x56>
		return;
	memcpy(&loggingBuffer[loggingIndex], data, n);
 8002644:	68fb      	ldr	r3, [r7, #12]
 8002646:	f893 3230 	ldrb.w	r3, [r3, #560]	; 0x230
 800264a:	f503 7398 	add.w	r3, r3, #304	; 0x130
 800264e:	68fa      	ldr	r2, [r7, #12]
 8002650:	4413      	add	r3, r2
 8002652:	79fa      	ldrb	r2, [r7, #7]
 8002654:	68b9      	ldr	r1, [r7, #8]
 8002656:	4618      	mov	r0, r3
 8002658:	f006 fafa 	bl	8008c50 <memcpy>
	loggingIndex += n;
 800265c:	68fb      	ldr	r3, [r7, #12]
 800265e:	f893 2230 	ldrb.w	r2, [r3, #560]	; 0x230
 8002662:	79fb      	ldrb	r3, [r7, #7]
 8002664:	4413      	add	r3, r2
 8002666:	b2da      	uxtb	r2, r3
 8002668:	68fb      	ldr	r3, [r7, #12]
 800266a:	f883 2230 	strb.w	r2, [r3, #560]	; 0x230
 800266e:	e002      	b.n	8002676 <_ZN12W25Qxx_Flash6addLogEPhh+0x58>
		return;
 8002670:	bf00      	nop
 8002672:	e000      	b.n	8002676 <_ZN12W25Qxx_Flash6addLogEPhh+0x58>
		return;
 8002674:	bf00      	nop
}
 8002676:	3710      	adds	r7, #16
 8002678:	46bd      	mov	sp, r7
 800267a:	bd80      	pop	{r7, pc}

0800267c <_ZNK12W25Qxx_Flash9readSREG1ERh>:

bool W25Qxx_Flash::readSREG1(uint8_t &sreg1) const
{
 800267c:	b580      	push	{r7, lr}
 800267e:	b088      	sub	sp, #32
 8002680:	af00      	add	r7, sp, #0
 8002682:	6078      	str	r0, [r7, #4]
 8002684:	6039      	str	r1, [r7, #0]
	STRHAL_QSPI_Command_t cmd;
	cmd.instruction_size = 1;
 8002686:	2301      	movs	r3, #1
 8002688:	737b      	strb	r3, [r7, #13]
	cmd.addr_size = 0;
 800268a:	2300      	movs	r3, #0
 800268c:	753b      	strb	r3, [r7, #20]
	cmd.alt_size = 0;
 800268e:	2300      	movs	r3, #0
 8002690:	757b      	strb	r3, [r7, #21]
	cmd.dummy_size = 0;
 8002692:	2300      	movs	r3, #0
 8002694:	773b      	strb	r3, [r7, #28]

	cmd.instruction = 0x05;
 8002696:	2305      	movs	r3, #5
 8002698:	733b      	strb	r3, [r7, #12]
	if (STRHAL_QSPI_Indirect_Read(&cmd, &sreg1, 1, 100) != 1)
 800269a:	f107 000c 	add.w	r0, r7, #12
 800269e:	2364      	movs	r3, #100	; 0x64
 80026a0:	2201      	movs	r2, #1
 80026a2:	6839      	ldr	r1, [r7, #0]
 80026a4:	f004 fbbc 	bl	8006e20 <STRHAL_QSPI_Indirect_Read>
 80026a8:	4603      	mov	r3, r0
 80026aa:	2b01      	cmp	r3, #1
 80026ac:	bf14      	ite	ne
 80026ae:	2301      	movne	r3, #1
 80026b0:	2300      	moveq	r3, #0
 80026b2:	b2db      	uxtb	r3, r3
 80026b4:	2b00      	cmp	r3, #0
 80026b6:	d001      	beq.n	80026bc <_ZNK12W25Qxx_Flash9readSREG1ERh+0x40>
		return false;
 80026b8:	2300      	movs	r3, #0
 80026ba:	e000      	b.n	80026be <_ZNK12W25Qxx_Flash9readSREG1ERh+0x42>

	return true;
 80026bc:	2301      	movs	r3, #1
}
 80026be:	4618      	mov	r0, r3
 80026c0:	3720      	adds	r7, #32
 80026c2:	46bd      	mov	sp, r7
 80026c4:	bd80      	pop	{r7, pc}

080026c6 <_ZN12W25Qxx_Flash11writeEnableEv>:
{
	return readSREG1(sreg1) && readSREG2(sreg2) && readSREG3(sreg3);
}

bool W25Qxx_Flash::writeEnable()
{
 80026c6:	b580      	push	{r7, lr}
 80026c8:	b088      	sub	sp, #32
 80026ca:	af00      	add	r7, sp, #0
 80026cc:	6078      	str	r0, [r7, #4]
	STRHAL_QSPI_Command_t cmd;
	cmd.instruction = 0x06;
 80026ce:	2306      	movs	r3, #6
 80026d0:	733b      	strb	r3, [r7, #12]
	cmd.instruction_size = 1;
 80026d2:	2301      	movs	r3, #1
 80026d4:	737b      	strb	r3, [r7, #13]
	cmd.addr_size = 0;
 80026d6:	2300      	movs	r3, #0
 80026d8:	753b      	strb	r3, [r7, #20]
	cmd.alt_size = 0;
 80026da:	2300      	movs	r3, #0
 80026dc:	757b      	strb	r3, [r7, #21]
	cmd.dummy_size = 0;
 80026de:	2300      	movs	r3, #0
 80026e0:	773b      	strb	r3, [r7, #28]

	if (waitForSREGFlag(0x01, false, 100) < 0)
 80026e2:	2364      	movs	r3, #100	; 0x64
 80026e4:	2200      	movs	r2, #0
 80026e6:	2101      	movs	r1, #1
 80026e8:	6878      	ldr	r0, [r7, #4]
 80026ea:	f000 fa35 	bl	8002b58 <_ZN12W25Qxx_Flash15waitForSREGFlagEhbt>
 80026ee:	4603      	mov	r3, r0
 80026f0:	0fdb      	lsrs	r3, r3, #31
 80026f2:	b2db      	uxtb	r3, r3
 80026f4:	2b00      	cmp	r3, #0
 80026f6:	d001      	beq.n	80026fc <_ZN12W25Qxx_Flash11writeEnableEv+0x36>
		return false;
 80026f8:	2300      	movs	r3, #0
 80026fa:	e00c      	b.n	8002716 <_ZN12W25Qxx_Flash11writeEnableEv+0x50>

	return STRHAL_QSPI_Indirect_Write(&cmd, nullptr, 0, 100) == 0;
 80026fc:	f107 000c 	add.w	r0, r7, #12
 8002700:	2364      	movs	r3, #100	; 0x64
 8002702:	2200      	movs	r2, #0
 8002704:	2100      	movs	r1, #0
 8002706:	f004 fad1 	bl	8006cac <STRHAL_QSPI_Indirect_Write>
 800270a:	4603      	mov	r3, r0
 800270c:	2b00      	cmp	r3, #0
 800270e:	bf0c      	ite	eq
 8002710:	2301      	moveq	r3, #1
 8002712:	2300      	movne	r3, #0
 8002714:	b2db      	uxtb	r3, r3
}
 8002716:	4618      	mov	r0, r3
 8002718:	3720      	adds	r7, #32
 800271a:	46bd      	mov	sp, r7
 800271c:	bd80      	pop	{r7, pc}

0800271e <_ZN12W25Qxx_Flash10disableWPSEv>:

	return true;
}

bool W25Qxx_Flash::disableWPS()
{
 800271e:	b580      	push	{r7, lr}
 8002720:	b088      	sub	sp, #32
 8002722:	af00      	add	r7, sp, #0
 8002724:	6078      	str	r0, [r7, #4]
	STRHAL_QSPI_Command_t cmd;
	cmd.instruction = 0x11;
 8002726:	2311      	movs	r3, #17
 8002728:	733b      	strb	r3, [r7, #12]
	//cmd.instruction = 0x98;
	cmd.instruction_size = 1;
 800272a:	2301      	movs	r3, #1
 800272c:	737b      	strb	r3, [r7, #13]
	cmd.addr = 0;
 800272e:	2300      	movs	r3, #0
 8002730:	613b      	str	r3, [r7, #16]
	cmd.addr_size = 0;
 8002732:	2300      	movs	r3, #0
 8002734:	753b      	strb	r3, [r7, #20]
	cmd.alt_size = 0;
 8002736:	2300      	movs	r3, #0
 8002738:	757b      	strb	r3, [r7, #21]
	cmd.dummy_size = 0;
 800273a:	2300      	movs	r3, #0
 800273c:	773b      	strb	r3, [r7, #28]

	uint8_t value = 0xFB;
 800273e:	23fb      	movs	r3, #251	; 0xfb
 8002740:	72fb      	strb	r3, [r7, #11]

	if (waitForSREGFlag(0x01, false, 10) < 0)
 8002742:	230a      	movs	r3, #10
 8002744:	2200      	movs	r2, #0
 8002746:	2101      	movs	r1, #1
 8002748:	6878      	ldr	r0, [r7, #4]
 800274a:	f000 fa05 	bl	8002b58 <_ZN12W25Qxx_Flash15waitForSREGFlagEhbt>
 800274e:	4603      	mov	r3, r0
 8002750:	0fdb      	lsrs	r3, r3, #31
 8002752:	b2db      	uxtb	r3, r3
 8002754:	2b00      	cmp	r3, #0
 8002756:	d001      	beq.n	800275c <_ZN12W25Qxx_Flash10disableWPSEv+0x3e>
		return false;
 8002758:	2300      	movs	r3, #0
 800275a:	e01d      	b.n	8002798 <_ZN12W25Qxx_Flash10disableWPSEv+0x7a>

	if (!writeEnable())
 800275c:	6878      	ldr	r0, [r7, #4]
 800275e:	f7ff ffb2 	bl	80026c6 <_ZN12W25Qxx_Flash11writeEnableEv>
 8002762:	4603      	mov	r3, r0
 8002764:	f083 0301 	eor.w	r3, r3, #1
 8002768:	b2db      	uxtb	r3, r3
 800276a:	2b00      	cmp	r3, #0
 800276c:	d001      	beq.n	8002772 <_ZN12W25Qxx_Flash10disableWPSEv+0x54>
		return false;
 800276e:	2300      	movs	r3, #0
 8002770:	e012      	b.n	8002798 <_ZN12W25Qxx_Flash10disableWPSEv+0x7a>

	if (STRHAL_QSPI_Indirect_Write(&cmd, &value, 1, 100) != 1)
 8002772:	f107 010b 	add.w	r1, r7, #11
 8002776:	f107 000c 	add.w	r0, r7, #12
 800277a:	2364      	movs	r3, #100	; 0x64
 800277c:	2201      	movs	r2, #1
 800277e:	f004 fa95 	bl	8006cac <STRHAL_QSPI_Indirect_Write>
 8002782:	4603      	mov	r3, r0
 8002784:	2b01      	cmp	r3, #1
 8002786:	bf14      	ite	ne
 8002788:	2301      	movne	r3, #1
 800278a:	2300      	moveq	r3, #0
 800278c:	b2db      	uxtb	r3, r3
 800278e:	2b00      	cmp	r3, #0
 8002790:	d001      	beq.n	8002796 <_ZN12W25Qxx_Flash10disableWPSEv+0x78>
		return false;
 8002792:	2300      	movs	r3, #0
 8002794:	e000      	b.n	8002798 <_ZN12W25Qxx_Flash10disableWPSEv+0x7a>

	return true;
 8002796:	2301      	movs	r3, #1
}
 8002798:	4618      	mov	r0, r3
 800279a:	3720      	adds	r7, #32
 800279c:	46bd      	mov	sp, r7
 800279e:	bd80      	pop	{r7, pc}

080027a0 <_ZN12W25Qxx_Flash18enter4ByteAddrModeEv>:

bool W25Qxx_Flash::enter4ByteAddrMode()
{
 80027a0:	b580      	push	{r7, lr}
 80027a2:	b088      	sub	sp, #32
 80027a4:	af00      	add	r7, sp, #0
 80027a6:	6078      	str	r0, [r7, #4]
	STRHAL_QSPI_Command_t cmd;
	cmd.instruction = 0xB7;
 80027a8:	23b7      	movs	r3, #183	; 0xb7
 80027aa:	733b      	strb	r3, [r7, #12]
	cmd.instruction_size = 1;
 80027ac:	2301      	movs	r3, #1
 80027ae:	737b      	strb	r3, [r7, #13]
	cmd.addr_size = 0;
 80027b0:	2300      	movs	r3, #0
 80027b2:	753b      	strb	r3, [r7, #20]
	cmd.addr = 0x000000;
 80027b4:	2300      	movs	r3, #0
 80027b6:	613b      	str	r3, [r7, #16]
	cmd.alt_size = 0;
 80027b8:	2300      	movs	r3, #0
 80027ba:	757b      	strb	r3, [r7, #21]
	cmd.dummy_size = 0;
 80027bc:	2300      	movs	r3, #0
 80027be:	773b      	strb	r3, [r7, #28]

	if (STRHAL_QSPI_Indirect_Write(&cmd, nullptr, 0, 100) != 0)
 80027c0:	f107 000c 	add.w	r0, r7, #12
 80027c4:	2364      	movs	r3, #100	; 0x64
 80027c6:	2200      	movs	r2, #0
 80027c8:	2100      	movs	r1, #0
 80027ca:	f004 fa6f 	bl	8006cac <STRHAL_QSPI_Indirect_Write>
 80027ce:	4603      	mov	r3, r0
 80027d0:	2b00      	cmp	r3, #0
 80027d2:	bf14      	ite	ne
 80027d4:	2301      	movne	r3, #1
 80027d6:	2300      	moveq	r3, #0
 80027d8:	b2db      	uxtb	r3, r3
 80027da:	2b00      	cmp	r3, #0
 80027dc:	d001      	beq.n	80027e2 <_ZN12W25Qxx_Flash18enter4ByteAddrModeEv+0x42>
		return false;
 80027de:	2300      	movs	r3, #0
 80027e0:	e000      	b.n	80027e4 <_ZN12W25Qxx_Flash18enter4ByteAddrModeEv+0x44>

	return true;
 80027e2:	2301      	movs	r3, #1
}
 80027e4:	4618      	mov	r0, r3
 80027e6:	3720      	adds	r7, #32
 80027e8:	46bd      	mov	sp, r7
 80027ea:	bd80      	pop	{r7, pc}

080027ec <_ZN12W25Qxx_Flash13writeNextPageEPKhm>:

	return true;
}

uint32_t W25Qxx_Flash::writeNextPage(const uint8_t *data, uint32_t n)
{
 80027ec:	b580      	push	{r7, lr}
 80027ee:	b086      	sub	sp, #24
 80027f0:	af00      	add	r7, sp, #0
 80027f2:	60f8      	str	r0, [r7, #12]
 80027f4:	60b9      	str	r1, [r7, #8]
 80027f6:	607a      	str	r2, [r7, #4]
	if (sectorCount == 8192 - 1)
 80027f8:	68fb      	ldr	r3, [r7, #12]
 80027fa:	691b      	ldr	r3, [r3, #16]
 80027fc:	f641 72ff 	movw	r2, #8191	; 0x1fff
 8002800:	4293      	cmp	r3, r2
 8002802:	d101      	bne.n	8002808 <_ZN12W25Qxx_Flash13writeNextPageEPKhm+0x1c>
	{
		return 0;
 8002804:	2300      	movs	r3, #0
 8002806:	e020      	b.n	800284a <_ZN12W25Qxx_Flash13writeNextPageEPKhm+0x5e>
	 return 0;
	 if(!sectorErase(sectorCount))
	 return 0;
	 }*/

	uint32_t numWritten = write((pageCount << 8) | (sectorCount << 12), data, n);
 8002808:	68fb      	ldr	r3, [r7, #12]
 800280a:	68db      	ldr	r3, [r3, #12]
 800280c:	021a      	lsls	r2, r3, #8
 800280e:	68fb      	ldr	r3, [r7, #12]
 8002810:	691b      	ldr	r3, [r3, #16]
 8002812:	031b      	lsls	r3, r3, #12
 8002814:	ea42 0103 	orr.w	r1, r2, r3
 8002818:	687b      	ldr	r3, [r7, #4]
 800281a:	68ba      	ldr	r2, [r7, #8]
 800281c:	68f8      	ldr	r0, [r7, #12]
 800281e:	f000 f818 	bl	8002852 <_ZN12W25Qxx_Flash5writeEmPKhm>
 8002822:	6178      	str	r0, [r7, #20]
	(void) numWritten;
	/*if(numWritten == n)
	 return 0;*/

	if (pageCount == 15)
 8002824:	68fb      	ldr	r3, [r7, #12]
 8002826:	68db      	ldr	r3, [r3, #12]
 8002828:	2b0f      	cmp	r3, #15
 800282a:	d108      	bne.n	800283e <_ZN12W25Qxx_Flash13writeNextPageEPKhm+0x52>
	{
		pageCount = 0;
 800282c:	68fb      	ldr	r3, [r7, #12]
 800282e:	2200      	movs	r2, #0
 8002830:	60da      	str	r2, [r3, #12]
		sectorCount++;
 8002832:	68fb      	ldr	r3, [r7, #12]
 8002834:	691b      	ldr	r3, [r3, #16]
 8002836:	1c5a      	adds	r2, r3, #1
 8002838:	68fb      	ldr	r3, [r7, #12]
 800283a:	611a      	str	r2, [r3, #16]
 800283c:	e004      	b.n	8002848 <_ZN12W25Qxx_Flash13writeNextPageEPKhm+0x5c>
	}
	else
	{
		pageCount++;
 800283e:	68fb      	ldr	r3, [r7, #12]
 8002840:	68db      	ldr	r3, [r3, #12]
 8002842:	1c5a      	adds	r2, r3, #1
 8002844:	68fb      	ldr	r3, [r7, #12]
 8002846:	60da      	str	r2, [r3, #12]
	}

	return n;
 8002848:	687b      	ldr	r3, [r7, #4]
}
 800284a:	4618      	mov	r0, r3
 800284c:	3718      	adds	r7, #24
 800284e:	46bd      	mov	sp, r7
 8002850:	bd80      	pop	{r7, pc}

08002852 <_ZN12W25Qxx_Flash5writeEmPKhm>:

uint32_t W25Qxx_Flash::write(uint32_t address, const uint8_t *data, uint32_t n)
{
 8002852:	b580      	push	{r7, lr}
 8002854:	b08a      	sub	sp, #40	; 0x28
 8002856:	af00      	add	r7, sp, #0
 8002858:	60f8      	str	r0, [r7, #12]
 800285a:	60b9      	str	r1, [r7, #8]
 800285c:	607a      	str	r2, [r7, #4]
 800285e:	603b      	str	r3, [r7, #0]
	STRHAL_QSPI_Command_t cmd;
	cmd.instruction = 0x12;
 8002860:	2312      	movs	r3, #18
 8002862:	753b      	strb	r3, [r7, #20]
	cmd.instruction_size = 1;
 8002864:	2301      	movs	r3, #1
 8002866:	757b      	strb	r3, [r7, #21]
	cmd.addr = address;
 8002868:	68bb      	ldr	r3, [r7, #8]
 800286a:	61bb      	str	r3, [r7, #24]
	cmd.addr_size = 4;
 800286c:	2304      	movs	r3, #4
 800286e:	773b      	strb	r3, [r7, #28]
	cmd.alt_size = 0;
 8002870:	2300      	movs	r3, #0
 8002872:	777b      	strb	r3, [r7, #29]
	cmd.dummy_size = 0;
 8002874:	2300      	movs	r3, #0
 8002876:	f887 3024 	strb.w	r3, [r7, #36]	; 0x24

	if (waitForSREGFlag(0x01, false, 100) < 0)
 800287a:	2364      	movs	r3, #100	; 0x64
 800287c:	2200      	movs	r2, #0
 800287e:	2101      	movs	r1, #1
 8002880:	68f8      	ldr	r0, [r7, #12]
 8002882:	f000 f969 	bl	8002b58 <_ZN12W25Qxx_Flash15waitForSREGFlagEhbt>
 8002886:	4603      	mov	r3, r0
 8002888:	0fdb      	lsrs	r3, r3, #31
 800288a:	b2db      	uxtb	r3, r3
 800288c:	2b00      	cmp	r3, #0
 800288e:	d001      	beq.n	8002894 <_ZN12W25Qxx_Flash5writeEmPKhm+0x42>
		return 0;
 8002890:	2300      	movs	r3, #0
 8002892:	e024      	b.n	80028de <_ZN12W25Qxx_Flash5writeEmPKhm+0x8c>

	if (!writeEnable())
 8002894:	68f8      	ldr	r0, [r7, #12]
 8002896:	f7ff ff16 	bl	80026c6 <_ZN12W25Qxx_Flash11writeEnableEv>
 800289a:	4603      	mov	r3, r0
 800289c:	f083 0301 	eor.w	r3, r3, #1
 80028a0:	b2db      	uxtb	r3, r3
 80028a2:	2b00      	cmp	r3, #0
 80028a4:	d001      	beq.n	80028aa <_ZN12W25Qxx_Flash5writeEmPKhm+0x58>
		return 0;
 80028a6:	2300      	movs	r3, #0
 80028a8:	e019      	b.n	80028de <_ZN12W25Qxx_Flash5writeEmPKhm+0x8c>

	if (n > PAGE_SIZE)
 80028aa:	683b      	ldr	r3, [r7, #0]
 80028ac:	f5b3 7f80 	cmp.w	r3, #256	; 0x100
 80028b0:	d902      	bls.n	80028b8 <_ZN12W25Qxx_Flash5writeEmPKhm+0x66>
		n = PAGE_SIZE;
 80028b2:	f44f 7380 	mov.w	r3, #256	; 0x100
 80028b6:	603b      	str	r3, [r7, #0]

	if (STRHAL_QSPI_Indirect_Write(&cmd, data, n, 100) != n)
 80028b8:	f107 0014 	add.w	r0, r7, #20
 80028bc:	2364      	movs	r3, #100	; 0x64
 80028be:	683a      	ldr	r2, [r7, #0]
 80028c0:	6879      	ldr	r1, [r7, #4]
 80028c2:	f004 f9f3 	bl	8006cac <STRHAL_QSPI_Indirect_Write>
 80028c6:	4602      	mov	r2, r0
 80028c8:	683b      	ldr	r3, [r7, #0]
 80028ca:	4293      	cmp	r3, r2
 80028cc:	bf14      	ite	ne
 80028ce:	2301      	movne	r3, #1
 80028d0:	2300      	moveq	r3, #0
 80028d2:	b2db      	uxtb	r3, r3
 80028d4:	2b00      	cmp	r3, #0
 80028d6:	d001      	beq.n	80028dc <_ZN12W25Qxx_Flash5writeEmPKhm+0x8a>
		return 0;
 80028d8:	2300      	movs	r3, #0
 80028da:	e000      	b.n	80028de <_ZN12W25Qxx_Flash5writeEmPKhm+0x8c>

	return n;
 80028dc:	683b      	ldr	r3, [r7, #0]
}
 80028de:	4618      	mov	r0, r3
 80028e0:	3728      	adds	r7, #40	; 0x28
 80028e2:	46bd      	mov	sp, r7
 80028e4:	bd80      	pop	{r7, pc}

080028e6 <_ZN12W25Qxx_Flash4readEmPhm>:

uint32_t W25Qxx_Flash::read(uint32_t address, uint8_t *data, uint32_t n)
{
 80028e6:	b5b0      	push	{r4, r5, r7, lr}
 80028e8:	b08a      	sub	sp, #40	; 0x28
 80028ea:	af00      	add	r7, sp, #0
 80028ec:	60f8      	str	r0, [r7, #12]
 80028ee:	60b9      	str	r1, [r7, #8]
 80028f0:	607a      	str	r2, [r7, #4]
 80028f2:	603b      	str	r3, [r7, #0]
	STRHAL_QSPI_Command_t cmd;
	cmd.instruction = 0x13;
 80028f4:	2313      	movs	r3, #19
 80028f6:	753b      	strb	r3, [r7, #20]
	cmd.instruction_size = 1;
 80028f8:	2301      	movs	r3, #1
 80028fa:	757b      	strb	r3, [r7, #21]
	cmd.addr = address;
 80028fc:	68bb      	ldr	r3, [r7, #8]
 80028fe:	61bb      	str	r3, [r7, #24]
	cmd.addr_size = 4;
 8002900:	2304      	movs	r3, #4
 8002902:	773b      	strb	r3, [r7, #28]
	cmd.alt_size = 0;
 8002904:	2300      	movs	r3, #0
 8002906:	777b      	strb	r3, [r7, #29]
	cmd.dummy_size = 0;
 8002908:	2300      	movs	r3, #0
 800290a:	f887 3024 	strb.w	r3, [r7, #36]	; 0x24

	if ((uint64_t) address + n > (uint64_t) (1 << SIZE_2N))
 800290e:	68bb      	ldr	r3, [r7, #8]
 8002910:	4618      	mov	r0, r3
 8002912:	f04f 0100 	mov.w	r1, #0
 8002916:	683b      	ldr	r3, [r7, #0]
 8002918:	461a      	mov	r2, r3
 800291a:	f04f 0300 	mov.w	r3, #0
 800291e:	1884      	adds	r4, r0, r2
 8002920:	eb41 0503 	adc.w	r5, r1, r3
 8002924:	f04f 4200 	mov.w	r2, #2147483648	; 0x80000000
 8002928:	f04f 33ff 	mov.w	r3, #4294967295	; 0xffffffff
 800292c:	42ab      	cmp	r3, r5
 800292e:	bf08      	it	eq
 8002930:	42a2      	cmpeq	r2, r4
 8002932:	d202      	bcs.n	800293a <_ZN12W25Qxx_Flash4readEmPhm+0x54>
		n = 0xFFFFFFFF - address;
 8002934:	68bb      	ldr	r3, [r7, #8]
 8002936:	43db      	mvns	r3, r3
 8002938:	603b      	str	r3, [r7, #0]

	if (waitForSREGFlag(0x01, false, 100) < 0)
 800293a:	2364      	movs	r3, #100	; 0x64
 800293c:	2200      	movs	r2, #0
 800293e:	2101      	movs	r1, #1
 8002940:	68f8      	ldr	r0, [r7, #12]
 8002942:	f000 f909 	bl	8002b58 <_ZN12W25Qxx_Flash15waitForSREGFlagEhbt>
 8002946:	4603      	mov	r3, r0
 8002948:	0fdb      	lsrs	r3, r3, #31
 800294a:	b2db      	uxtb	r3, r3
 800294c:	2b00      	cmp	r3, #0
 800294e:	d001      	beq.n	8002954 <_ZN12W25Qxx_Flash4readEmPhm+0x6e>
		return 0;
 8002950:	2300      	movs	r3, #0
 8002952:	e013      	b.n	800297c <_ZN12W25Qxx_Flash4readEmPhm+0x96>

	if (STRHAL_QSPI_Indirect_Read(&cmd, data, n, 1000) != n)
 8002954:	f107 0014 	add.w	r0, r7, #20
 8002958:	f44f 737a 	mov.w	r3, #1000	; 0x3e8
 800295c:	683a      	ldr	r2, [r7, #0]
 800295e:	6879      	ldr	r1, [r7, #4]
 8002960:	f004 fa5e 	bl	8006e20 <STRHAL_QSPI_Indirect_Read>
 8002964:	4602      	mov	r2, r0
 8002966:	683b      	ldr	r3, [r7, #0]
 8002968:	4293      	cmp	r3, r2
 800296a:	bf14      	ite	ne
 800296c:	2301      	movne	r3, #1
 800296e:	2300      	moveq	r3, #0
 8002970:	b2db      	uxtb	r3, r3
 8002972:	2b00      	cmp	r3, #0
 8002974:	d001      	beq.n	800297a <_ZN12W25Qxx_Flash4readEmPhm+0x94>
		return 0;
 8002976:	2300      	movs	r3, #0
 8002978:	e000      	b.n	800297c <_ZN12W25Qxx_Flash4readEmPhm+0x96>

	return n;
 800297a:	683b      	ldr	r3, [r7, #0]
}
 800297c:	4618      	mov	r0, r3
 800297e:	3728      	adds	r7, #40	; 0x28
 8002980:	46bd      	mov	sp, r7
 8002982:	bdb0      	pop	{r4, r5, r7, pc}

08002984 <_ZN12W25Qxx_Flash15writeTempConfigEv>:

	return write(CONFIG_BASE, config.bytes, sizeof(config.bytes)) == sizeof(config.bytes);
}

bool W25Qxx_Flash::writeTempConfig()
{
 8002984:	b580      	push	{r7, lr}
 8002986:	b082      	sub	sp, #8
 8002988:	af00      	add	r7, sp, #0
 800298a:	6078      	str	r0, [r7, #4]
	return write(CONFIG_BASE, config.bytes, sizeof(config.bytes)) == sizeof(config.bytes);
 800298c:	687b      	ldr	r3, [r7, #4]
 800298e:	f103 0214 	add.w	r2, r3, #20
 8002992:	f44f 7380 	mov.w	r3, #256	; 0x100
 8002996:	2100      	movs	r1, #0
 8002998:	6878      	ldr	r0, [r7, #4]
 800299a:	f7ff ff5a 	bl	8002852 <_ZN12W25Qxx_Flash5writeEmPKhm>
 800299e:	4603      	mov	r3, r0
 80029a0:	f5b3 7f80 	cmp.w	r3, #256	; 0x100
 80029a4:	bf0c      	ite	eq
 80029a6:	2301      	moveq	r3, #1
 80029a8:	2300      	movne	r3, #0
 80029aa:	b2db      	uxtb	r3, r3
}
 80029ac:	4618      	mov	r0, r3
 80029ae:	3708      	adds	r7, #8
 80029b0:	46bd      	mov	sp, r7
 80029b2:	bd80      	pop	{r7, pc}

080029b4 <_ZN12W25Qxx_Flash10readConfigEv>:

	return write(CONFIG_BASE, config.bytes, sizeof(config.bytes)) == sizeof(config.bytes);
}

bool W25Qxx_Flash::readConfig()
{
 80029b4:	b580      	push	{r7, lr}
 80029b6:	b082      	sub	sp, #8
 80029b8:	af00      	add	r7, sp, #0
 80029ba:	6078      	str	r0, [r7, #4]
	return read(CONFIG_BASE, config.bytes, sizeof(config.bytes)) == sizeof(config.bytes);
 80029bc:	687b      	ldr	r3, [r7, #4]
 80029be:	f103 0214 	add.w	r2, r3, #20
 80029c2:	f44f 7380 	mov.w	r3, #256	; 0x100
 80029c6:	2100      	movs	r1, #0
 80029c8:	6878      	ldr	r0, [r7, #4]
 80029ca:	f7ff ff8c 	bl	80028e6 <_ZN12W25Qxx_Flash4readEmPhm>
 80029ce:	4603      	mov	r3, r0
 80029d0:	f5b3 7f80 	cmp.w	r3, #256	; 0x100
 80029d4:	bf0c      	ite	eq
 80029d6:	2301      	moveq	r3, #1
 80029d8:	2300      	movne	r3, #0
 80029da:	b2db      	uxtb	r3, r3
}
 80029dc:	4618      	mov	r0, r3
 80029de:	3708      	adds	r7, #8
 80029e0:	46bd      	mov	sp, r7
 80029e2:	bd80      	pop	{r7, pc}

080029e4 <_ZN12W25Qxx_Flash11configResetEv>:
	return sectorErase(CONFIG_BASE >> 12);
}

// Resets config, i.e. sets all config registers to 0x000
bool W25Qxx_Flash::configReset()
{
 80029e4:	b580      	push	{r7, lr}
 80029e6:	b084      	sub	sp, #16
 80029e8:	af00      	add	r7, sp, #0
 80029ea:	6078      	str	r0, [r7, #4]
	for (int i = 0; i < PAGE_SIZE / 4; i++)
 80029ec:	2300      	movs	r3, #0
 80029ee:	60fb      	str	r3, [r7, #12]
 80029f0:	68fb      	ldr	r3, [r7, #12]
 80029f2:	2b3f      	cmp	r3, #63	; 0x3f
 80029f4:	dc0a      	bgt.n	8002a0c <_ZN12W25Qxx_Flash11configResetEv+0x28>
	{
		config.reg[i] = 0;
 80029f6:	687a      	ldr	r2, [r7, #4]
 80029f8:	68fb      	ldr	r3, [r7, #12]
 80029fa:	3304      	adds	r3, #4
 80029fc:	009b      	lsls	r3, r3, #2
 80029fe:	4413      	add	r3, r2
 8002a00:	2200      	movs	r2, #0
 8002a02:	605a      	str	r2, [r3, #4]
	for (int i = 0; i < PAGE_SIZE / 4; i++)
 8002a04:	68fb      	ldr	r3, [r7, #12]
 8002a06:	3301      	adds	r3, #1
 8002a08:	60fb      	str	r3, [r7, #12]
 8002a0a:	e7f1      	b.n	80029f0 <_ZN12W25Qxx_Flash11configResetEv+0xc>
	}
	return sectorErase(CONFIG_BASE >> 12) && write(CONFIG_BASE, config.bytes, sizeof(config.bytes)) == sizeof(config.bytes);
 8002a0c:	2100      	movs	r1, #0
 8002a0e:	6878      	ldr	r0, [r7, #4]
 8002a10:	f000 f817 	bl	8002a42 <_ZN12W25Qxx_Flash11sectorEraseEm>
 8002a14:	4603      	mov	r3, r0
 8002a16:	2b00      	cmp	r3, #0
 8002a18:	d00e      	beq.n	8002a38 <_ZN12W25Qxx_Flash11configResetEv+0x54>
 8002a1a:	687b      	ldr	r3, [r7, #4]
 8002a1c:	f103 0214 	add.w	r2, r3, #20
 8002a20:	f44f 7380 	mov.w	r3, #256	; 0x100
 8002a24:	2100      	movs	r1, #0
 8002a26:	6878      	ldr	r0, [r7, #4]
 8002a28:	f7ff ff13 	bl	8002852 <_ZN12W25Qxx_Flash5writeEmPKhm>
 8002a2c:	4603      	mov	r3, r0
 8002a2e:	f5b3 7f80 	cmp.w	r3, #256	; 0x100
 8002a32:	d101      	bne.n	8002a38 <_ZN12W25Qxx_Flash11configResetEv+0x54>
 8002a34:	2301      	movs	r3, #1
 8002a36:	e000      	b.n	8002a3a <_ZN12W25Qxx_Flash11configResetEv+0x56>
 8002a38:	2300      	movs	r3, #0
}
 8002a3a:	4618      	mov	r0, r3
 8002a3c:	3710      	adds	r7, #16
 8002a3e:	46bd      	mov	sp, r7
 8002a40:	bd80      	pop	{r7, pc}

08002a42 <_ZN12W25Qxx_Flash11sectorEraseEm>:

bool W25Qxx_Flash::sectorErase(uint32_t sector)
{
 8002a42:	b580      	push	{r7, lr}
 8002a44:	b088      	sub	sp, #32
 8002a46:	af00      	add	r7, sp, #0
 8002a48:	6078      	str	r0, [r7, #4]
 8002a4a:	6039      	str	r1, [r7, #0]
	STRHAL_QSPI_Command_t cmd;
	cmd.instruction = 0x21;
 8002a4c:	2321      	movs	r3, #33	; 0x21
 8002a4e:	733b      	strb	r3, [r7, #12]
	cmd.instruction_size = 1;
 8002a50:	2301      	movs	r3, #1
 8002a52:	737b      	strb	r3, [r7, #13]
	cmd.addr_size = 4;
 8002a54:	2304      	movs	r3, #4
 8002a56:	753b      	strb	r3, [r7, #20]
	cmd.addr = sector << 12;
 8002a58:	683b      	ldr	r3, [r7, #0]
 8002a5a:	031b      	lsls	r3, r3, #12
 8002a5c:	613b      	str	r3, [r7, #16]
	cmd.alt_size = 0;
 8002a5e:	2300      	movs	r3, #0
 8002a60:	757b      	strb	r3, [r7, #21]
	cmd.dummy_size = 0;
 8002a62:	2300      	movs	r3, #0
 8002a64:	773b      	strb	r3, [r7, #28]

	if (waitForSREGFlag(0x01, false, 100) < 0)
 8002a66:	2364      	movs	r3, #100	; 0x64
 8002a68:	2200      	movs	r2, #0
 8002a6a:	2101      	movs	r1, #1
 8002a6c:	6878      	ldr	r0, [r7, #4]
 8002a6e:	f000 f873 	bl	8002b58 <_ZN12W25Qxx_Flash15waitForSREGFlagEhbt>
 8002a72:	4603      	mov	r3, r0
 8002a74:	0fdb      	lsrs	r3, r3, #31
 8002a76:	b2db      	uxtb	r3, r3
 8002a78:	2b00      	cmp	r3, #0
 8002a7a:	d001      	beq.n	8002a80 <_ZN12W25Qxx_Flash11sectorEraseEm+0x3e>
		return false;
 8002a7c:	2300      	movs	r3, #0
 8002a7e:	e029      	b.n	8002ad4 <_ZN12W25Qxx_Flash11sectorEraseEm+0x92>

	if (!writeEnable())
 8002a80:	6878      	ldr	r0, [r7, #4]
 8002a82:	f7ff fe20 	bl	80026c6 <_ZN12W25Qxx_Flash11writeEnableEv>
 8002a86:	4603      	mov	r3, r0
 8002a88:	f083 0301 	eor.w	r3, r3, #1
 8002a8c:	b2db      	uxtb	r3, r3
 8002a8e:	2b00      	cmp	r3, #0
 8002a90:	d001      	beq.n	8002a96 <_ZN12W25Qxx_Flash11sectorEraseEm+0x54>
		return false;
 8002a92:	2300      	movs	r3, #0
 8002a94:	e01e      	b.n	8002ad4 <_ZN12W25Qxx_Flash11sectorEraseEm+0x92>

	if (STRHAL_QSPI_Indirect_Write(&cmd, nullptr, 0, 100) != 0)
 8002a96:	f107 000c 	add.w	r0, r7, #12
 8002a9a:	2364      	movs	r3, #100	; 0x64
 8002a9c:	2200      	movs	r2, #0
 8002a9e:	2100      	movs	r1, #0
 8002aa0:	f004 f904 	bl	8006cac <STRHAL_QSPI_Indirect_Write>
 8002aa4:	4603      	mov	r3, r0
 8002aa6:	2b00      	cmp	r3, #0
 8002aa8:	bf14      	ite	ne
 8002aaa:	2301      	movne	r3, #1
 8002aac:	2300      	moveq	r3, #0
 8002aae:	b2db      	uxtb	r3, r3
 8002ab0:	2b00      	cmp	r3, #0
 8002ab2:	d001      	beq.n	8002ab8 <_ZN12W25Qxx_Flash11sectorEraseEm+0x76>
		return false;
 8002ab4:	2300      	movs	r3, #0
 8002ab6:	e00d      	b.n	8002ad4 <_ZN12W25Qxx_Flash11sectorEraseEm+0x92>

	if (waitForSREGFlag(0x01, false, 100) < 0)
 8002ab8:	2364      	movs	r3, #100	; 0x64
 8002aba:	2200      	movs	r2, #0
 8002abc:	2101      	movs	r1, #1
 8002abe:	6878      	ldr	r0, [r7, #4]
 8002ac0:	f000 f84a 	bl	8002b58 <_ZN12W25Qxx_Flash15waitForSREGFlagEhbt>
 8002ac4:	4603      	mov	r3, r0
 8002ac6:	0fdb      	lsrs	r3, r3, #31
 8002ac8:	b2db      	uxtb	r3, r3
 8002aca:	2b00      	cmp	r3, #0
 8002acc:	d001      	beq.n	8002ad2 <_ZN12W25Qxx_Flash11sectorEraseEm+0x90>
		return false;
 8002ace:	2300      	movs	r3, #0
 8002ad0:	e000      	b.n	8002ad4 <_ZN12W25Qxx_Flash11sectorEraseEm+0x92>

	return true;
 8002ad2:	2301      	movs	r3, #1
}
 8002ad4:	4618      	mov	r0, r3
 8002ad6:	3720      	adds	r7, #32
 8002ad8:	46bd      	mov	sp, r7
 8002ada:	bd80      	pop	{r7, pc}

08002adc <_ZN12W25Qxx_Flash9chipEraseEv>:

bool W25Qxx_Flash::chipErase()
{
 8002adc:	b580      	push	{r7, lr}
 8002ade:	b088      	sub	sp, #32
 8002ae0:	af00      	add	r7, sp, #0
 8002ae2:	6078      	str	r0, [r7, #4]
	STRHAL_QSPI_Command_t cmd;
	cmd.instruction = 0xC7;
 8002ae4:	23c7      	movs	r3, #199	; 0xc7
 8002ae6:	733b      	strb	r3, [r7, #12]
	cmd.instruction_size = 1;
 8002ae8:	2301      	movs	r3, #1
 8002aea:	737b      	strb	r3, [r7, #13]
	cmd.addr_size = 0;
 8002aec:	2300      	movs	r3, #0
 8002aee:	753b      	strb	r3, [r7, #20]
	cmd.addr = 0;
 8002af0:	2300      	movs	r3, #0
 8002af2:	613b      	str	r3, [r7, #16]
	cmd.alt_size = 0;
 8002af4:	2300      	movs	r3, #0
 8002af6:	757b      	strb	r3, [r7, #21]
	cmd.dummy_size = 0;
 8002af8:	2300      	movs	r3, #0
 8002afa:	773b      	strb	r3, [r7, #28]

	if (waitForSREGFlag(0x01, false, 100) < 0)
 8002afc:	2364      	movs	r3, #100	; 0x64
 8002afe:	2200      	movs	r2, #0
 8002b00:	2101      	movs	r1, #1
 8002b02:	6878      	ldr	r0, [r7, #4]
 8002b04:	f000 f828 	bl	8002b58 <_ZN12W25Qxx_Flash15waitForSREGFlagEhbt>
 8002b08:	4603      	mov	r3, r0
 8002b0a:	0fdb      	lsrs	r3, r3, #31
 8002b0c:	b2db      	uxtb	r3, r3
 8002b0e:	2b00      	cmp	r3, #0
 8002b10:	d001      	beq.n	8002b16 <_ZN12W25Qxx_Flash9chipEraseEv+0x3a>
		return false;
 8002b12:	2300      	movs	r3, #0
 8002b14:	e01c      	b.n	8002b50 <_ZN12W25Qxx_Flash9chipEraseEv+0x74>

	if (!writeEnable())
 8002b16:	6878      	ldr	r0, [r7, #4]
 8002b18:	f7ff fdd5 	bl	80026c6 <_ZN12W25Qxx_Flash11writeEnableEv>
 8002b1c:	4603      	mov	r3, r0
 8002b1e:	f083 0301 	eor.w	r3, r3, #1
 8002b22:	b2db      	uxtb	r3, r3
 8002b24:	2b00      	cmp	r3, #0
 8002b26:	d001      	beq.n	8002b2c <_ZN12W25Qxx_Flash9chipEraseEv+0x50>
		return false;
 8002b28:	2300      	movs	r3, #0
 8002b2a:	e011      	b.n	8002b50 <_ZN12W25Qxx_Flash9chipEraseEv+0x74>

	if (STRHAL_QSPI_Indirect_Write(&cmd, nullptr, 0, 100) != 0)
 8002b2c:	f107 000c 	add.w	r0, r7, #12
 8002b30:	2364      	movs	r3, #100	; 0x64
 8002b32:	2200      	movs	r2, #0
 8002b34:	2100      	movs	r1, #0
 8002b36:	f004 f8b9 	bl	8006cac <STRHAL_QSPI_Indirect_Write>
 8002b3a:	4603      	mov	r3, r0
 8002b3c:	2b00      	cmp	r3, #0
 8002b3e:	bf14      	ite	ne
 8002b40:	2301      	movne	r3, #1
 8002b42:	2300      	moveq	r3, #0
 8002b44:	b2db      	uxtb	r3, r3
 8002b46:	2b00      	cmp	r3, #0
 8002b48:	d001      	beq.n	8002b4e <_ZN12W25Qxx_Flash9chipEraseEv+0x72>
		return false;
 8002b4a:	2300      	movs	r3, #0
 8002b4c:	e000      	b.n	8002b50 <_ZN12W25Qxx_Flash9chipEraseEv+0x74>

	//if(waitForSREGFlag(0x01, false, 100) < 0)
	//return false;

	return true;
 8002b4e:	2301      	movs	r3, #1
}
 8002b50:	4618      	mov	r0, r3
 8002b52:	3720      	adds	r7, #32
 8002b54:	46bd      	mov	sp, r7
 8002b56:	bd80      	pop	{r7, pc}

08002b58 <_ZN12W25Qxx_Flash15waitForSREGFlagEhbt>:

int W25Qxx_Flash::waitForSREGFlag(uint8_t flag, bool state, uint16_t tot)
{
 8002b58:	e92d 43b0 	stmdb	sp!, {r4, r5, r7, r8, r9, lr}
 8002b5c:	b086      	sub	sp, #24
 8002b5e:	af00      	add	r7, sp, #0
 8002b60:	6078      	str	r0, [r7, #4]
 8002b62:	4608      	mov	r0, r1
 8002b64:	4611      	mov	r1, r2
 8002b66:	461a      	mov	r2, r3
 8002b68:	4603      	mov	r3, r0
 8002b6a:	70fb      	strb	r3, [r7, #3]
 8002b6c:	460b      	mov	r3, r1
 8002b6e:	70bb      	strb	r3, [r7, #2]
 8002b70:	4613      	mov	r3, r2
 8002b72:	803b      	strh	r3, [r7, #0]
	uint64_t start = STRHAL_Systick_GetTick();
 8002b74:	f004 fb40 	bl	80071f8 <STRHAL_Systick_GetTick>
 8002b78:	e9c7 0104 	strd	r0, r1, [r7, #16]
	uint8_t sreg1;

	if (state)
 8002b7c:	78bb      	ldrb	r3, [r7, #2]
 8002b7e:	2b00      	cmp	r3, #0
 8002b80:	d02b      	beq.n	8002bda <_ZN12W25Qxx_Flash15waitForSREGFlagEhbt+0x82>
	{
		do
		{
			if (!readSREG1(sreg1))
 8002b82:	f107 030f 	add.w	r3, r7, #15
 8002b86:	4619      	mov	r1, r3
 8002b88:	6878      	ldr	r0, [r7, #4]
 8002b8a:	f7ff fd77 	bl	800267c <_ZNK12W25Qxx_Flash9readSREG1ERh>
 8002b8e:	4603      	mov	r3, r0
 8002b90:	f083 0301 	eor.w	r3, r3, #1
 8002b94:	b2db      	uxtb	r3, r3
 8002b96:	2b00      	cmp	r3, #0
 8002b98:	d002      	beq.n	8002ba0 <_ZN12W25Qxx_Flash15waitForSREGFlagEhbt+0x48>
				return -1;
 8002b9a:	f04f 33ff 	mov.w	r3, #4294967295	; 0xffffffff
 8002b9e:	e046      	b.n	8002c2e <_ZN12W25Qxx_Flash15waitForSREGFlagEhbt+0xd6>

			if (STRHAL_Systick_GetTick() - start > 100)
 8002ba0:	f004 fb2a 	bl	80071f8 <STRHAL_Systick_GetTick>
 8002ba4:	e9d7 2304 	ldrd	r2, r3, [r7, #16]
 8002ba8:	ebb0 0802 	subs.w	r8, r0, r2
 8002bac:	eb61 0903 	sbc.w	r9, r1, r3
 8002bb0:	f1b9 0f00 	cmp.w	r9, #0
 8002bb4:	bf08      	it	eq
 8002bb6:	f1b8 0f65 	cmpeq.w	r8, #101	; 0x65
 8002bba:	bf2c      	ite	cs
 8002bbc:	2301      	movcs	r3, #1
 8002bbe:	2300      	movcc	r3, #0
 8002bc0:	b2db      	uxtb	r3, r3
 8002bc2:	2b00      	cmp	r3, #0
 8002bc4:	d002      	beq.n	8002bcc <_ZN12W25Qxx_Flash15waitForSREGFlagEhbt+0x74>
				return -1;
 8002bc6:	f04f 33ff 	mov.w	r3, #4294967295	; 0xffffffff
 8002bca:	e030      	b.n	8002c2e <_ZN12W25Qxx_Flash15waitForSREGFlagEhbt+0xd6>
		} while (!(sreg1 & flag));
 8002bcc:	7bfa      	ldrb	r2, [r7, #15]
 8002bce:	78fb      	ldrb	r3, [r7, #3]
 8002bd0:	4013      	ands	r3, r2
 8002bd2:	b2db      	uxtb	r3, r3
 8002bd4:	2b00      	cmp	r3, #0
 8002bd6:	d129      	bne.n	8002c2c <_ZN12W25Qxx_Flash15waitForSREGFlagEhbt+0xd4>
		do
 8002bd8:	e7d3      	b.n	8002b82 <_ZN12W25Qxx_Flash15waitForSREGFlagEhbt+0x2a>
	}
	else
	{
		do
		{
			if (!readSREG1(sreg1))
 8002bda:	f107 030f 	add.w	r3, r7, #15
 8002bde:	4619      	mov	r1, r3
 8002be0:	6878      	ldr	r0, [r7, #4]
 8002be2:	f7ff fd4b 	bl	800267c <_ZNK12W25Qxx_Flash9readSREG1ERh>
 8002be6:	4603      	mov	r3, r0
 8002be8:	f083 0301 	eor.w	r3, r3, #1
 8002bec:	b2db      	uxtb	r3, r3
 8002bee:	2b00      	cmp	r3, #0
 8002bf0:	d002      	beq.n	8002bf8 <_ZN12W25Qxx_Flash15waitForSREGFlagEhbt+0xa0>
				return -1;
 8002bf2:	f04f 33ff 	mov.w	r3, #4294967295	; 0xffffffff
 8002bf6:	e01a      	b.n	8002c2e <_ZN12W25Qxx_Flash15waitForSREGFlagEhbt+0xd6>

			if (STRHAL_Systick_GetTick() - start > 100)
 8002bf8:	f004 fafe 	bl	80071f8 <STRHAL_Systick_GetTick>
 8002bfc:	e9d7 2304 	ldrd	r2, r3, [r7, #16]
 8002c00:	1a84      	subs	r4, r0, r2
 8002c02:	eb61 0503 	sbc.w	r5, r1, r3
 8002c06:	2d00      	cmp	r5, #0
 8002c08:	bf08      	it	eq
 8002c0a:	2c65      	cmpeq	r4, #101	; 0x65
 8002c0c:	bf2c      	ite	cs
 8002c0e:	2301      	movcs	r3, #1
 8002c10:	2300      	movcc	r3, #0
 8002c12:	b2db      	uxtb	r3, r3
 8002c14:	2b00      	cmp	r3, #0
 8002c16:	d002      	beq.n	8002c1e <_ZN12W25Qxx_Flash15waitForSREGFlagEhbt+0xc6>
				return -1;
 8002c18:	f04f 33ff 	mov.w	r3, #4294967295	; 0xffffffff
 8002c1c:	e007      	b.n	8002c2e <_ZN12W25Qxx_Flash15waitForSREGFlagEhbt+0xd6>
		} while (sreg1 & flag);
 8002c1e:	7bfa      	ldrb	r2, [r7, #15]
 8002c20:	78fb      	ldrb	r3, [r7, #3]
 8002c22:	4013      	ands	r3, r2
 8002c24:	b2db      	uxtb	r3, r3
 8002c26:	2b00      	cmp	r3, #0
 8002c28:	d000      	beq.n	8002c2c <_ZN12W25Qxx_Flash15waitForSREGFlagEhbt+0xd4>
		do
 8002c2a:	e7d6      	b.n	8002bda <_ZN12W25Qxx_Flash15waitForSREGFlagEhbt+0x82>
	}

	return 0;
 8002c2c:	2300      	movs	r3, #0
}
 8002c2e:	4618      	mov	r0, r3
 8002c30:	3718      	adds	r7, #24
 8002c32:	46bd      	mov	sp, r7
 8002c34:	e8bd 83b0 	ldmia.w	sp!, {r4, r5, r7, r8, r9, pc}

08002c38 <Reset_Handler>:

    .section	.text.Reset_Handler
	.weak	Reset_Handler
	.type	Reset_Handler, %function
Reset_Handler:
  ldr   r0, =_estack
 8002c38:	480d      	ldr	r0, [pc, #52]	; (8002c70 <LoopForever+0x2>)
  mov   sp, r0          /* set stack pointer */
 8002c3a:	4685      	mov	sp, r0

/* Copy the data segment initializers from flash to SRAM */
  ldr r0, =_sdata
 8002c3c:	480d      	ldr	r0, [pc, #52]	; (8002c74 <LoopForever+0x6>)
  ldr r1, =_edata
 8002c3e:	490e      	ldr	r1, [pc, #56]	; (8002c78 <LoopForever+0xa>)
  ldr r2, =_sidata
 8002c40:	4a0e      	ldr	r2, [pc, #56]	; (8002c7c <LoopForever+0xe>)
  movs r3, #0
 8002c42:	2300      	movs	r3, #0
  b	LoopCopyDataInit
 8002c44:	e002      	b.n	8002c4c <LoopCopyDataInit>

08002c46 <CopyDataInit>:

CopyDataInit:
  ldr r4, [r2, r3]
 8002c46:	58d4      	ldr	r4, [r2, r3]
  str r4, [r0, r3]
 8002c48:	50c4      	str	r4, [r0, r3]
  adds r3, r3, #4
 8002c4a:	3304      	adds	r3, #4

08002c4c <LoopCopyDataInit>:

LoopCopyDataInit:
  adds r4, r0, r3
 8002c4c:	18c4      	adds	r4, r0, r3
  cmp r4, r1
 8002c4e:	428c      	cmp	r4, r1
  bcc CopyDataInit
 8002c50:	d3f9      	bcc.n	8002c46 <CopyDataInit>
  
/* Zero fill the bss segment. */
  ldr r2, =_sbss
 8002c52:	4a0b      	ldr	r2, [pc, #44]	; (8002c80 <LoopForever+0x12>)
  ldr r4, =_ebss
 8002c54:	4c0b      	ldr	r4, [pc, #44]	; (8002c84 <LoopForever+0x16>)
  movs r3, #0
 8002c56:	2300      	movs	r3, #0
  b LoopFillZerobss
 8002c58:	e001      	b.n	8002c5e <LoopFillZerobss>

08002c5a <FillZerobss>:

FillZerobss:
  str  r3, [r2]
 8002c5a:	6013      	str	r3, [r2, #0]
  adds r2, r2, #4
 8002c5c:	3204      	adds	r2, #4

08002c5e <LoopFillZerobss>:

LoopFillZerobss:
  cmp r2, r4
 8002c5e:	42a2      	cmp	r2, r4
  bcc FillZerobss
 8002c60:	d3fb      	bcc.n	8002c5a <FillZerobss>

/* Call the clock system initialization function.*/
    bl  SystemInit
 8002c62:	f7fe fa65 	bl	8001130 <SystemInit>
/* Call static constructors */
    bl __libc_init_array
 8002c66:	f005 ffc7 	bl	8008bf8 <__libc_init_array>
/* Call the application's entry point.*/
	bl	main
 8002c6a:	f7fe f9c3 	bl	8000ff4 <main>

08002c6e <LoopForever>:

LoopForever:
    b LoopForever
 8002c6e:	e7fe      	b.n	8002c6e <LoopForever>
  ldr   r0, =_estack
 8002c70:	2001c000 	.word	0x2001c000
  ldr r0, =_sdata
 8002c74:	20000000 	.word	0x20000000
  ldr r1, =_edata
 8002c78:	20000784 	.word	0x20000784
  ldr r2, =_sidata
 8002c7c:	0800a078 	.word	0x0800a078
  ldr r2, =_sbss
 8002c80:	20000788 	.word	0x20000788
  ldr r4, =_ebss
 8002c84:	20000b74 	.word	0x20000b74

08002c88 <ADC1_2_IRQHandler>:
 * @retval : None
*/
    .section	.text.Default_Handler,"ax",%progbits
Default_Handler:
Infinite_Loop:
	b	Infinite_Loop
 8002c88:	e7fe      	b.n	8002c88 <ADC1_2_IRQHandler>

08002c8a <LL_ADC_REG_SetSequencerLength>:
  *         @arg @ref LL_ADC_REG_SEQ_SCAN_ENABLE_15RANKS
  *         @arg @ref LL_ADC_REG_SEQ_SCAN_ENABLE_16RANKS
  * @retval None
  */
__STATIC_INLINE void LL_ADC_REG_SetSequencerLength(ADC_TypeDef *ADCx, uint32_t SequencerNbRanks)
{
 8002c8a:	b480      	push	{r7}
 8002c8c:	b083      	sub	sp, #12
 8002c8e:	af00      	add	r7, sp, #0
 8002c90:	6078      	str	r0, [r7, #4]
 8002c92:	6039      	str	r1, [r7, #0]
  MODIFY_REG(ADCx->SQR1, ADC_SQR1_L, SequencerNbRanks);
 8002c94:	687b      	ldr	r3, [r7, #4]
 8002c96:	6b1b      	ldr	r3, [r3, #48]	; 0x30
 8002c98:	f023 020f 	bic.w	r2, r3, #15
 8002c9c:	683b      	ldr	r3, [r7, #0]
 8002c9e:	431a      	orrs	r2, r3
 8002ca0:	687b      	ldr	r3, [r7, #4]
 8002ca2:	631a      	str	r2, [r3, #48]	; 0x30
}
 8002ca4:	bf00      	nop
 8002ca6:	370c      	adds	r7, #12
 8002ca8:	46bd      	mov	sp, r7
 8002caa:	f85d 7b04 	ldr.w	r7, [sp], #4
 8002cae:	4770      	bx	lr

08002cb0 <LL_ADC_IsEnabled>:
  * @rmtoll CR       ADEN           LL_ADC_IsEnabled
  * @param  ADCx ADC instance
  * @retval 0: ADC is disabled, 1: ADC is enabled.
  */
__STATIC_INLINE uint32_t LL_ADC_IsEnabled(ADC_TypeDef *ADCx)
{
 8002cb0:	b480      	push	{r7}
 8002cb2:	b083      	sub	sp, #12
 8002cb4:	af00      	add	r7, sp, #0
 8002cb6:	6078      	str	r0, [r7, #4]
  return ((READ_BIT(ADCx->CR, ADC_CR_ADEN) == (ADC_CR_ADEN)) ? 1UL : 0UL);
 8002cb8:	687b      	ldr	r3, [r7, #4]
 8002cba:	689b      	ldr	r3, [r3, #8]
 8002cbc:	f003 0301 	and.w	r3, r3, #1
 8002cc0:	2b01      	cmp	r3, #1
 8002cc2:	d101      	bne.n	8002cc8 <LL_ADC_IsEnabled+0x18>
 8002cc4:	2301      	movs	r3, #1
 8002cc6:	e000      	b.n	8002cca <LL_ADC_IsEnabled+0x1a>
 8002cc8:	2300      	movs	r3, #0
}
 8002cca:	4618      	mov	r0, r3
 8002ccc:	370c      	adds	r7, #12
 8002cce:	46bd      	mov	sp, r7
 8002cd0:	f85d 7b04 	ldr.w	r7, [sp], #4
 8002cd4:	4770      	bx	lr
	...

08002cd8 <LL_ADC_CommonInit>:
  * @retval An ErrorStatus enumeration value:
  *          - SUCCESS: ADC common registers are initialized
  *          - ERROR: ADC common registers are not initialized
  */
ErrorStatus LL_ADC_CommonInit(ADC_Common_TypeDef *ADCxy_COMMON, LL_ADC_CommonInitTypeDef *ADC_CommonInitStruct)
{
 8002cd8:	b590      	push	{r4, r7, lr}
 8002cda:	b085      	sub	sp, #20
 8002cdc:	af00      	add	r7, sp, #0
 8002cde:	6078      	str	r0, [r7, #4]
 8002ce0:	6039      	str	r1, [r7, #0]
  ErrorStatus status = SUCCESS;
 8002ce2:	2300      	movs	r3, #0
 8002ce4:	73fb      	strb	r3, [r7, #15]
  /* Note: Hardware constraint (refer to description of functions             */
  /*       "LL_ADC_SetCommonXXX()" and "LL_ADC_SetMultiXXX()"):               */
  /*       On this STM32 series, setting of these features is conditioned to  */
  /*       ADC state:                                                         */
  /*       All ADC instances of the ADC common group must be disabled.        */
  if (__LL_ADC_IS_ENABLED_ALL_COMMON_INSTANCE(ADCxy_COMMON) == 0UL)
 8002ce6:	687b      	ldr	r3, [r7, #4]
 8002ce8:	4a27      	ldr	r2, [pc, #156]	; (8002d88 <LL_ADC_CommonInit+0xb0>)
 8002cea:	4293      	cmp	r3, r2
 8002cec:	d10f      	bne.n	8002d0e <LL_ADC_CommonInit+0x36>
 8002cee:	f04f 40a0 	mov.w	r0, #1342177280	; 0x50000000
 8002cf2:	f7ff ffdd 	bl	8002cb0 <LL_ADC_IsEnabled>
 8002cf6:	4604      	mov	r4, r0
 8002cf8:	4824      	ldr	r0, [pc, #144]	; (8002d8c <LL_ADC_CommonInit+0xb4>)
 8002cfa:	f7ff ffd9 	bl	8002cb0 <LL_ADC_IsEnabled>
 8002cfe:	4603      	mov	r3, r0
 8002d00:	4323      	orrs	r3, r4
 8002d02:	2b00      	cmp	r3, #0
 8002d04:	bf0c      	ite	eq
 8002d06:	2301      	moveq	r3, #1
 8002d08:	2300      	movne	r3, #0
 8002d0a:	b2db      	uxtb	r3, r3
 8002d0c:	e012      	b.n	8002d34 <LL_ADC_CommonInit+0x5c>
 8002d0e:	4820      	ldr	r0, [pc, #128]	; (8002d90 <LL_ADC_CommonInit+0xb8>)
 8002d10:	f7ff ffce 	bl	8002cb0 <LL_ADC_IsEnabled>
 8002d14:	4604      	mov	r4, r0
 8002d16:	481f      	ldr	r0, [pc, #124]	; (8002d94 <LL_ADC_CommonInit+0xbc>)
 8002d18:	f7ff ffca 	bl	8002cb0 <LL_ADC_IsEnabled>
 8002d1c:	4603      	mov	r3, r0
 8002d1e:	431c      	orrs	r4, r3
 8002d20:	481d      	ldr	r0, [pc, #116]	; (8002d98 <LL_ADC_CommonInit+0xc0>)
 8002d22:	f7ff ffc5 	bl	8002cb0 <LL_ADC_IsEnabled>
 8002d26:	4603      	mov	r3, r0
 8002d28:	4323      	orrs	r3, r4
 8002d2a:	2b00      	cmp	r3, #0
 8002d2c:	bf0c      	ite	eq
 8002d2e:	2301      	moveq	r3, #1
 8002d30:	2300      	movne	r3, #0
 8002d32:	b2db      	uxtb	r3, r3
 8002d34:	2b00      	cmp	r3, #0
 8002d36:	d020      	beq.n	8002d7a <LL_ADC_CommonInit+0xa2>
    /*    selected device)                                                    */
    /*    - Set ADC multimode configuration                                   */
    /*    - Set ADC multimode DMA transfer                                    */
    /*    - Set ADC multimode: delay between 2 sampling phases                */
#if defined(ADC_MULTIMODE_SUPPORT)
    if (ADC_CommonInitStruct->Multimode != LL_ADC_MULTI_INDEPENDENT)
 8002d38:	683b      	ldr	r3, [r7, #0]
 8002d3a:	685b      	ldr	r3, [r3, #4]
 8002d3c:	2b00      	cmp	r3, #0
 8002d3e:	d012      	beq.n	8002d66 <LL_ADC_CommonInit+0x8e>
    {
      MODIFY_REG(ADCxy_COMMON->CCR,
 8002d40:	687b      	ldr	r3, [r7, #4]
 8002d42:	689a      	ldr	r2, [r3, #8]
 8002d44:	4b15      	ldr	r3, [pc, #84]	; (8002d9c <LL_ADC_CommonInit+0xc4>)
 8002d46:	4013      	ands	r3, r2
 8002d48:	683a      	ldr	r2, [r7, #0]
 8002d4a:	6811      	ldr	r1, [r2, #0]
 8002d4c:	683a      	ldr	r2, [r7, #0]
 8002d4e:	6852      	ldr	r2, [r2, #4]
 8002d50:	4311      	orrs	r1, r2
 8002d52:	683a      	ldr	r2, [r7, #0]
 8002d54:	6892      	ldr	r2, [r2, #8]
 8002d56:	4311      	orrs	r1, r2
 8002d58:	683a      	ldr	r2, [r7, #0]
 8002d5a:	68d2      	ldr	r2, [r2, #12]
 8002d5c:	430a      	orrs	r2, r1
 8002d5e:	431a      	orrs	r2, r3
 8002d60:	687b      	ldr	r3, [r7, #4]
 8002d62:	609a      	str	r2, [r3, #8]
 8002d64:	e00b      	b.n	8002d7e <LL_ADC_CommonInit+0xa6>
                 | ADC_CommonInitStruct->MultiTwoSamplingDelay
                );
    }
    else
    {
      MODIFY_REG(ADCxy_COMMON->CCR,
 8002d66:	687b      	ldr	r3, [r7, #4]
 8002d68:	689a      	ldr	r2, [r3, #8]
 8002d6a:	4b0c      	ldr	r3, [pc, #48]	; (8002d9c <LL_ADC_CommonInit+0xc4>)
 8002d6c:	4013      	ands	r3, r2
 8002d6e:	683a      	ldr	r2, [r7, #0]
 8002d70:	6812      	ldr	r2, [r2, #0]
 8002d72:	431a      	orrs	r2, r3
 8002d74:	687b      	ldr	r3, [r7, #4]
 8002d76:	609a      	str	r2, [r3, #8]
 8002d78:	e001      	b.n	8002d7e <LL_ADC_CommonInit+0xa6>
  }
  else
  {
    /* Initialization error: One or several ADC instances belonging to        */
    /* the same ADC common instance are not disabled.                         */
    status = ERROR;
 8002d7a:	2301      	movs	r3, #1
 8002d7c:	73fb      	strb	r3, [r7, #15]
  }

  return status;
 8002d7e:	7bfb      	ldrb	r3, [r7, #15]
}
 8002d80:	4618      	mov	r0, r3
 8002d82:	3714      	adds	r7, #20
 8002d84:	46bd      	mov	sp, r7
 8002d86:	bd90      	pop	{r4, r7, pc}
 8002d88:	50000300 	.word	0x50000300
 8002d8c:	50000100 	.word	0x50000100
 8002d90:	50000400 	.word	0x50000400
 8002d94:	50000500 	.word	0x50000500
 8002d98:	50000600 	.word	0x50000600
 8002d9c:	ffc030e0 	.word	0xffc030e0

08002da0 <LL_ADC_Init>:
  * @retval An ErrorStatus enumeration value:
  *          - SUCCESS: ADC registers are initialized
  *          - ERROR: ADC registers are not initialized
  */
ErrorStatus LL_ADC_Init(ADC_TypeDef *ADCx, LL_ADC_InitTypeDef *ADC_InitStruct)
{
 8002da0:	b580      	push	{r7, lr}
 8002da2:	b084      	sub	sp, #16
 8002da4:	af00      	add	r7, sp, #0
 8002da6:	6078      	str	r0, [r7, #4]
 8002da8:	6039      	str	r1, [r7, #0]
  ErrorStatus status = SUCCESS;
 8002daa:	2300      	movs	r3, #0
 8002dac:	73fb      	strb	r3, [r7, #15]
  assert_param(IS_LL_ADC_DATA_ALIGN(ADC_InitStruct->DataAlignment));
  assert_param(IS_LL_ADC_LOW_POWER(ADC_InitStruct->LowPowerMode));

  /* Note: Hardware constraint (refer to description of this function):       */
  /*       ADC instance must be disabled.                                     */
  if (LL_ADC_IsEnabled(ADCx) == 0UL)
 8002dae:	6878      	ldr	r0, [r7, #4]
 8002db0:	f7ff ff7e 	bl	8002cb0 <LL_ADC_IsEnabled>
 8002db4:	4603      	mov	r3, r0
 8002db6:	2b00      	cmp	r3, #0
 8002db8:	d111      	bne.n	8002dde <LL_ADC_Init+0x3e>
    /* Configuration of ADC hierarchical scope:                               */
    /*  - ADC instance                                                        */
    /*    - Set ADC data resolution                                           */
    /*    - Set ADC conversion data alignment                                 */
    /*    - Set ADC low power mode                                            */
    MODIFY_REG(ADCx->CFGR,
 8002dba:	687b      	ldr	r3, [r7, #4]
 8002dbc:	68db      	ldr	r3, [r3, #12]
 8002dbe:	f423 4340 	bic.w	r3, r3, #49152	; 0xc000
 8002dc2:	f023 0318 	bic.w	r3, r3, #24
 8002dc6:	683a      	ldr	r2, [r7, #0]
 8002dc8:	6811      	ldr	r1, [r2, #0]
 8002dca:	683a      	ldr	r2, [r7, #0]
 8002dcc:	6852      	ldr	r2, [r2, #4]
 8002dce:	4311      	orrs	r1, r2
 8002dd0:	683a      	ldr	r2, [r7, #0]
 8002dd2:	6892      	ldr	r2, [r2, #8]
 8002dd4:	430a      	orrs	r2, r1
 8002dd6:	431a      	orrs	r2, r3
 8002dd8:	687b      	ldr	r3, [r7, #4]
 8002dda:	60da      	str	r2, [r3, #12]
 8002ddc:	e001      	b.n	8002de2 <LL_ADC_Init+0x42>

  }
  else
  {
    /* Initialization error: ADC instance is not disabled. */
    status = ERROR;
 8002dde:	2301      	movs	r3, #1
 8002de0:	73fb      	strb	r3, [r7, #15]
  }

  return status;
 8002de2:	7bfb      	ldrb	r3, [r7, #15]
}
 8002de4:	4618      	mov	r0, r3
 8002de6:	3710      	adds	r7, #16
 8002de8:	46bd      	mov	sp, r7
 8002dea:	bd80      	pop	{r7, pc}

08002dec <LL_ADC_REG_Init>:
  * @retval An ErrorStatus enumeration value:
  *          - SUCCESS: ADC registers are initialized
  *          - ERROR: ADC registers are not initialized
  */
ErrorStatus LL_ADC_REG_Init(ADC_TypeDef *ADCx, LL_ADC_REG_InitTypeDef *ADC_REG_InitStruct)
{
 8002dec:	b580      	push	{r7, lr}
 8002dee:	b084      	sub	sp, #16
 8002df0:	af00      	add	r7, sp, #0
 8002df2:	6078      	str	r0, [r7, #4]
 8002df4:	6039      	str	r1, [r7, #0]
  ErrorStatus status = SUCCESS;
 8002df6:	2300      	movs	r3, #0
 8002df8:	73fb      	strb	r3, [r7, #15]
  assert_param(IS_LL_ADC_REG_DMA_TRANSFER(ADC_REG_InitStruct->DMATransfer));
  assert_param(IS_LL_ADC_REG_OVR_DATA_BEHAVIOR(ADC_REG_InitStruct->Overrun));

  /* Note: Hardware constraint (refer to description of this function):       */
  /*       ADC instance must be disabled.                                     */
  if (LL_ADC_IsEnabled(ADCx) == 0UL)
 8002dfa:	6878      	ldr	r0, [r7, #4]
 8002dfc:	f7ff ff58 	bl	8002cb0 <LL_ADC_IsEnabled>
 8002e00:	4603      	mov	r3, r0
 8002e02:	2b00      	cmp	r3, #0
 8002e04:	d132      	bne.n	8002e6c <LL_ADC_REG_Init+0x80>
    /*    - Set ADC group regular conversion data transfer: no transfer or    */
    /*      transfer by DMA, and DMA requests mode                            */
    /*    - Set ADC group regular overrun behavior                            */
    /* Note: On this STM32 series, ADC trigger edge is set to value 0x0 by    */
    /*       setting of trigger source to SW start.                           */
    if (ADC_REG_InitStruct->SequencerLength != LL_ADC_REG_SEQ_SCAN_DISABLE)
 8002e06:	683b      	ldr	r3, [r7, #0]
 8002e08:	685b      	ldr	r3, [r3, #4]
 8002e0a:	2b00      	cmp	r3, #0
 8002e0c:	d015      	beq.n	8002e3a <LL_ADC_REG_Init+0x4e>
    {
      MODIFY_REG(ADCx->CFGR,
 8002e0e:	687b      	ldr	r3, [r7, #4]
 8002e10:	68da      	ldr	r2, [r3, #12]
 8002e12:	4b1a      	ldr	r3, [pc, #104]	; (8002e7c <LL_ADC_REG_Init+0x90>)
 8002e14:	4013      	ands	r3, r2
 8002e16:	683a      	ldr	r2, [r7, #0]
 8002e18:	6811      	ldr	r1, [r2, #0]
 8002e1a:	683a      	ldr	r2, [r7, #0]
 8002e1c:	6892      	ldr	r2, [r2, #8]
 8002e1e:	4311      	orrs	r1, r2
 8002e20:	683a      	ldr	r2, [r7, #0]
 8002e22:	68d2      	ldr	r2, [r2, #12]
 8002e24:	4311      	orrs	r1, r2
 8002e26:	683a      	ldr	r2, [r7, #0]
 8002e28:	6912      	ldr	r2, [r2, #16]
 8002e2a:	4311      	orrs	r1, r2
 8002e2c:	683a      	ldr	r2, [r7, #0]
 8002e2e:	6952      	ldr	r2, [r2, #20]
 8002e30:	430a      	orrs	r2, r1
 8002e32:	431a      	orrs	r2, r3
 8002e34:	687b      	ldr	r3, [r7, #4]
 8002e36:	60da      	str	r2, [r3, #12]
 8002e38:	e011      	b.n	8002e5e <LL_ADC_REG_Init+0x72>
                 | ADC_REG_InitStruct->Overrun
                );
    }
    else
    {
      MODIFY_REG(ADCx->CFGR,
 8002e3a:	687b      	ldr	r3, [r7, #4]
 8002e3c:	68da      	ldr	r2, [r3, #12]
 8002e3e:	4b0f      	ldr	r3, [pc, #60]	; (8002e7c <LL_ADC_REG_Init+0x90>)
 8002e40:	4013      	ands	r3, r2
 8002e42:	683a      	ldr	r2, [r7, #0]
 8002e44:	6811      	ldr	r1, [r2, #0]
 8002e46:	683a      	ldr	r2, [r7, #0]
 8002e48:	68d2      	ldr	r2, [r2, #12]
 8002e4a:	4311      	orrs	r1, r2
 8002e4c:	683a      	ldr	r2, [r7, #0]
 8002e4e:	6912      	ldr	r2, [r2, #16]
 8002e50:	4311      	orrs	r1, r2
 8002e52:	683a      	ldr	r2, [r7, #0]
 8002e54:	6952      	ldr	r2, [r2, #20]
 8002e56:	430a      	orrs	r2, r1
 8002e58:	431a      	orrs	r2, r3
 8002e5a:	687b      	ldr	r3, [r7, #4]
 8002e5c:	60da      	str	r2, [r3, #12]
                 | ADC_REG_InitStruct->Overrun
                );
    }

    /* Set ADC group regular sequencer length and scan direction */
    LL_ADC_REG_SetSequencerLength(ADCx, ADC_REG_InitStruct->SequencerLength);
 8002e5e:	683b      	ldr	r3, [r7, #0]
 8002e60:	685b      	ldr	r3, [r3, #4]
 8002e62:	4619      	mov	r1, r3
 8002e64:	6878      	ldr	r0, [r7, #4]
 8002e66:	f7ff ff10 	bl	8002c8a <LL_ADC_REG_SetSequencerLength>
 8002e6a:	e001      	b.n	8002e70 <LL_ADC_REG_Init+0x84>
  }
  else
  {
    /* Initialization error: ADC instance is not disabled. */
    status = ERROR;
 8002e6c:	2301      	movs	r3, #1
 8002e6e:	73fb      	strb	r3, [r7, #15]
  }
  return status;
 8002e70:	7bfb      	ldrb	r3, [r7, #15]
}
 8002e72:	4618      	mov	r0, r3
 8002e74:	3710      	adds	r7, #16
 8002e76:	46bd      	mov	sp, r7
 8002e78:	bd80      	pop	{r7, pc}
 8002e7a:	bf00      	nop
 8002e7c:	fff0c01c 	.word	0xfff0c01c

08002e80 <LL_DMA_ConfigTransfer>:
  *         @arg @ref LL_DMA_MDATAALIGN_BYTE or @ref LL_DMA_MDATAALIGN_HALFWORD or @ref LL_DMA_MDATAALIGN_WORD
  *         @arg @ref LL_DMA_PRIORITY_LOW or @ref LL_DMA_PRIORITY_MEDIUM or @ref LL_DMA_PRIORITY_HIGH or @ref LL_DMA_PRIORITY_VERYHIGH
  * @retval None
  */
__STATIC_INLINE void LL_DMA_ConfigTransfer(DMA_TypeDef *DMAx, uint32_t Channel, uint32_t Configuration)
{
 8002e80:	b480      	push	{r7}
 8002e82:	b087      	sub	sp, #28
 8002e84:	af00      	add	r7, sp, #0
 8002e86:	60f8      	str	r0, [r7, #12]
 8002e88:	60b9      	str	r1, [r7, #8]
 8002e8a:	607a      	str	r2, [r7, #4]
  uint32_t dma_base_addr = (uint32_t)DMAx;
 8002e8c:	68fb      	ldr	r3, [r7, #12]
 8002e8e:	617b      	str	r3, [r7, #20]
  MODIFY_REG(((DMA_Channel_TypeDef *)((uint32_t)(dma_base_addr + CHANNEL_OFFSET_TAB[Channel])))->CCR,
 8002e90:	4a0e      	ldr	r2, [pc, #56]	; (8002ecc <LL_DMA_ConfigTransfer+0x4c>)
 8002e92:	68bb      	ldr	r3, [r7, #8]
 8002e94:	4413      	add	r3, r2
 8002e96:	781b      	ldrb	r3, [r3, #0]
 8002e98:	461a      	mov	r2, r3
 8002e9a:	697b      	ldr	r3, [r7, #20]
 8002e9c:	4413      	add	r3, r2
 8002e9e:	681b      	ldr	r3, [r3, #0]
 8002ea0:	f423 43ff 	bic.w	r3, r3, #32640	; 0x7f80
 8002ea4:	f023 0370 	bic.w	r3, r3, #112	; 0x70
 8002ea8:	4908      	ldr	r1, [pc, #32]	; (8002ecc <LL_DMA_ConfigTransfer+0x4c>)
 8002eaa:	68ba      	ldr	r2, [r7, #8]
 8002eac:	440a      	add	r2, r1
 8002eae:	7812      	ldrb	r2, [r2, #0]
 8002eb0:	4611      	mov	r1, r2
 8002eb2:	697a      	ldr	r2, [r7, #20]
 8002eb4:	440a      	add	r2, r1
 8002eb6:	4611      	mov	r1, r2
 8002eb8:	687a      	ldr	r2, [r7, #4]
 8002eba:	4313      	orrs	r3, r2
 8002ebc:	600b      	str	r3, [r1, #0]
             DMA_CCR_DIR | DMA_CCR_MEM2MEM | DMA_CCR_CIRC | DMA_CCR_PINC | DMA_CCR_MINC | DMA_CCR_PSIZE | DMA_CCR_MSIZE | DMA_CCR_PL,
             Configuration);
}
 8002ebe:	bf00      	nop
 8002ec0:	371c      	adds	r7, #28
 8002ec2:	46bd      	mov	sp, r7
 8002ec4:	f85d 7b04 	ldr.w	r7, [sp], #4
 8002ec8:	4770      	bx	lr
 8002eca:	bf00      	nop
 8002ecc:	08009004 	.word	0x08009004

08002ed0 <LL_DMA_SetDataLength>:
  *         (*) Not on all G4 devices
  * @param  NbData Between Min_Data = 0 and Max_Data = 0x0000FFFF
  * @retval None
  */
__STATIC_INLINE void LL_DMA_SetDataLength(DMA_TypeDef *DMAx, uint32_t Channel, uint32_t NbData)
{
 8002ed0:	b480      	push	{r7}
 8002ed2:	b087      	sub	sp, #28
 8002ed4:	af00      	add	r7, sp, #0
 8002ed6:	60f8      	str	r0, [r7, #12]
 8002ed8:	60b9      	str	r1, [r7, #8]
 8002eda:	607a      	str	r2, [r7, #4]
  uint32_t dma_base_addr = (uint32_t)DMAx;
 8002edc:	68fb      	ldr	r3, [r7, #12]
 8002ede:	617b      	str	r3, [r7, #20]
  MODIFY_REG(((DMA_Channel_TypeDef *)((uint32_t)(dma_base_addr + CHANNEL_OFFSET_TAB[Channel])))->CNDTR,
 8002ee0:	4a0d      	ldr	r2, [pc, #52]	; (8002f18 <LL_DMA_SetDataLength+0x48>)
 8002ee2:	68bb      	ldr	r3, [r7, #8]
 8002ee4:	4413      	add	r3, r2
 8002ee6:	781b      	ldrb	r3, [r3, #0]
 8002ee8:	461a      	mov	r2, r3
 8002eea:	697b      	ldr	r3, [r7, #20]
 8002eec:	4413      	add	r3, r2
 8002eee:	685b      	ldr	r3, [r3, #4]
 8002ef0:	0c1b      	lsrs	r3, r3, #16
 8002ef2:	041b      	lsls	r3, r3, #16
 8002ef4:	4908      	ldr	r1, [pc, #32]	; (8002f18 <LL_DMA_SetDataLength+0x48>)
 8002ef6:	68ba      	ldr	r2, [r7, #8]
 8002ef8:	440a      	add	r2, r1
 8002efa:	7812      	ldrb	r2, [r2, #0]
 8002efc:	4611      	mov	r1, r2
 8002efe:	697a      	ldr	r2, [r7, #20]
 8002f00:	440a      	add	r2, r1
 8002f02:	4611      	mov	r1, r2
 8002f04:	687a      	ldr	r2, [r7, #4]
 8002f06:	4313      	orrs	r3, r2
 8002f08:	604b      	str	r3, [r1, #4]
             DMA_CNDTR_NDT, NbData);
}
 8002f0a:	bf00      	nop
 8002f0c:	371c      	adds	r7, #28
 8002f0e:	46bd      	mov	sp, r7
 8002f10:	f85d 7b04 	ldr.w	r7, [sp], #4
 8002f14:	4770      	bx	lr
 8002f16:	bf00      	nop
 8002f18:	08009004 	.word	0x08009004

08002f1c <LL_DMA_SetMemoryAddress>:
  *         (*) Not on all G4 devices
  * @param  MemoryAddress Between Min_Data = 0 and Max_Data = 0xFFFFFFFF
  * @retval None
  */
__STATIC_INLINE void LL_DMA_SetMemoryAddress(DMA_TypeDef *DMAx, uint32_t Channel, uint32_t MemoryAddress)
{
 8002f1c:	b480      	push	{r7}
 8002f1e:	b087      	sub	sp, #28
 8002f20:	af00      	add	r7, sp, #0
 8002f22:	60f8      	str	r0, [r7, #12]
 8002f24:	60b9      	str	r1, [r7, #8]
 8002f26:	607a      	str	r2, [r7, #4]
  uint32_t dma_base_addr = (uint32_t)DMAx;
 8002f28:	68fb      	ldr	r3, [r7, #12]
 8002f2a:	617b      	str	r3, [r7, #20]
  WRITE_REG(((DMA_Channel_TypeDef *)((uint32_t)(dma_base_addr + CHANNEL_OFFSET_TAB[Channel])))->CMAR, MemoryAddress);
 8002f2c:	4a07      	ldr	r2, [pc, #28]	; (8002f4c <LL_DMA_SetMemoryAddress+0x30>)
 8002f2e:	68bb      	ldr	r3, [r7, #8]
 8002f30:	4413      	add	r3, r2
 8002f32:	781b      	ldrb	r3, [r3, #0]
 8002f34:	461a      	mov	r2, r3
 8002f36:	697b      	ldr	r3, [r7, #20]
 8002f38:	4413      	add	r3, r2
 8002f3a:	461a      	mov	r2, r3
 8002f3c:	687b      	ldr	r3, [r7, #4]
 8002f3e:	60d3      	str	r3, [r2, #12]
}
 8002f40:	bf00      	nop
 8002f42:	371c      	adds	r7, #28
 8002f44:	46bd      	mov	sp, r7
 8002f46:	f85d 7b04 	ldr.w	r7, [sp], #4
 8002f4a:	4770      	bx	lr
 8002f4c:	08009004 	.word	0x08009004

08002f50 <LL_DMA_SetPeriphAddress>:
  *         (*) Not on all G4 devices
  * @param  PeriphAddress Between Min_Data = 0 and Max_Data = 0xFFFFFFFF
  * @retval None
  */
__STATIC_INLINE void LL_DMA_SetPeriphAddress(DMA_TypeDef *DMAx, uint32_t Channel, uint32_t PeriphAddress)
{
 8002f50:	b480      	push	{r7}
 8002f52:	b087      	sub	sp, #28
 8002f54:	af00      	add	r7, sp, #0
 8002f56:	60f8      	str	r0, [r7, #12]
 8002f58:	60b9      	str	r1, [r7, #8]
 8002f5a:	607a      	str	r2, [r7, #4]
  uint32_t dma_base_addr = (uint32_t)DMAx;
 8002f5c:	68fb      	ldr	r3, [r7, #12]
 8002f5e:	617b      	str	r3, [r7, #20]
  WRITE_REG(((DMA_Channel_TypeDef *)((uint32_t)(dma_base_addr + CHANNEL_OFFSET_TAB[Channel])))->CPAR, PeriphAddress);
 8002f60:	4a07      	ldr	r2, [pc, #28]	; (8002f80 <LL_DMA_SetPeriphAddress+0x30>)
 8002f62:	68bb      	ldr	r3, [r7, #8]
 8002f64:	4413      	add	r3, r2
 8002f66:	781b      	ldrb	r3, [r3, #0]
 8002f68:	461a      	mov	r2, r3
 8002f6a:	697b      	ldr	r3, [r7, #20]
 8002f6c:	4413      	add	r3, r2
 8002f6e:	461a      	mov	r2, r3
 8002f70:	687b      	ldr	r3, [r7, #4]
 8002f72:	6093      	str	r3, [r2, #8]
}
 8002f74:	bf00      	nop
 8002f76:	371c      	adds	r7, #28
 8002f78:	46bd      	mov	sp, r7
 8002f7a:	f85d 7b04 	ldr.w	r7, [sp], #4
 8002f7e:	4770      	bx	lr
 8002f80:	08009004 	.word	0x08009004

08002f84 <LL_DMA_SetPeriphRequest>:
  *         @arg @ref LL_DMAMUX_REQ_UCPD1_TX
  *         (*) Not on all G4 devices
  * @retval None
  */
__STATIC_INLINE void LL_DMA_SetPeriphRequest(DMA_TypeDef *DMAx, uint32_t Channel, uint32_t PeriphRequest)
{
 8002f84:	b480      	push	{r7}
 8002f86:	b087      	sub	sp, #28
 8002f88:	af00      	add	r7, sp, #0
 8002f8a:	60f8      	str	r0, [r7, #12]
 8002f8c:	60b9      	str	r1, [r7, #8]
 8002f8e:	607a      	str	r2, [r7, #4]
  uint32_t dmamux_ccr_offset = ((((uint32_t)DMAx ^ (uint32_t)DMA1) >> 10U) * 8U);
 8002f90:	68fb      	ldr	r3, [r7, #12]
 8002f92:	0a9b      	lsrs	r3, r3, #10
 8002f94:	f483 1380 	eor.w	r3, r3, #1048576	; 0x100000
 8002f98:	f083 0380 	eor.w	r3, r3, #128	; 0x80
 8002f9c:	00db      	lsls	r3, r3, #3
 8002f9e:	617b      	str	r3, [r7, #20]
  MODIFY_REG((DMAMUX1_Channel0 + Channel + dmamux_ccr_offset)->CCR, DMAMUX_CxCR_DMAREQ_ID, PeriphRequest);
 8002fa0:	68ba      	ldr	r2, [r7, #8]
 8002fa2:	697b      	ldr	r3, [r7, #20]
 8002fa4:	4413      	add	r3, r2
 8002fa6:	009b      	lsls	r3, r3, #2
 8002fa8:	f103 4380 	add.w	r3, r3, #1073741824	; 0x40000000
 8002fac:	f503 3302 	add.w	r3, r3, #133120	; 0x20800
 8002fb0:	681b      	ldr	r3, [r3, #0]
 8002fb2:	f023 01ff 	bic.w	r1, r3, #255	; 0xff
 8002fb6:	68ba      	ldr	r2, [r7, #8]
 8002fb8:	697b      	ldr	r3, [r7, #20]
 8002fba:	4413      	add	r3, r2
 8002fbc:	009b      	lsls	r3, r3, #2
 8002fbe:	f103 4380 	add.w	r3, r3, #1073741824	; 0x40000000
 8002fc2:	f503 3302 	add.w	r3, r3, #133120	; 0x20800
 8002fc6:	687a      	ldr	r2, [r7, #4]
 8002fc8:	430a      	orrs	r2, r1
 8002fca:	601a      	str	r2, [r3, #0]
}
 8002fcc:	bf00      	nop
 8002fce:	371c      	adds	r7, #28
 8002fd0:	46bd      	mov	sp, r7
 8002fd2:	f85d 7b04 	ldr.w	r7, [sp], #4
 8002fd6:	4770      	bx	lr

08002fd8 <LL_DMA_Init>:
  * @retval An ErrorStatus enumeration value:
  *          - SUCCESS: DMA registers are initialized
  *          - ERROR: Not applicable
  */
uint32_t LL_DMA_Init(DMA_TypeDef *DMAx, uint32_t Channel, LL_DMA_InitTypeDef *DMA_InitStruct)
{
 8002fd8:	b580      	push	{r7, lr}
 8002fda:	b084      	sub	sp, #16
 8002fdc:	af00      	add	r7, sp, #0
 8002fde:	60f8      	str	r0, [r7, #12]
 8002fe0:	60b9      	str	r1, [r7, #8]
 8002fe2:	607a      	str	r2, [r7, #4]
   * - MemoryOrM2MDstIncMode:  DMA_CCR_MINC bit
   * - PeriphOrM2MSrcDataSize: DMA_CCR_PSIZE[1:0] bits
   * - MemoryOrM2MDstDataSize: DMA_CCR_MSIZE[1:0] bits
   * - Priority:               DMA_CCR_PL[1:0] bits
   */
  LL_DMA_ConfigTransfer(DMAx, Channel, DMA_InitStruct->Direction              | \
 8002fe4:	687b      	ldr	r3, [r7, #4]
 8002fe6:	689a      	ldr	r2, [r3, #8]
                        DMA_InitStruct->Mode                   | \
 8002fe8:	687b      	ldr	r3, [r7, #4]
 8002fea:	68db      	ldr	r3, [r3, #12]
  LL_DMA_ConfigTransfer(DMAx, Channel, DMA_InitStruct->Direction              | \
 8002fec:	431a      	orrs	r2, r3
                        DMA_InitStruct->PeriphOrM2MSrcIncMode  | \
 8002fee:	687b      	ldr	r3, [r7, #4]
 8002ff0:	691b      	ldr	r3, [r3, #16]
                        DMA_InitStruct->Mode                   | \
 8002ff2:	431a      	orrs	r2, r3
                        DMA_InitStruct->MemoryOrM2MDstIncMode  | \
 8002ff4:	687b      	ldr	r3, [r7, #4]
 8002ff6:	695b      	ldr	r3, [r3, #20]
                        DMA_InitStruct->PeriphOrM2MSrcIncMode  | \
 8002ff8:	431a      	orrs	r2, r3
                        DMA_InitStruct->PeriphOrM2MSrcDataSize | \
 8002ffa:	687b      	ldr	r3, [r7, #4]
 8002ffc:	699b      	ldr	r3, [r3, #24]
                        DMA_InitStruct->MemoryOrM2MDstIncMode  | \
 8002ffe:	431a      	orrs	r2, r3
                        DMA_InitStruct->MemoryOrM2MDstDataSize | \
 8003000:	687b      	ldr	r3, [r7, #4]
 8003002:	69db      	ldr	r3, [r3, #28]
                        DMA_InitStruct->PeriphOrM2MSrcDataSize | \
 8003004:	431a      	orrs	r2, r3
                        DMA_InitStruct->Priority);
 8003006:	687b      	ldr	r3, [r7, #4]
 8003008:	6a9b      	ldr	r3, [r3, #40]	; 0x28
  LL_DMA_ConfigTransfer(DMAx, Channel, DMA_InitStruct->Direction              | \
 800300a:	4313      	orrs	r3, r2
 800300c:	461a      	mov	r2, r3
 800300e:	68b9      	ldr	r1, [r7, #8]
 8003010:	68f8      	ldr	r0, [r7, #12]
 8003012:	f7ff ff35 	bl	8002e80 <LL_DMA_ConfigTransfer>

  /*-------------------------- DMAx CMAR Configuration -------------------------
   * Configure the memory or destination base address with parameter :
   * - MemoryOrM2MDstAddress: DMA_CMAR_MA[31:0] bits
   */
  LL_DMA_SetMemoryAddress(DMAx, Channel, DMA_InitStruct->MemoryOrM2MDstAddress);
 8003016:	687b      	ldr	r3, [r7, #4]
 8003018:	685b      	ldr	r3, [r3, #4]
 800301a:	461a      	mov	r2, r3
 800301c:	68b9      	ldr	r1, [r7, #8]
 800301e:	68f8      	ldr	r0, [r7, #12]
 8003020:	f7ff ff7c 	bl	8002f1c <LL_DMA_SetMemoryAddress>

  /*-------------------------- DMAx CPAR Configuration -------------------------
   * Configure the peripheral or source base address with parameter :
   * - PeriphOrM2MSrcAddress: DMA_CPAR_PA[31:0] bits
   */
  LL_DMA_SetPeriphAddress(DMAx, Channel, DMA_InitStruct->PeriphOrM2MSrcAddress);
 8003024:	687b      	ldr	r3, [r7, #4]
 8003026:	681b      	ldr	r3, [r3, #0]
 8003028:	461a      	mov	r2, r3
 800302a:	68b9      	ldr	r1, [r7, #8]
 800302c:	68f8      	ldr	r0, [r7, #12]
 800302e:	f7ff ff8f 	bl	8002f50 <LL_DMA_SetPeriphAddress>

  /*--------------------------- DMAx CNDTR Configuration -----------------------
   * Configure the peripheral base address with parameter :
   * - NbData: DMA_CNDTR_NDT[15:0] bits
   */
  LL_DMA_SetDataLength(DMAx, Channel, DMA_InitStruct->NbData);
 8003032:	687b      	ldr	r3, [r7, #4]
 8003034:	6a1b      	ldr	r3, [r3, #32]
 8003036:	461a      	mov	r2, r3
 8003038:	68b9      	ldr	r1, [r7, #8]
 800303a:	68f8      	ldr	r0, [r7, #12]
 800303c:	f7ff ff48 	bl	8002ed0 <LL_DMA_SetDataLength>

  /*--------------------------- DMAMUXx CCR Configuration ----------------------
   * Configure the DMA request for DMA Channels on DMAMUX Channel x with parameter :
   * - PeriphRequest: DMA_CxCR[7:0] bits
   */
  LL_DMA_SetPeriphRequest(DMAx, Channel, DMA_InitStruct->PeriphRequest);
 8003040:	687b      	ldr	r3, [r7, #4]
 8003042:	6a5b      	ldr	r3, [r3, #36]	; 0x24
 8003044:	461a      	mov	r2, r3
 8003046:	68b9      	ldr	r1, [r7, #8]
 8003048:	68f8      	ldr	r0, [r7, #12]
 800304a:	f7ff ff9b 	bl	8002f84 <LL_DMA_SetPeriphRequest>

  return (uint32_t)SUCCESS;
 800304e:	2300      	movs	r3, #0
}
 8003050:	4618      	mov	r0, r3
 8003052:	3710      	adds	r7, #16
 8003054:	46bd      	mov	sp, r7
 8003056:	bd80      	pop	{r7, pc}

08003058 <LL_GPIO_SetPinMode>:
{
 8003058:	b480      	push	{r7}
 800305a:	b08b      	sub	sp, #44	; 0x2c
 800305c:	af00      	add	r7, sp, #0
 800305e:	60f8      	str	r0, [r7, #12]
 8003060:	60b9      	str	r1, [r7, #8]
 8003062:	607a      	str	r2, [r7, #4]
  MODIFY_REG(GPIOx->MODER, (GPIO_MODER_MODE0 << (POSITION_VAL(Pin) * 2U)), (Mode << (POSITION_VAL(Pin) * 2U)));
 8003064:	68fb      	ldr	r3, [r7, #12]
 8003066:	681a      	ldr	r2, [r3, #0]
 8003068:	68bb      	ldr	r3, [r7, #8]
 800306a:	617b      	str	r3, [r7, #20]
  uint32_t result;

#if ((defined (__ARM_ARCH_7M__      ) && (__ARM_ARCH_7M__      == 1)) || \
     (defined (__ARM_ARCH_7EM__     ) && (__ARM_ARCH_7EM__     == 1)) || \
     (defined (__ARM_ARCH_8M_MAIN__ ) && (__ARM_ARCH_8M_MAIN__ == 1))    )
   __ASM volatile ("rbit %0, %1" : "=r" (result) : "r" (value) );
 800306c:	697b      	ldr	r3, [r7, #20]
 800306e:	fa93 f3a3 	rbit	r3, r3
 8003072:	613b      	str	r3, [r7, #16]
    result |= value & 1U;
    s--;
  }
  result <<= s;                        /* shift when v's highest bits are zero */
#endif
  return result;
 8003074:	693b      	ldr	r3, [r7, #16]
 8003076:	61bb      	str	r3, [r7, #24]
     optimisations using the logic "value was passed to __builtin_clz, so it
     is non-zero".
     ARM GCC 7.3 and possibly earlier will optimise this test away, leaving a
     single CLZ instruction.
   */
  if (value == 0U)
 8003078:	69bb      	ldr	r3, [r7, #24]
 800307a:	2b00      	cmp	r3, #0
 800307c:	d101      	bne.n	8003082 <LL_GPIO_SetPinMode+0x2a>
  {
    return 32U;
 800307e:	2320      	movs	r3, #32
 8003080:	e003      	b.n	800308a <LL_GPIO_SetPinMode+0x32>
  }
  return __builtin_clz(value);
 8003082:	69bb      	ldr	r3, [r7, #24]
 8003084:	fab3 f383 	clz	r3, r3
 8003088:	b2db      	uxtb	r3, r3
 800308a:	005b      	lsls	r3, r3, #1
 800308c:	2103      	movs	r1, #3
 800308e:	fa01 f303 	lsl.w	r3, r1, r3
 8003092:	43db      	mvns	r3, r3
 8003094:	401a      	ands	r2, r3
 8003096:	68bb      	ldr	r3, [r7, #8]
 8003098:	623b      	str	r3, [r7, #32]
   __ASM volatile ("rbit %0, %1" : "=r" (result) : "r" (value) );
 800309a:	6a3b      	ldr	r3, [r7, #32]
 800309c:	fa93 f3a3 	rbit	r3, r3
 80030a0:	61fb      	str	r3, [r7, #28]
  return result;
 80030a2:	69fb      	ldr	r3, [r7, #28]
 80030a4:	627b      	str	r3, [r7, #36]	; 0x24
  if (value == 0U)
 80030a6:	6a7b      	ldr	r3, [r7, #36]	; 0x24
 80030a8:	2b00      	cmp	r3, #0
 80030aa:	d101      	bne.n	80030b0 <LL_GPIO_SetPinMode+0x58>
    return 32U;
 80030ac:	2320      	movs	r3, #32
 80030ae:	e003      	b.n	80030b8 <LL_GPIO_SetPinMode+0x60>
  return __builtin_clz(value);
 80030b0:	6a7b      	ldr	r3, [r7, #36]	; 0x24
 80030b2:	fab3 f383 	clz	r3, r3
 80030b6:	b2db      	uxtb	r3, r3
 80030b8:	005b      	lsls	r3, r3, #1
 80030ba:	6879      	ldr	r1, [r7, #4]
 80030bc:	fa01 f303 	lsl.w	r3, r1, r3
 80030c0:	431a      	orrs	r2, r3
 80030c2:	68fb      	ldr	r3, [r7, #12]
 80030c4:	601a      	str	r2, [r3, #0]
}
 80030c6:	bf00      	nop
 80030c8:	372c      	adds	r7, #44	; 0x2c
 80030ca:	46bd      	mov	sp, r7
 80030cc:	f85d 7b04 	ldr.w	r7, [sp], #4
 80030d0:	4770      	bx	lr

080030d2 <LL_GPIO_SetPinOutputType>:
{
 80030d2:	b480      	push	{r7}
 80030d4:	b085      	sub	sp, #20
 80030d6:	af00      	add	r7, sp, #0
 80030d8:	60f8      	str	r0, [r7, #12]
 80030da:	60b9      	str	r1, [r7, #8]
 80030dc:	607a      	str	r2, [r7, #4]
  MODIFY_REG(GPIOx->OTYPER, PinMask, (PinMask * OutputType));
 80030de:	68fb      	ldr	r3, [r7, #12]
 80030e0:	685a      	ldr	r2, [r3, #4]
 80030e2:	68bb      	ldr	r3, [r7, #8]
 80030e4:	43db      	mvns	r3, r3
 80030e6:	401a      	ands	r2, r3
 80030e8:	68bb      	ldr	r3, [r7, #8]
 80030ea:	6879      	ldr	r1, [r7, #4]
 80030ec:	fb01 f303 	mul.w	r3, r1, r3
 80030f0:	431a      	orrs	r2, r3
 80030f2:	68fb      	ldr	r3, [r7, #12]
 80030f4:	605a      	str	r2, [r3, #4]
}
 80030f6:	bf00      	nop
 80030f8:	3714      	adds	r7, #20
 80030fa:	46bd      	mov	sp, r7
 80030fc:	f85d 7b04 	ldr.w	r7, [sp], #4
 8003100:	4770      	bx	lr

08003102 <LL_GPIO_SetPinSpeed>:
{
 8003102:	b480      	push	{r7}
 8003104:	b08b      	sub	sp, #44	; 0x2c
 8003106:	af00      	add	r7, sp, #0
 8003108:	60f8      	str	r0, [r7, #12]
 800310a:	60b9      	str	r1, [r7, #8]
 800310c:	607a      	str	r2, [r7, #4]
  MODIFY_REG(GPIOx->OSPEEDR, (GPIO_OSPEEDR_OSPEED0 << (POSITION_VAL(Pin) * 2U)),
 800310e:	68fb      	ldr	r3, [r7, #12]
 8003110:	689a      	ldr	r2, [r3, #8]
 8003112:	68bb      	ldr	r3, [r7, #8]
 8003114:	617b      	str	r3, [r7, #20]
   __ASM volatile ("rbit %0, %1" : "=r" (result) : "r" (value) );
 8003116:	697b      	ldr	r3, [r7, #20]
 8003118:	fa93 f3a3 	rbit	r3, r3
 800311c:	613b      	str	r3, [r7, #16]
  return result;
 800311e:	693b      	ldr	r3, [r7, #16]
 8003120:	61bb      	str	r3, [r7, #24]
  if (value == 0U)
 8003122:	69bb      	ldr	r3, [r7, #24]
 8003124:	2b00      	cmp	r3, #0
 8003126:	d101      	bne.n	800312c <LL_GPIO_SetPinSpeed+0x2a>
    return 32U;
 8003128:	2320      	movs	r3, #32
 800312a:	e003      	b.n	8003134 <LL_GPIO_SetPinSpeed+0x32>
  return __builtin_clz(value);
 800312c:	69bb      	ldr	r3, [r7, #24]
 800312e:	fab3 f383 	clz	r3, r3
 8003132:	b2db      	uxtb	r3, r3
 8003134:	005b      	lsls	r3, r3, #1
 8003136:	2103      	movs	r1, #3
 8003138:	fa01 f303 	lsl.w	r3, r1, r3
 800313c:	43db      	mvns	r3, r3
 800313e:	401a      	ands	r2, r3
 8003140:	68bb      	ldr	r3, [r7, #8]
 8003142:	623b      	str	r3, [r7, #32]
   __ASM volatile ("rbit %0, %1" : "=r" (result) : "r" (value) );
 8003144:	6a3b      	ldr	r3, [r7, #32]
 8003146:	fa93 f3a3 	rbit	r3, r3
 800314a:	61fb      	str	r3, [r7, #28]
  return result;
 800314c:	69fb      	ldr	r3, [r7, #28]
 800314e:	627b      	str	r3, [r7, #36]	; 0x24
  if (value == 0U)
 8003150:	6a7b      	ldr	r3, [r7, #36]	; 0x24
 8003152:	2b00      	cmp	r3, #0
 8003154:	d101      	bne.n	800315a <LL_GPIO_SetPinSpeed+0x58>
    return 32U;
 8003156:	2320      	movs	r3, #32
 8003158:	e003      	b.n	8003162 <LL_GPIO_SetPinSpeed+0x60>
  return __builtin_clz(value);
 800315a:	6a7b      	ldr	r3, [r7, #36]	; 0x24
 800315c:	fab3 f383 	clz	r3, r3
 8003160:	b2db      	uxtb	r3, r3
 8003162:	005b      	lsls	r3, r3, #1
 8003164:	6879      	ldr	r1, [r7, #4]
 8003166:	fa01 f303 	lsl.w	r3, r1, r3
 800316a:	431a      	orrs	r2, r3
 800316c:	68fb      	ldr	r3, [r7, #12]
 800316e:	609a      	str	r2, [r3, #8]
}
 8003170:	bf00      	nop
 8003172:	372c      	adds	r7, #44	; 0x2c
 8003174:	46bd      	mov	sp, r7
 8003176:	f85d 7b04 	ldr.w	r7, [sp], #4
 800317a:	4770      	bx	lr

0800317c <LL_GPIO_SetPinPull>:
{
 800317c:	b480      	push	{r7}
 800317e:	b08b      	sub	sp, #44	; 0x2c
 8003180:	af00      	add	r7, sp, #0
 8003182:	60f8      	str	r0, [r7, #12]
 8003184:	60b9      	str	r1, [r7, #8]
 8003186:	607a      	str	r2, [r7, #4]
  MODIFY_REG(GPIOx->PUPDR, (GPIO_PUPDR_PUPD0 << (POSITION_VAL(Pin) * 2U)), (Pull << (POSITION_VAL(Pin) * 2U)));
 8003188:	68fb      	ldr	r3, [r7, #12]
 800318a:	68da      	ldr	r2, [r3, #12]
 800318c:	68bb      	ldr	r3, [r7, #8]
 800318e:	617b      	str	r3, [r7, #20]
   __ASM volatile ("rbit %0, %1" : "=r" (result) : "r" (value) );
 8003190:	697b      	ldr	r3, [r7, #20]
 8003192:	fa93 f3a3 	rbit	r3, r3
 8003196:	613b      	str	r3, [r7, #16]
  return result;
 8003198:	693b      	ldr	r3, [r7, #16]
 800319a:	61bb      	str	r3, [r7, #24]
  if (value == 0U)
 800319c:	69bb      	ldr	r3, [r7, #24]
 800319e:	2b00      	cmp	r3, #0
 80031a0:	d101      	bne.n	80031a6 <LL_GPIO_SetPinPull+0x2a>
    return 32U;
 80031a2:	2320      	movs	r3, #32
 80031a4:	e003      	b.n	80031ae <LL_GPIO_SetPinPull+0x32>
  return __builtin_clz(value);
 80031a6:	69bb      	ldr	r3, [r7, #24]
 80031a8:	fab3 f383 	clz	r3, r3
 80031ac:	b2db      	uxtb	r3, r3
 80031ae:	005b      	lsls	r3, r3, #1
 80031b0:	2103      	movs	r1, #3
 80031b2:	fa01 f303 	lsl.w	r3, r1, r3
 80031b6:	43db      	mvns	r3, r3
 80031b8:	401a      	ands	r2, r3
 80031ba:	68bb      	ldr	r3, [r7, #8]
 80031bc:	623b      	str	r3, [r7, #32]
   __ASM volatile ("rbit %0, %1" : "=r" (result) : "r" (value) );
 80031be:	6a3b      	ldr	r3, [r7, #32]
 80031c0:	fa93 f3a3 	rbit	r3, r3
 80031c4:	61fb      	str	r3, [r7, #28]
  return result;
 80031c6:	69fb      	ldr	r3, [r7, #28]
 80031c8:	627b      	str	r3, [r7, #36]	; 0x24
  if (value == 0U)
 80031ca:	6a7b      	ldr	r3, [r7, #36]	; 0x24
 80031cc:	2b00      	cmp	r3, #0
 80031ce:	d101      	bne.n	80031d4 <LL_GPIO_SetPinPull+0x58>
    return 32U;
 80031d0:	2320      	movs	r3, #32
 80031d2:	e003      	b.n	80031dc <LL_GPIO_SetPinPull+0x60>
  return __builtin_clz(value);
 80031d4:	6a7b      	ldr	r3, [r7, #36]	; 0x24
 80031d6:	fab3 f383 	clz	r3, r3
 80031da:	b2db      	uxtb	r3, r3
 80031dc:	005b      	lsls	r3, r3, #1
 80031de:	6879      	ldr	r1, [r7, #4]
 80031e0:	fa01 f303 	lsl.w	r3, r1, r3
 80031e4:	431a      	orrs	r2, r3
 80031e6:	68fb      	ldr	r3, [r7, #12]
 80031e8:	60da      	str	r2, [r3, #12]
}
 80031ea:	bf00      	nop
 80031ec:	372c      	adds	r7, #44	; 0x2c
 80031ee:	46bd      	mov	sp, r7
 80031f0:	f85d 7b04 	ldr.w	r7, [sp], #4
 80031f4:	4770      	bx	lr

080031f6 <LL_GPIO_SetAFPin_0_7>:
{
 80031f6:	b480      	push	{r7}
 80031f8:	b08b      	sub	sp, #44	; 0x2c
 80031fa:	af00      	add	r7, sp, #0
 80031fc:	60f8      	str	r0, [r7, #12]
 80031fe:	60b9      	str	r1, [r7, #8]
 8003200:	607a      	str	r2, [r7, #4]
  MODIFY_REG(GPIOx->AFR[0], (GPIO_AFRL_AFSEL0 << (POSITION_VAL(Pin) * 4U)),
 8003202:	68fb      	ldr	r3, [r7, #12]
 8003204:	6a1a      	ldr	r2, [r3, #32]
 8003206:	68bb      	ldr	r3, [r7, #8]
 8003208:	617b      	str	r3, [r7, #20]
   __ASM volatile ("rbit %0, %1" : "=r" (result) : "r" (value) );
 800320a:	697b      	ldr	r3, [r7, #20]
 800320c:	fa93 f3a3 	rbit	r3, r3
 8003210:	613b      	str	r3, [r7, #16]
  return result;
 8003212:	693b      	ldr	r3, [r7, #16]
 8003214:	61bb      	str	r3, [r7, #24]
  if (value == 0U)
 8003216:	69bb      	ldr	r3, [r7, #24]
 8003218:	2b00      	cmp	r3, #0
 800321a:	d101      	bne.n	8003220 <LL_GPIO_SetAFPin_0_7+0x2a>
    return 32U;
 800321c:	2320      	movs	r3, #32
 800321e:	e003      	b.n	8003228 <LL_GPIO_SetAFPin_0_7+0x32>
  return __builtin_clz(value);
 8003220:	69bb      	ldr	r3, [r7, #24]
 8003222:	fab3 f383 	clz	r3, r3
 8003226:	b2db      	uxtb	r3, r3
 8003228:	009b      	lsls	r3, r3, #2
 800322a:	210f      	movs	r1, #15
 800322c:	fa01 f303 	lsl.w	r3, r1, r3
 8003230:	43db      	mvns	r3, r3
 8003232:	401a      	ands	r2, r3
 8003234:	68bb      	ldr	r3, [r7, #8]
 8003236:	623b      	str	r3, [r7, #32]
   __ASM volatile ("rbit %0, %1" : "=r" (result) : "r" (value) );
 8003238:	6a3b      	ldr	r3, [r7, #32]
 800323a:	fa93 f3a3 	rbit	r3, r3
 800323e:	61fb      	str	r3, [r7, #28]
  return result;
 8003240:	69fb      	ldr	r3, [r7, #28]
 8003242:	627b      	str	r3, [r7, #36]	; 0x24
  if (value == 0U)
 8003244:	6a7b      	ldr	r3, [r7, #36]	; 0x24
 8003246:	2b00      	cmp	r3, #0
 8003248:	d101      	bne.n	800324e <LL_GPIO_SetAFPin_0_7+0x58>
    return 32U;
 800324a:	2320      	movs	r3, #32
 800324c:	e003      	b.n	8003256 <LL_GPIO_SetAFPin_0_7+0x60>
  return __builtin_clz(value);
 800324e:	6a7b      	ldr	r3, [r7, #36]	; 0x24
 8003250:	fab3 f383 	clz	r3, r3
 8003254:	b2db      	uxtb	r3, r3
 8003256:	009b      	lsls	r3, r3, #2
 8003258:	6879      	ldr	r1, [r7, #4]
 800325a:	fa01 f303 	lsl.w	r3, r1, r3
 800325e:	431a      	orrs	r2, r3
 8003260:	68fb      	ldr	r3, [r7, #12]
 8003262:	621a      	str	r2, [r3, #32]
}
 8003264:	bf00      	nop
 8003266:	372c      	adds	r7, #44	; 0x2c
 8003268:	46bd      	mov	sp, r7
 800326a:	f85d 7b04 	ldr.w	r7, [sp], #4
 800326e:	4770      	bx	lr

08003270 <LL_GPIO_SetAFPin_8_15>:
{
 8003270:	b480      	push	{r7}
 8003272:	b08b      	sub	sp, #44	; 0x2c
 8003274:	af00      	add	r7, sp, #0
 8003276:	60f8      	str	r0, [r7, #12]
 8003278:	60b9      	str	r1, [r7, #8]
 800327a:	607a      	str	r2, [r7, #4]
  MODIFY_REG(GPIOx->AFR[1], (GPIO_AFRH_AFSEL8 << (POSITION_VAL(Pin >> 8U) * 4U)),
 800327c:	68fb      	ldr	r3, [r7, #12]
 800327e:	6a5a      	ldr	r2, [r3, #36]	; 0x24
 8003280:	68bb      	ldr	r3, [r7, #8]
 8003282:	0a1b      	lsrs	r3, r3, #8
 8003284:	617b      	str	r3, [r7, #20]
   __ASM volatile ("rbit %0, %1" : "=r" (result) : "r" (value) );
 8003286:	697b      	ldr	r3, [r7, #20]
 8003288:	fa93 f3a3 	rbit	r3, r3
 800328c:	613b      	str	r3, [r7, #16]
  return result;
 800328e:	693b      	ldr	r3, [r7, #16]
 8003290:	61bb      	str	r3, [r7, #24]
  if (value == 0U)
 8003292:	69bb      	ldr	r3, [r7, #24]
 8003294:	2b00      	cmp	r3, #0
 8003296:	d101      	bne.n	800329c <LL_GPIO_SetAFPin_8_15+0x2c>
    return 32U;
 8003298:	2320      	movs	r3, #32
 800329a:	e003      	b.n	80032a4 <LL_GPIO_SetAFPin_8_15+0x34>
  return __builtin_clz(value);
 800329c:	69bb      	ldr	r3, [r7, #24]
 800329e:	fab3 f383 	clz	r3, r3
 80032a2:	b2db      	uxtb	r3, r3
 80032a4:	009b      	lsls	r3, r3, #2
 80032a6:	210f      	movs	r1, #15
 80032a8:	fa01 f303 	lsl.w	r3, r1, r3
 80032ac:	43db      	mvns	r3, r3
 80032ae:	401a      	ands	r2, r3
 80032b0:	68bb      	ldr	r3, [r7, #8]
 80032b2:	0a1b      	lsrs	r3, r3, #8
 80032b4:	623b      	str	r3, [r7, #32]
   __ASM volatile ("rbit %0, %1" : "=r" (result) : "r" (value) );
 80032b6:	6a3b      	ldr	r3, [r7, #32]
 80032b8:	fa93 f3a3 	rbit	r3, r3
 80032bc:	61fb      	str	r3, [r7, #28]
  return result;
 80032be:	69fb      	ldr	r3, [r7, #28]
 80032c0:	627b      	str	r3, [r7, #36]	; 0x24
  if (value == 0U)
 80032c2:	6a7b      	ldr	r3, [r7, #36]	; 0x24
 80032c4:	2b00      	cmp	r3, #0
 80032c6:	d101      	bne.n	80032cc <LL_GPIO_SetAFPin_8_15+0x5c>
    return 32U;
 80032c8:	2320      	movs	r3, #32
 80032ca:	e003      	b.n	80032d4 <LL_GPIO_SetAFPin_8_15+0x64>
  return __builtin_clz(value);
 80032cc:	6a7b      	ldr	r3, [r7, #36]	; 0x24
 80032ce:	fab3 f383 	clz	r3, r3
 80032d2:	b2db      	uxtb	r3, r3
 80032d4:	009b      	lsls	r3, r3, #2
 80032d6:	6879      	ldr	r1, [r7, #4]
 80032d8:	fa01 f303 	lsl.w	r3, r1, r3
 80032dc:	431a      	orrs	r2, r3
 80032de:	68fb      	ldr	r3, [r7, #12]
 80032e0:	625a      	str	r2, [r3, #36]	; 0x24
}
 80032e2:	bf00      	nop
 80032e4:	372c      	adds	r7, #44	; 0x2c
 80032e6:	46bd      	mov	sp, r7
 80032e8:	f85d 7b04 	ldr.w	r7, [sp], #4
 80032ec:	4770      	bx	lr

080032ee <LL_GPIO_Init>:
  * @retval An ErrorStatus enumeration value:
  *          - SUCCESS: GPIO registers are initialized according to GPIO_InitStruct content
  *          - ERROR:   Not applicable
  */
ErrorStatus LL_GPIO_Init(GPIO_TypeDef *GPIOx, LL_GPIO_InitTypeDef *GPIO_InitStruct)
{
 80032ee:	b580      	push	{r7, lr}
 80032f0:	b088      	sub	sp, #32
 80032f2:	af00      	add	r7, sp, #0
 80032f4:	6078      	str	r0, [r7, #4]
 80032f6:	6039      	str	r1, [r7, #0]
  assert_param(IS_LL_GPIO_MODE(GPIO_InitStruct->Mode));
  assert_param(IS_LL_GPIO_PULL(GPIO_InitStruct->Pull));

  /* ------------------------- Configure the port pins ---------------- */
  /* Initialize  pinpos on first pin set */
  pinpos = POSITION_VAL(GPIO_InitStruct->Pin);
 80032f8:	683b      	ldr	r3, [r7, #0]
 80032fa:	681b      	ldr	r3, [r3, #0]
 80032fc:	613b      	str	r3, [r7, #16]
   __ASM volatile ("rbit %0, %1" : "=r" (result) : "r" (value) );
 80032fe:	693b      	ldr	r3, [r7, #16]
 8003300:	fa93 f3a3 	rbit	r3, r3
 8003304:	60fb      	str	r3, [r7, #12]
  return result;
 8003306:	68fb      	ldr	r3, [r7, #12]
 8003308:	617b      	str	r3, [r7, #20]
  if (value == 0U)
 800330a:	697b      	ldr	r3, [r7, #20]
 800330c:	2b00      	cmp	r3, #0
 800330e:	d101      	bne.n	8003314 <LL_GPIO_Init+0x26>
    return 32U;
 8003310:	2320      	movs	r3, #32
 8003312:	e003      	b.n	800331c <LL_GPIO_Init+0x2e>
  return __builtin_clz(value);
 8003314:	697b      	ldr	r3, [r7, #20]
 8003316:	fab3 f383 	clz	r3, r3
 800331a:	b2db      	uxtb	r3, r3
 800331c:	61fb      	str	r3, [r7, #28]

  /* Configure the port pins */
  while (((GPIO_InitStruct->Pin) >> pinpos) != 0x00000000U)
 800331e:	e048      	b.n	80033b2 <LL_GPIO_Init+0xc4>
  {
    /* Get current io position */
    currentpin = (GPIO_InitStruct->Pin) & (0x00000001UL << pinpos);
 8003320:	683b      	ldr	r3, [r7, #0]
 8003322:	681a      	ldr	r2, [r3, #0]
 8003324:	2101      	movs	r1, #1
 8003326:	69fb      	ldr	r3, [r7, #28]
 8003328:	fa01 f303 	lsl.w	r3, r1, r3
 800332c:	4013      	ands	r3, r2
 800332e:	61bb      	str	r3, [r7, #24]

    if (currentpin != 0x00u)
 8003330:	69bb      	ldr	r3, [r7, #24]
 8003332:	2b00      	cmp	r3, #0
 8003334:	d03a      	beq.n	80033ac <LL_GPIO_Init+0xbe>
    {
      if ((GPIO_InitStruct->Mode == LL_GPIO_MODE_OUTPUT) || (GPIO_InitStruct->Mode == LL_GPIO_MODE_ALTERNATE))
 8003336:	683b      	ldr	r3, [r7, #0]
 8003338:	685b      	ldr	r3, [r3, #4]
 800333a:	2b01      	cmp	r3, #1
 800333c:	d003      	beq.n	8003346 <LL_GPIO_Init+0x58>
 800333e:	683b      	ldr	r3, [r7, #0]
 8003340:	685b      	ldr	r3, [r3, #4]
 8003342:	2b02      	cmp	r3, #2
 8003344:	d10e      	bne.n	8003364 <LL_GPIO_Init+0x76>
      {
        /* Check Speed mode parameters */
        assert_param(IS_LL_GPIO_SPEED(GPIO_InitStruct->Speed));

        /* Speed mode configuration */
        LL_GPIO_SetPinSpeed(GPIOx, currentpin, GPIO_InitStruct->Speed);
 8003346:	683b      	ldr	r3, [r7, #0]
 8003348:	689b      	ldr	r3, [r3, #8]
 800334a:	461a      	mov	r2, r3
 800334c:	69b9      	ldr	r1, [r7, #24]
 800334e:	6878      	ldr	r0, [r7, #4]
 8003350:	f7ff fed7 	bl	8003102 <LL_GPIO_SetPinSpeed>

        /* Check Output mode parameters */
        assert_param(IS_LL_GPIO_OUTPUT_TYPE(GPIO_InitStruct->OutputType));

        /* Output mode configuration*/
        LL_GPIO_SetPinOutputType(GPIOx, GPIO_InitStruct->Pin, GPIO_InitStruct->OutputType);
 8003354:	683b      	ldr	r3, [r7, #0]
 8003356:	6819      	ldr	r1, [r3, #0]
 8003358:	683b      	ldr	r3, [r7, #0]
 800335a:	68db      	ldr	r3, [r3, #12]
 800335c:	461a      	mov	r2, r3
 800335e:	6878      	ldr	r0, [r7, #4]
 8003360:	f7ff feb7 	bl	80030d2 <LL_GPIO_SetPinOutputType>
      }

      /* Pull-up Pull down resistor configuration*/
      LL_GPIO_SetPinPull(GPIOx, currentpin, GPIO_InitStruct->Pull);
 8003364:	683b      	ldr	r3, [r7, #0]
 8003366:	691b      	ldr	r3, [r3, #16]
 8003368:	461a      	mov	r2, r3
 800336a:	69b9      	ldr	r1, [r7, #24]
 800336c:	6878      	ldr	r0, [r7, #4]
 800336e:	f7ff ff05 	bl	800317c <LL_GPIO_SetPinPull>

      if (GPIO_InitStruct->Mode == LL_GPIO_MODE_ALTERNATE)
 8003372:	683b      	ldr	r3, [r7, #0]
 8003374:	685b      	ldr	r3, [r3, #4]
 8003376:	2b02      	cmp	r3, #2
 8003378:	d111      	bne.n	800339e <LL_GPIO_Init+0xb0>
      {
        /* Check Alternate parameter */
        assert_param(IS_LL_GPIO_ALTERNATE(GPIO_InitStruct->Alternate));

        /* Speed mode configuration */
        if (currentpin < LL_GPIO_PIN_8)
 800337a:	69bb      	ldr	r3, [r7, #24]
 800337c:	2bff      	cmp	r3, #255	; 0xff
 800337e:	d807      	bhi.n	8003390 <LL_GPIO_Init+0xa2>
        {
          LL_GPIO_SetAFPin_0_7(GPIOx, currentpin, GPIO_InitStruct->Alternate);
 8003380:	683b      	ldr	r3, [r7, #0]
 8003382:	695b      	ldr	r3, [r3, #20]
 8003384:	461a      	mov	r2, r3
 8003386:	69b9      	ldr	r1, [r7, #24]
 8003388:	6878      	ldr	r0, [r7, #4]
 800338a:	f7ff ff34 	bl	80031f6 <LL_GPIO_SetAFPin_0_7>
 800338e:	e006      	b.n	800339e <LL_GPIO_Init+0xb0>
        }
        else
        {
          LL_GPIO_SetAFPin_8_15(GPIOx, currentpin, GPIO_InitStruct->Alternate);
 8003390:	683b      	ldr	r3, [r7, #0]
 8003392:	695b      	ldr	r3, [r3, #20]
 8003394:	461a      	mov	r2, r3
 8003396:	69b9      	ldr	r1, [r7, #24]
 8003398:	6878      	ldr	r0, [r7, #4]
 800339a:	f7ff ff69 	bl	8003270 <LL_GPIO_SetAFPin_8_15>
        }
      }

      /* Pin Mode configuration */
      LL_GPIO_SetPinMode(GPIOx, currentpin, GPIO_InitStruct->Mode);
 800339e:	683b      	ldr	r3, [r7, #0]
 80033a0:	685b      	ldr	r3, [r3, #4]
 80033a2:	461a      	mov	r2, r3
 80033a4:	69b9      	ldr	r1, [r7, #24]
 80033a6:	6878      	ldr	r0, [r7, #4]
 80033a8:	f7ff fe56 	bl	8003058 <LL_GPIO_SetPinMode>
    }
    pinpos++;
 80033ac:	69fb      	ldr	r3, [r7, #28]
 80033ae:	3301      	adds	r3, #1
 80033b0:	61fb      	str	r3, [r7, #28]
  while (((GPIO_InitStruct->Pin) >> pinpos) != 0x00000000U)
 80033b2:	683b      	ldr	r3, [r7, #0]
 80033b4:	681a      	ldr	r2, [r3, #0]
 80033b6:	69fb      	ldr	r3, [r7, #28]
 80033b8:	fa22 f303 	lsr.w	r3, r2, r3
 80033bc:	2b00      	cmp	r3, #0
 80033be:	d1af      	bne.n	8003320 <LL_GPIO_Init+0x32>
  }
  return (SUCCESS);
 80033c0:	2300      	movs	r3, #0
}
 80033c2:	4618      	mov	r0, r3
 80033c4:	3720      	adds	r7, #32
 80033c6:	46bd      	mov	sp, r7
 80033c8:	bd80      	pop	{r7, pc}
	...

080033cc <LL_RCC_HSI_IsReady>:
  * @brief  Check if HSI clock is ready
  * @rmtoll CR           HSIRDY        LL_RCC_HSI_IsReady
  * @retval State of bit (1 or 0).
  */
__STATIC_INLINE uint32_t LL_RCC_HSI_IsReady(void)
{
 80033cc:	b480      	push	{r7}
 80033ce:	af00      	add	r7, sp, #0
  return ((READ_BIT(RCC->CR, RCC_CR_HSIRDY) == (RCC_CR_HSIRDY)) ? 1UL : 0UL);
 80033d0:	4b07      	ldr	r3, [pc, #28]	; (80033f0 <LL_RCC_HSI_IsReady+0x24>)
 80033d2:	681b      	ldr	r3, [r3, #0]
 80033d4:	f403 6380 	and.w	r3, r3, #1024	; 0x400
 80033d8:	f5b3 6f80 	cmp.w	r3, #1024	; 0x400
 80033dc:	d101      	bne.n	80033e2 <LL_RCC_HSI_IsReady+0x16>
 80033de:	2301      	movs	r3, #1
 80033e0:	e000      	b.n	80033e4 <LL_RCC_HSI_IsReady+0x18>
 80033e2:	2300      	movs	r3, #0
}
 80033e4:	4618      	mov	r0, r3
 80033e6:	46bd      	mov	sp, r7
 80033e8:	f85d 7b04 	ldr.w	r7, [sp], #4
 80033ec:	4770      	bx	lr
 80033ee:	bf00      	nop
 80033f0:	40021000 	.word	0x40021000

080033f4 <LL_RCC_LSE_IsReady>:
  * @brief  Check if LSE oscillator Ready
  * @rmtoll BDCR         LSERDY        LL_RCC_LSE_IsReady
  * @retval State of bit (1 or 0).
  */
__STATIC_INLINE uint32_t LL_RCC_LSE_IsReady(void)
{
 80033f4:	b480      	push	{r7}
 80033f6:	af00      	add	r7, sp, #0
  return ((READ_BIT(RCC->BDCR, RCC_BDCR_LSERDY) == (RCC_BDCR_LSERDY)) ? 1UL : 0UL);
 80033f8:	4b07      	ldr	r3, [pc, #28]	; (8003418 <LL_RCC_LSE_IsReady+0x24>)
 80033fa:	f8d3 3090 	ldr.w	r3, [r3, #144]	; 0x90
 80033fe:	f003 0302 	and.w	r3, r3, #2
 8003402:	2b02      	cmp	r3, #2
 8003404:	d101      	bne.n	800340a <LL_RCC_LSE_IsReady+0x16>
 8003406:	2301      	movs	r3, #1
 8003408:	e000      	b.n	800340c <LL_RCC_LSE_IsReady+0x18>
 800340a:	2300      	movs	r3, #0
}
 800340c:	4618      	mov	r0, r3
 800340e:	46bd      	mov	sp, r7
 8003410:	f85d 7b04 	ldr.w	r7, [sp], #4
 8003414:	4770      	bx	lr
 8003416:	bf00      	nop
 8003418:	40021000 	.word	0x40021000

0800341c <LL_RCC_GetSysClkSource>:
  *         @arg @ref LL_RCC_SYS_CLKSOURCE_STATUS_HSI
  *         @arg @ref LL_RCC_SYS_CLKSOURCE_STATUS_HSE
  *         @arg @ref LL_RCC_SYS_CLKSOURCE_STATUS_PLL
  */
__STATIC_INLINE uint32_t LL_RCC_GetSysClkSource(void)
{
 800341c:	b480      	push	{r7}
 800341e:	af00      	add	r7, sp, #0
  return (uint32_t)(READ_BIT(RCC->CFGR, RCC_CFGR_SWS));
 8003420:	4b04      	ldr	r3, [pc, #16]	; (8003434 <LL_RCC_GetSysClkSource+0x18>)
 8003422:	689b      	ldr	r3, [r3, #8]
 8003424:	f003 030c 	and.w	r3, r3, #12
}
 8003428:	4618      	mov	r0, r3
 800342a:	46bd      	mov	sp, r7
 800342c:	f85d 7b04 	ldr.w	r7, [sp], #4
 8003430:	4770      	bx	lr
 8003432:	bf00      	nop
 8003434:	40021000 	.word	0x40021000

08003438 <LL_RCC_GetAHBPrescaler>:
  *         @arg @ref LL_RCC_SYSCLK_DIV_128
  *         @arg @ref LL_RCC_SYSCLK_DIV_256
  *         @arg @ref LL_RCC_SYSCLK_DIV_512
  */
__STATIC_INLINE uint32_t LL_RCC_GetAHBPrescaler(void)
{
 8003438:	b480      	push	{r7}
 800343a:	af00      	add	r7, sp, #0
  return (uint32_t)(READ_BIT(RCC->CFGR, RCC_CFGR_HPRE));
 800343c:	4b04      	ldr	r3, [pc, #16]	; (8003450 <LL_RCC_GetAHBPrescaler+0x18>)
 800343e:	689b      	ldr	r3, [r3, #8]
 8003440:	f003 03f0 	and.w	r3, r3, #240	; 0xf0
}
 8003444:	4618      	mov	r0, r3
 8003446:	46bd      	mov	sp, r7
 8003448:	f85d 7b04 	ldr.w	r7, [sp], #4
 800344c:	4770      	bx	lr
 800344e:	bf00      	nop
 8003450:	40021000 	.word	0x40021000

08003454 <LL_RCC_GetAPB1Prescaler>:
  *         @arg @ref LL_RCC_APB1_DIV_4
  *         @arg @ref LL_RCC_APB1_DIV_8
  *         @arg @ref LL_RCC_APB1_DIV_16
  */
__STATIC_INLINE uint32_t LL_RCC_GetAPB1Prescaler(void)
{
 8003454:	b480      	push	{r7}
 8003456:	af00      	add	r7, sp, #0
  return (uint32_t)(READ_BIT(RCC->CFGR, RCC_CFGR_PPRE1));
 8003458:	4b04      	ldr	r3, [pc, #16]	; (800346c <LL_RCC_GetAPB1Prescaler+0x18>)
 800345a:	689b      	ldr	r3, [r3, #8]
 800345c:	f403 63e0 	and.w	r3, r3, #1792	; 0x700
}
 8003460:	4618      	mov	r0, r3
 8003462:	46bd      	mov	sp, r7
 8003464:	f85d 7b04 	ldr.w	r7, [sp], #4
 8003468:	4770      	bx	lr
 800346a:	bf00      	nop
 800346c:	40021000 	.word	0x40021000

08003470 <LL_RCC_GetAPB2Prescaler>:
  *         @arg @ref LL_RCC_APB2_DIV_4
  *         @arg @ref LL_RCC_APB2_DIV_8
  *         @arg @ref LL_RCC_APB2_DIV_16
  */
__STATIC_INLINE uint32_t LL_RCC_GetAPB2Prescaler(void)
{
 8003470:	b480      	push	{r7}
 8003472:	af00      	add	r7, sp, #0
  return (uint32_t)(READ_BIT(RCC->CFGR, RCC_CFGR_PPRE2));
 8003474:	4b04      	ldr	r3, [pc, #16]	; (8003488 <LL_RCC_GetAPB2Prescaler+0x18>)
 8003476:	689b      	ldr	r3, [r3, #8]
 8003478:	f403 5360 	and.w	r3, r3, #14336	; 0x3800
}
 800347c:	4618      	mov	r0, r3
 800347e:	46bd      	mov	sp, r7
 8003480:	f85d 7b04 	ldr.w	r7, [sp], #4
 8003484:	4770      	bx	lr
 8003486:	bf00      	nop
 8003488:	40021000 	.word	0x40021000

0800348c <LL_RCC_GetUSARTClockSource>:
  *         @arg @ref LL_RCC_USART3_CLKSOURCE_SYSCLK
  *         @arg @ref LL_RCC_USART3_CLKSOURCE_HSI
  *         @arg @ref LL_RCC_USART3_CLKSOURCE_LSE
  */
__STATIC_INLINE uint32_t LL_RCC_GetUSARTClockSource(uint32_t USARTx)
{
 800348c:	b480      	push	{r7}
 800348e:	b083      	sub	sp, #12
 8003490:	af00      	add	r7, sp, #0
 8003492:	6078      	str	r0, [r7, #4]
  return (uint32_t)(READ_BIT(RCC->CCIPR, USARTx) | (USARTx << 16U));
 8003494:	4b06      	ldr	r3, [pc, #24]	; (80034b0 <LL_RCC_GetUSARTClockSource+0x24>)
 8003496:	f8d3 2088 	ldr.w	r2, [r3, #136]	; 0x88
 800349a:	687b      	ldr	r3, [r7, #4]
 800349c:	401a      	ands	r2, r3
 800349e:	687b      	ldr	r3, [r7, #4]
 80034a0:	041b      	lsls	r3, r3, #16
 80034a2:	4313      	orrs	r3, r2
}
 80034a4:	4618      	mov	r0, r3
 80034a6:	370c      	adds	r7, #12
 80034a8:	46bd      	mov	sp, r7
 80034aa:	f85d 7b04 	ldr.w	r7, [sp], #4
 80034ae:	4770      	bx	lr
 80034b0:	40021000 	.word	0x40021000

080034b4 <LL_RCC_GetUARTClockSource>:
  *         @arg @ref LL_RCC_UART5_CLKSOURCE_LSE (*)
  *
  *         (*) value not defined in all devices.
  */
__STATIC_INLINE uint32_t LL_RCC_GetUARTClockSource(uint32_t UARTx)
{
 80034b4:	b480      	push	{r7}
 80034b6:	b083      	sub	sp, #12
 80034b8:	af00      	add	r7, sp, #0
 80034ba:	6078      	str	r0, [r7, #4]
  return (uint32_t)(READ_BIT(RCC->CCIPR, UARTx) | (UARTx << 16U));
 80034bc:	4b06      	ldr	r3, [pc, #24]	; (80034d8 <LL_RCC_GetUARTClockSource+0x24>)
 80034be:	f8d3 2088 	ldr.w	r2, [r3, #136]	; 0x88
 80034c2:	687b      	ldr	r3, [r7, #4]
 80034c4:	401a      	ands	r2, r3
 80034c6:	687b      	ldr	r3, [r7, #4]
 80034c8:	041b      	lsls	r3, r3, #16
 80034ca:	4313      	orrs	r3, r2
}
 80034cc:	4618      	mov	r0, r3
 80034ce:	370c      	adds	r7, #12
 80034d0:	46bd      	mov	sp, r7
 80034d2:	f85d 7b04 	ldr.w	r7, [sp], #4
 80034d6:	4770      	bx	lr
 80034d8:	40021000 	.word	0x40021000

080034dc <LL_RCC_PLL_GetMainSource>:
  *         @arg @ref LL_RCC_PLLSOURCE_NONE
  *         @arg @ref LL_RCC_PLLSOURCE_HSI
  *         @arg @ref LL_RCC_PLLSOURCE_HSE
  */
__STATIC_INLINE uint32_t LL_RCC_PLL_GetMainSource(void)
{
 80034dc:	b480      	push	{r7}
 80034de:	af00      	add	r7, sp, #0
  return (uint32_t)(READ_BIT(RCC->PLLCFGR, RCC_PLLCFGR_PLLSRC));
 80034e0:	4b04      	ldr	r3, [pc, #16]	; (80034f4 <LL_RCC_PLL_GetMainSource+0x18>)
 80034e2:	68db      	ldr	r3, [r3, #12]
 80034e4:	f003 0303 	and.w	r3, r3, #3
}
 80034e8:	4618      	mov	r0, r3
 80034ea:	46bd      	mov	sp, r7
 80034ec:	f85d 7b04 	ldr.w	r7, [sp], #4
 80034f0:	4770      	bx	lr
 80034f2:	bf00      	nop
 80034f4:	40021000 	.word	0x40021000

080034f8 <LL_RCC_PLL_GetN>:
  * @brief  Get Main PLL multiplication factor for VCO
  * @rmtoll PLLCFGR      PLLN          LL_RCC_PLL_GetN
  * @retval Between Min_Data = 8 and Max_Data = 127
  */
__STATIC_INLINE uint32_t LL_RCC_PLL_GetN(void)
{
 80034f8:	b480      	push	{r7}
 80034fa:	af00      	add	r7, sp, #0
  return (uint32_t)(READ_BIT(RCC->PLLCFGR, RCC_PLLCFGR_PLLN) >>  RCC_PLLCFGR_PLLN_Pos);
 80034fc:	4b04      	ldr	r3, [pc, #16]	; (8003510 <LL_RCC_PLL_GetN+0x18>)
 80034fe:	68db      	ldr	r3, [r3, #12]
 8003500:	0a1b      	lsrs	r3, r3, #8
 8003502:	f003 037f 	and.w	r3, r3, #127	; 0x7f
}
 8003506:	4618      	mov	r0, r3
 8003508:	46bd      	mov	sp, r7
 800350a:	f85d 7b04 	ldr.w	r7, [sp], #4
 800350e:	4770      	bx	lr
 8003510:	40021000 	.word	0x40021000

08003514 <LL_RCC_PLL_GetR>:
  *         @arg @ref LL_RCC_PLLR_DIV_4
  *         @arg @ref LL_RCC_PLLR_DIV_6
  *         @arg @ref LL_RCC_PLLR_DIV_8
  */
__STATIC_INLINE uint32_t LL_RCC_PLL_GetR(void)
{
 8003514:	b480      	push	{r7}
 8003516:	af00      	add	r7, sp, #0
  return (uint32_t)(READ_BIT(RCC->PLLCFGR, RCC_PLLCFGR_PLLR));
 8003518:	4b04      	ldr	r3, [pc, #16]	; (800352c <LL_RCC_PLL_GetR+0x18>)
 800351a:	68db      	ldr	r3, [r3, #12]
 800351c:	f003 63c0 	and.w	r3, r3, #100663296	; 0x6000000
}
 8003520:	4618      	mov	r0, r3
 8003522:	46bd      	mov	sp, r7
 8003524:	f85d 7b04 	ldr.w	r7, [sp], #4
 8003528:	4770      	bx	lr
 800352a:	bf00      	nop
 800352c:	40021000 	.word	0x40021000

08003530 <LL_RCC_PLL_GetDivider>:
  *         @arg @ref LL_RCC_PLLM_DIV_14
  *         @arg @ref LL_RCC_PLLM_DIV_15
  *         @arg @ref LL_RCC_PLLM_DIV_16
  */
__STATIC_INLINE uint32_t LL_RCC_PLL_GetDivider(void)
{
 8003530:	b480      	push	{r7}
 8003532:	af00      	add	r7, sp, #0
  return (uint32_t)(READ_BIT(RCC->PLLCFGR, RCC_PLLCFGR_PLLM));
 8003534:	4b04      	ldr	r3, [pc, #16]	; (8003548 <LL_RCC_PLL_GetDivider+0x18>)
 8003536:	68db      	ldr	r3, [r3, #12]
 8003538:	f003 03f0 	and.w	r3, r3, #240	; 0xf0
}
 800353c:	4618      	mov	r0, r3
 800353e:	46bd      	mov	sp, r7
 8003540:	f85d 7b04 	ldr.w	r7, [sp], #4
 8003544:	4770      	bx	lr
 8003546:	bf00      	nop
 8003548:	40021000 	.word	0x40021000

0800354c <LL_RCC_GetUSARTClockFreq>:
  *
  * @retval USART clock frequency (in Hz)
  *         - @ref  LL_RCC_PERIPH_FREQUENCY_NO indicates that oscillator (HSI or LSE) is not ready
  */
uint32_t LL_RCC_GetUSARTClockFreq(uint32_t USARTxSource)
{
 800354c:	b580      	push	{r7, lr}
 800354e:	b084      	sub	sp, #16
 8003550:	af00      	add	r7, sp, #0
 8003552:	6078      	str	r0, [r7, #4]
  uint32_t usart_frequency = LL_RCC_PERIPH_FREQUENCY_NO;
 8003554:	2300      	movs	r3, #0
 8003556:	60fb      	str	r3, [r7, #12]

  /* Check parameter */
  assert_param(IS_LL_RCC_USART_CLKSOURCE(USARTxSource));

  if (USARTxSource == LL_RCC_USART1_CLKSOURCE)
 8003558:	687b      	ldr	r3, [r7, #4]
 800355a:	2b03      	cmp	r3, #3
 800355c:	d132      	bne.n	80035c4 <LL_RCC_GetUSARTClockFreq+0x78>
  {
    /* USART1CLK clock frequency */
    switch (LL_RCC_GetUSARTClockSource(USARTxSource))
 800355e:	6878      	ldr	r0, [r7, #4]
 8003560:	f7ff ff94 	bl	800348c <LL_RCC_GetUSARTClockSource>
 8003564:	4603      	mov	r3, r0
 8003566:	f1b3 1f03 	cmp.w	r3, #196611	; 0x30003
 800356a:	d016      	beq.n	800359a <LL_RCC_GetUSARTClockFreq+0x4e>
 800356c:	f1b3 1f03 	cmp.w	r3, #196611	; 0x30003
 8003570:	d81c      	bhi.n	80035ac <LL_RCC_GetUSARTClockFreq+0x60>
 8003572:	4a52      	ldr	r2, [pc, #328]	; (80036bc <LL_RCC_GetUSARTClockFreq+0x170>)
 8003574:	4293      	cmp	r3, r2
 8003576:	d003      	beq.n	8003580 <LL_RCC_GetUSARTClockFreq+0x34>
 8003578:	4a51      	ldr	r2, [pc, #324]	; (80036c0 <LL_RCC_GetUSARTClockFreq+0x174>)
 800357a:	4293      	cmp	r3, r2
 800357c:	d004      	beq.n	8003588 <LL_RCC_GetUSARTClockFreq+0x3c>
 800357e:	e015      	b.n	80035ac <LL_RCC_GetUSARTClockFreq+0x60>
    {
      case LL_RCC_USART1_CLKSOURCE_SYSCLK: /* USART1 Clock is System Clock */
        usart_frequency = RCC_GetSystemClockFreq();
 8003580:	f000 f934 	bl	80037ec <RCC_GetSystemClockFreq>
 8003584:	60f8      	str	r0, [r7, #12]
        break;
 8003586:	e094      	b.n	80036b2 <LL_RCC_GetUSARTClockFreq+0x166>

      case LL_RCC_USART1_CLKSOURCE_HSI:    /* USART1 Clock is HSI Osc. */
        if (LL_RCC_HSI_IsReady() != 0U)
 8003588:	f7ff ff20 	bl	80033cc <LL_RCC_HSI_IsReady>
 800358c:	4603      	mov	r3, r0
 800358e:	2b00      	cmp	r3, #0
 8003590:	f000 8082 	beq.w	8003698 <LL_RCC_GetUSARTClockFreq+0x14c>
        {
          usart_frequency = HSI_VALUE;
 8003594:	4b4b      	ldr	r3, [pc, #300]	; (80036c4 <LL_RCC_GetUSARTClockFreq+0x178>)
 8003596:	60fb      	str	r3, [r7, #12]
        }
        break;
 8003598:	e07e      	b.n	8003698 <LL_RCC_GetUSARTClockFreq+0x14c>

      case LL_RCC_USART1_CLKSOURCE_LSE:    /* USART1 Clock is LSE Osc. */
        if (LL_RCC_LSE_IsReady() != 0U)
 800359a:	f7ff ff2b 	bl	80033f4 <LL_RCC_LSE_IsReady>
 800359e:	4603      	mov	r3, r0
 80035a0:	2b00      	cmp	r3, #0
 80035a2:	d07b      	beq.n	800369c <LL_RCC_GetUSARTClockFreq+0x150>
        {
          usart_frequency = LSE_VALUE;
 80035a4:	f44f 4300 	mov.w	r3, #32768	; 0x8000
 80035a8:	60fb      	str	r3, [r7, #12]
        }
        break;
 80035aa:	e077      	b.n	800369c <LL_RCC_GetUSARTClockFreq+0x150>

      case LL_RCC_USART1_CLKSOURCE_PCLK2:  /* USART1 Clock is PCLK2 */
      default:
        usart_frequency = RCC_GetPCLK2ClockFreq(RCC_GetHCLKClockFreq(RCC_GetSystemClockFreq()));
 80035ac:	f000 f91e 	bl	80037ec <RCC_GetSystemClockFreq>
 80035b0:	4603      	mov	r3, r0
 80035b2:	4618      	mov	r0, r3
 80035b4:	f000 f940 	bl	8003838 <RCC_GetHCLKClockFreq>
 80035b8:	4603      	mov	r3, r0
 80035ba:	4618      	mov	r0, r3
 80035bc:	f000 f96a 	bl	8003894 <RCC_GetPCLK2ClockFreq>
 80035c0:	60f8      	str	r0, [r7, #12]
        break;
 80035c2:	e076      	b.n	80036b2 <LL_RCC_GetUSARTClockFreq+0x166>
    }
  }
  else if (USARTxSource == LL_RCC_USART2_CLKSOURCE)
 80035c4:	687b      	ldr	r3, [r7, #4]
 80035c6:	2b0c      	cmp	r3, #12
 80035c8:	d131      	bne.n	800362e <LL_RCC_GetUSARTClockFreq+0xe2>
  {
    /* USART2CLK clock frequency */
    switch (LL_RCC_GetUSARTClockSource(USARTxSource))
 80035ca:	6878      	ldr	r0, [r7, #4]
 80035cc:	f7ff ff5e 	bl	800348c <LL_RCC_GetUSARTClockSource>
 80035d0:	4603      	mov	r3, r0
 80035d2:	f1b3 1f0c 	cmp.w	r3, #786444	; 0xc000c
 80035d6:	d015      	beq.n	8003604 <LL_RCC_GetUSARTClockFreq+0xb8>
 80035d8:	f1b3 1f0c 	cmp.w	r3, #786444	; 0xc000c
 80035dc:	d81b      	bhi.n	8003616 <LL_RCC_GetUSARTClockFreq+0xca>
 80035de:	4a3a      	ldr	r2, [pc, #232]	; (80036c8 <LL_RCC_GetUSARTClockFreq+0x17c>)
 80035e0:	4293      	cmp	r3, r2
 80035e2:	d003      	beq.n	80035ec <LL_RCC_GetUSARTClockFreq+0xa0>
 80035e4:	4a39      	ldr	r2, [pc, #228]	; (80036cc <LL_RCC_GetUSARTClockFreq+0x180>)
 80035e6:	4293      	cmp	r3, r2
 80035e8:	d004      	beq.n	80035f4 <LL_RCC_GetUSARTClockFreq+0xa8>
 80035ea:	e014      	b.n	8003616 <LL_RCC_GetUSARTClockFreq+0xca>
    {
      case LL_RCC_USART2_CLKSOURCE_SYSCLK: /* USART2 Clock is System Clock */
        usart_frequency = RCC_GetSystemClockFreq();
 80035ec:	f000 f8fe 	bl	80037ec <RCC_GetSystemClockFreq>
 80035f0:	60f8      	str	r0, [r7, #12]
        break;
 80035f2:	e05e      	b.n	80036b2 <LL_RCC_GetUSARTClockFreq+0x166>

      case LL_RCC_USART2_CLKSOURCE_HSI:    /* USART2 Clock is HSI Osc. */
        if (LL_RCC_HSI_IsReady() != 0U)
 80035f4:	f7ff feea 	bl	80033cc <LL_RCC_HSI_IsReady>
 80035f8:	4603      	mov	r3, r0
 80035fa:	2b00      	cmp	r3, #0
 80035fc:	d050      	beq.n	80036a0 <LL_RCC_GetUSARTClockFreq+0x154>
        {
          usart_frequency = HSI_VALUE;
 80035fe:	4b31      	ldr	r3, [pc, #196]	; (80036c4 <LL_RCC_GetUSARTClockFreq+0x178>)
 8003600:	60fb      	str	r3, [r7, #12]
        }
        break;
 8003602:	e04d      	b.n	80036a0 <LL_RCC_GetUSARTClockFreq+0x154>

      case LL_RCC_USART2_CLKSOURCE_LSE:    /* USART2 Clock is LSE Osc. */
        if (LL_RCC_LSE_IsReady() != 0U)
 8003604:	f7ff fef6 	bl	80033f4 <LL_RCC_LSE_IsReady>
 8003608:	4603      	mov	r3, r0
 800360a:	2b00      	cmp	r3, #0
 800360c:	d04a      	beq.n	80036a4 <LL_RCC_GetUSARTClockFreq+0x158>
        {
          usart_frequency = LSE_VALUE;
 800360e:	f44f 4300 	mov.w	r3, #32768	; 0x8000
 8003612:	60fb      	str	r3, [r7, #12]
        }
        break;
 8003614:	e046      	b.n	80036a4 <LL_RCC_GetUSARTClockFreq+0x158>

      case LL_RCC_USART2_CLKSOURCE_PCLK1:  /* USART2 Clock is PCLK1 */
      default:
        usart_frequency = RCC_GetPCLK1ClockFreq(RCC_GetHCLKClockFreq(RCC_GetSystemClockFreq()));
 8003616:	f000 f8e9 	bl	80037ec <RCC_GetSystemClockFreq>
 800361a:	4603      	mov	r3, r0
 800361c:	4618      	mov	r0, r3
 800361e:	f000 f90b 	bl	8003838 <RCC_GetHCLKClockFreq>
 8003622:	4603      	mov	r3, r0
 8003624:	4618      	mov	r0, r3
 8003626:	f000 f91f 	bl	8003868 <RCC_GetPCLK1ClockFreq>
 800362a:	60f8      	str	r0, [r7, #12]
        break;
 800362c:	e041      	b.n	80036b2 <LL_RCC_GetUSARTClockFreq+0x166>
    }
  }
  else
  {
    if (USARTxSource == LL_RCC_USART3_CLKSOURCE)
 800362e:	687b      	ldr	r3, [r7, #4]
 8003630:	2b30      	cmp	r3, #48	; 0x30
 8003632:	d139      	bne.n	80036a8 <LL_RCC_GetUSARTClockFreq+0x15c>
    {
      /* USART3CLK clock frequency */
      switch (LL_RCC_GetUSARTClockSource(USARTxSource))
 8003634:	6878      	ldr	r0, [r7, #4]
 8003636:	f7ff ff29 	bl	800348c <LL_RCC_GetUSARTClockSource>
 800363a:	4603      	mov	r3, r0
 800363c:	f1b3 1f30 	cmp.w	r3, #3145776	; 0x300030
 8003640:	d015      	beq.n	800366e <LL_RCC_GetUSARTClockFreq+0x122>
 8003642:	f1b3 1f30 	cmp.w	r3, #3145776	; 0x300030
 8003646:	d81b      	bhi.n	8003680 <LL_RCC_GetUSARTClockFreq+0x134>
 8003648:	4a21      	ldr	r2, [pc, #132]	; (80036d0 <LL_RCC_GetUSARTClockFreq+0x184>)
 800364a:	4293      	cmp	r3, r2
 800364c:	d003      	beq.n	8003656 <LL_RCC_GetUSARTClockFreq+0x10a>
 800364e:	4a21      	ldr	r2, [pc, #132]	; (80036d4 <LL_RCC_GetUSARTClockFreq+0x188>)
 8003650:	4293      	cmp	r3, r2
 8003652:	d004      	beq.n	800365e <LL_RCC_GetUSARTClockFreq+0x112>
 8003654:	e014      	b.n	8003680 <LL_RCC_GetUSARTClockFreq+0x134>
      {
        case LL_RCC_USART3_CLKSOURCE_SYSCLK: /* USART3 Clock is System Clock */
          usart_frequency = RCC_GetSystemClockFreq();
 8003656:	f000 f8c9 	bl	80037ec <RCC_GetSystemClockFreq>
 800365a:	60f8      	str	r0, [r7, #12]
          break;
 800365c:	e029      	b.n	80036b2 <LL_RCC_GetUSARTClockFreq+0x166>

        case LL_RCC_USART3_CLKSOURCE_HSI:    /* USART3 Clock is HSI Osc. */
          if (LL_RCC_HSI_IsReady() != 0U)
 800365e:	f7ff feb5 	bl	80033cc <LL_RCC_HSI_IsReady>
 8003662:	4603      	mov	r3, r0
 8003664:	2b00      	cmp	r3, #0
 8003666:	d021      	beq.n	80036ac <LL_RCC_GetUSARTClockFreq+0x160>
          {
            usart_frequency = HSI_VALUE;
 8003668:	4b16      	ldr	r3, [pc, #88]	; (80036c4 <LL_RCC_GetUSARTClockFreq+0x178>)
 800366a:	60fb      	str	r3, [r7, #12]
          }
          break;
 800366c:	e01e      	b.n	80036ac <LL_RCC_GetUSARTClockFreq+0x160>

        case LL_RCC_USART3_CLKSOURCE_LSE:    /* USART3 Clock is LSE Osc. */
          if (LL_RCC_LSE_IsReady() != 0U)
 800366e:	f7ff fec1 	bl	80033f4 <LL_RCC_LSE_IsReady>
 8003672:	4603      	mov	r3, r0
 8003674:	2b00      	cmp	r3, #0
 8003676:	d01b      	beq.n	80036b0 <LL_RCC_GetUSARTClockFreq+0x164>
          {
            usart_frequency = LSE_VALUE;
 8003678:	f44f 4300 	mov.w	r3, #32768	; 0x8000
 800367c:	60fb      	str	r3, [r7, #12]
          }
          break;
 800367e:	e017      	b.n	80036b0 <LL_RCC_GetUSARTClockFreq+0x164>

        case LL_RCC_USART3_CLKSOURCE_PCLK1:  /* USART3 Clock is PCLK1 */
        default:
          usart_frequency = RCC_GetPCLK1ClockFreq(RCC_GetHCLKClockFreq(RCC_GetSystemClockFreq()));
 8003680:	f000 f8b4 	bl	80037ec <RCC_GetSystemClockFreq>
 8003684:	4603      	mov	r3, r0
 8003686:	4618      	mov	r0, r3
 8003688:	f000 f8d6 	bl	8003838 <RCC_GetHCLKClockFreq>
 800368c:	4603      	mov	r3, r0
 800368e:	4618      	mov	r0, r3
 8003690:	f000 f8ea 	bl	8003868 <RCC_GetPCLK1ClockFreq>
 8003694:	60f8      	str	r0, [r7, #12]
          break;
 8003696:	e00c      	b.n	80036b2 <LL_RCC_GetUSARTClockFreq+0x166>
        break;
 8003698:	bf00      	nop
 800369a:	e00a      	b.n	80036b2 <LL_RCC_GetUSARTClockFreq+0x166>
        break;
 800369c:	bf00      	nop
 800369e:	e008      	b.n	80036b2 <LL_RCC_GetUSARTClockFreq+0x166>
        break;
 80036a0:	bf00      	nop
 80036a2:	e006      	b.n	80036b2 <LL_RCC_GetUSARTClockFreq+0x166>
        break;
 80036a4:	bf00      	nop
 80036a6:	e004      	b.n	80036b2 <LL_RCC_GetUSARTClockFreq+0x166>
      }
    }
 80036a8:	bf00      	nop
 80036aa:	e002      	b.n	80036b2 <LL_RCC_GetUSARTClockFreq+0x166>
          break;
 80036ac:	bf00      	nop
 80036ae:	e000      	b.n	80036b2 <LL_RCC_GetUSARTClockFreq+0x166>
          break;
 80036b0:	bf00      	nop
  }
  return usart_frequency;
 80036b2:	68fb      	ldr	r3, [r7, #12]
}
 80036b4:	4618      	mov	r0, r3
 80036b6:	3710      	adds	r7, #16
 80036b8:	46bd      	mov	sp, r7
 80036ba:	bd80      	pop	{r7, pc}
 80036bc:	00030001 	.word	0x00030001
 80036c0:	00030002 	.word	0x00030002
 80036c4:	00f42400 	.word	0x00f42400
 80036c8:	000c0004 	.word	0x000c0004
 80036cc:	000c0008 	.word	0x000c0008
 80036d0:	00300010 	.word	0x00300010
 80036d4:	00300020 	.word	0x00300020

080036d8 <LL_RCC_GetUARTClockFreq>:
  *         (*) value not defined in all devices.
  * @retval UART clock frequency (in Hz)
  *         - @ref  LL_RCC_PERIPH_FREQUENCY_NO indicates that oscillator (HSI or LSE) is not ready
  */
uint32_t LL_RCC_GetUARTClockFreq(uint32_t UARTxSource)
{
 80036d8:	b580      	push	{r7, lr}
 80036da:	b084      	sub	sp, #16
 80036dc:	af00      	add	r7, sp, #0
 80036de:	6078      	str	r0, [r7, #4]
  uint32_t uart_frequency = LL_RCC_PERIPH_FREQUENCY_NO;
 80036e0:	2300      	movs	r3, #0
 80036e2:	60fb      	str	r3, [r7, #12]

  /* Check parameter */
  assert_param(IS_LL_RCC_UART_CLKSOURCE(UARTxSource));

  if (UARTxSource == LL_RCC_UART4_CLKSOURCE)
 80036e4:	687b      	ldr	r3, [r7, #4]
 80036e6:	2bc0      	cmp	r3, #192	; 0xc0
 80036e8:	d131      	bne.n	800374e <LL_RCC_GetUARTClockFreq+0x76>
  {
    /* UART4CLK clock frequency */
    switch (LL_RCC_GetUARTClockSource(UARTxSource))
 80036ea:	6878      	ldr	r0, [r7, #4]
 80036ec:	f7ff fee2 	bl	80034b4 <LL_RCC_GetUARTClockSource>
 80036f0:	4603      	mov	r3, r0
 80036f2:	f1b3 1fc0 	cmp.w	r3, #12583104	; 0xc000c0
 80036f6:	d015      	beq.n	8003724 <LL_RCC_GetUARTClockFreq+0x4c>
 80036f8:	f1b3 1fc0 	cmp.w	r3, #12583104	; 0xc000c0
 80036fc:	d81b      	bhi.n	8003736 <LL_RCC_GetUARTClockFreq+0x5e>
 80036fe:	4a36      	ldr	r2, [pc, #216]	; (80037d8 <LL_RCC_GetUARTClockFreq+0x100>)
 8003700:	4293      	cmp	r3, r2
 8003702:	d003      	beq.n	800370c <LL_RCC_GetUARTClockFreq+0x34>
 8003704:	4a35      	ldr	r2, [pc, #212]	; (80037dc <LL_RCC_GetUARTClockFreq+0x104>)
 8003706:	4293      	cmp	r3, r2
 8003708:	d004      	beq.n	8003714 <LL_RCC_GetUARTClockFreq+0x3c>
 800370a:	e014      	b.n	8003736 <LL_RCC_GetUARTClockFreq+0x5e>
    {
      case LL_RCC_UART4_CLKSOURCE_SYSCLK: /* UART4 Clock is System Clock */
        uart_frequency = RCC_GetSystemClockFreq();
 800370c:	f000 f86e 	bl	80037ec <RCC_GetSystemClockFreq>
 8003710:	60f8      	str	r0, [r7, #12]
        break;
 8003712:	e021      	b.n	8003758 <LL_RCC_GetUARTClockFreq+0x80>

      case LL_RCC_UART4_CLKSOURCE_HSI:    /* UART4 Clock is HSI Osc. */
        if (LL_RCC_HSI_IsReady() != 0U)
 8003714:	f7ff fe5a 	bl	80033cc <LL_RCC_HSI_IsReady>
 8003718:	4603      	mov	r3, r0
 800371a:	2b00      	cmp	r3, #0
 800371c:	d019      	beq.n	8003752 <LL_RCC_GetUARTClockFreq+0x7a>
        {
          uart_frequency = HSI_VALUE;
 800371e:	4b30      	ldr	r3, [pc, #192]	; (80037e0 <LL_RCC_GetUARTClockFreq+0x108>)
 8003720:	60fb      	str	r3, [r7, #12]
        }
        break;
 8003722:	e016      	b.n	8003752 <LL_RCC_GetUARTClockFreq+0x7a>

      case LL_RCC_UART4_CLKSOURCE_LSE:    /* UART4 Clock is LSE Osc. */
        if (LL_RCC_LSE_IsReady() != 0U)
 8003724:	f7ff fe66 	bl	80033f4 <LL_RCC_LSE_IsReady>
 8003728:	4603      	mov	r3, r0
 800372a:	2b00      	cmp	r3, #0
 800372c:	d013      	beq.n	8003756 <LL_RCC_GetUARTClockFreq+0x7e>
        {
          uart_frequency = LSE_VALUE;
 800372e:	f44f 4300 	mov.w	r3, #32768	; 0x8000
 8003732:	60fb      	str	r3, [r7, #12]
        }
        break;
 8003734:	e00f      	b.n	8003756 <LL_RCC_GetUARTClockFreq+0x7e>

      case LL_RCC_UART4_CLKSOURCE_PCLK1:  /* UART4 Clock is PCLK1 */
      default:
        uart_frequency = RCC_GetPCLK1ClockFreq(RCC_GetHCLKClockFreq(RCC_GetSystemClockFreq()));
 8003736:	f000 f859 	bl	80037ec <RCC_GetSystemClockFreq>
 800373a:	4603      	mov	r3, r0
 800373c:	4618      	mov	r0, r3
 800373e:	f000 f87b 	bl	8003838 <RCC_GetHCLKClockFreq>
 8003742:	4603      	mov	r3, r0
 8003744:	4618      	mov	r0, r3
 8003746:	f000 f88f 	bl	8003868 <RCC_GetPCLK1ClockFreq>
 800374a:	60f8      	str	r0, [r7, #12]
        break;
 800374c:	e004      	b.n	8003758 <LL_RCC_GetUARTClockFreq+0x80>
    }
  }
 800374e:	bf00      	nop
 8003750:	e002      	b.n	8003758 <LL_RCC_GetUARTClockFreq+0x80>
        break;
 8003752:	bf00      	nop
 8003754:	e000      	b.n	8003758 <LL_RCC_GetUARTClockFreq+0x80>
        break;
 8003756:	bf00      	nop

#if defined(RCC_CCIPR_UART5SEL)
  if (UARTxSource == LL_RCC_UART5_CLKSOURCE)
 8003758:	687b      	ldr	r3, [r7, #4]
 800375a:	f5b3 7f40 	cmp.w	r3, #768	; 0x300
 800375e:	d131      	bne.n	80037c4 <LL_RCC_GetUARTClockFreq+0xec>
  {
    /* UART5CLK clock frequency */
    switch (LL_RCC_GetUARTClockSource(UARTxSource))
 8003760:	6878      	ldr	r0, [r7, #4]
 8003762:	f7ff fea7 	bl	80034b4 <LL_RCC_GetUARTClockSource>
 8003766:	4603      	mov	r3, r0
 8003768:	f1b3 2f03 	cmp.w	r3, #50332416	; 0x3000300
 800376c:	d015      	beq.n	800379a <LL_RCC_GetUARTClockFreq+0xc2>
 800376e:	f1b3 2f03 	cmp.w	r3, #50332416	; 0x3000300
 8003772:	d81b      	bhi.n	80037ac <LL_RCC_GetUARTClockFreq+0xd4>
 8003774:	4a1b      	ldr	r2, [pc, #108]	; (80037e4 <LL_RCC_GetUARTClockFreq+0x10c>)
 8003776:	4293      	cmp	r3, r2
 8003778:	d003      	beq.n	8003782 <LL_RCC_GetUARTClockFreq+0xaa>
 800377a:	4a1b      	ldr	r2, [pc, #108]	; (80037e8 <LL_RCC_GetUARTClockFreq+0x110>)
 800377c:	4293      	cmp	r3, r2
 800377e:	d004      	beq.n	800378a <LL_RCC_GetUARTClockFreq+0xb2>
 8003780:	e014      	b.n	80037ac <LL_RCC_GetUARTClockFreq+0xd4>
    {
      case LL_RCC_UART5_CLKSOURCE_SYSCLK: /* UART5 Clock is System Clock */
        uart_frequency = RCC_GetSystemClockFreq();
 8003782:	f000 f833 	bl	80037ec <RCC_GetSystemClockFreq>
 8003786:	60f8      	str	r0, [r7, #12]
        break;
 8003788:	e021      	b.n	80037ce <LL_RCC_GetUARTClockFreq+0xf6>

      case LL_RCC_UART5_CLKSOURCE_HSI:    /* UART5 Clock is HSI Osc. */
        if (LL_RCC_HSI_IsReady() != 0U)
 800378a:	f7ff fe1f 	bl	80033cc <LL_RCC_HSI_IsReady>
 800378e:	4603      	mov	r3, r0
 8003790:	2b00      	cmp	r3, #0
 8003792:	d019      	beq.n	80037c8 <LL_RCC_GetUARTClockFreq+0xf0>
        {
          uart_frequency = HSI_VALUE;
 8003794:	4b12      	ldr	r3, [pc, #72]	; (80037e0 <LL_RCC_GetUARTClockFreq+0x108>)
 8003796:	60fb      	str	r3, [r7, #12]
        }
        break;
 8003798:	e016      	b.n	80037c8 <LL_RCC_GetUARTClockFreq+0xf0>

      case LL_RCC_UART5_CLKSOURCE_LSE:    /* UART5 Clock is LSE Osc. */
        if (LL_RCC_LSE_IsReady() != 0U)
 800379a:	f7ff fe2b 	bl	80033f4 <LL_RCC_LSE_IsReady>
 800379e:	4603      	mov	r3, r0
 80037a0:	2b00      	cmp	r3, #0
 80037a2:	d013      	beq.n	80037cc <LL_RCC_GetUARTClockFreq+0xf4>
        {
          uart_frequency = LSE_VALUE;
 80037a4:	f44f 4300 	mov.w	r3, #32768	; 0x8000
 80037a8:	60fb      	str	r3, [r7, #12]
        }
        break;
 80037aa:	e00f      	b.n	80037cc <LL_RCC_GetUARTClockFreq+0xf4>

      case LL_RCC_UART5_CLKSOURCE_PCLK1:  /* UART5 Clock is PCLK1 */
      default:
        uart_frequency = RCC_GetPCLK1ClockFreq(RCC_GetHCLKClockFreq(RCC_GetSystemClockFreq()));
 80037ac:	f000 f81e 	bl	80037ec <RCC_GetSystemClockFreq>
 80037b0:	4603      	mov	r3, r0
 80037b2:	4618      	mov	r0, r3
 80037b4:	f000 f840 	bl	8003838 <RCC_GetHCLKClockFreq>
 80037b8:	4603      	mov	r3, r0
 80037ba:	4618      	mov	r0, r3
 80037bc:	f000 f854 	bl	8003868 <RCC_GetPCLK1ClockFreq>
 80037c0:	60f8      	str	r0, [r7, #12]
        break;
 80037c2:	e004      	b.n	80037ce <LL_RCC_GetUARTClockFreq+0xf6>
    }
  }
 80037c4:	bf00      	nop
 80037c6:	e002      	b.n	80037ce <LL_RCC_GetUARTClockFreq+0xf6>
        break;
 80037c8:	bf00      	nop
 80037ca:	e000      	b.n	80037ce <LL_RCC_GetUARTClockFreq+0xf6>
        break;
 80037cc:	bf00      	nop
#endif /* RCC_CCIPR_UART5SEL */

  return uart_frequency;
 80037ce:	68fb      	ldr	r3, [r7, #12]
}
 80037d0:	4618      	mov	r0, r3
 80037d2:	3710      	adds	r7, #16
 80037d4:	46bd      	mov	sp, r7
 80037d6:	bd80      	pop	{r7, pc}
 80037d8:	00c00040 	.word	0x00c00040
 80037dc:	00c00080 	.word	0x00c00080
 80037e0:	00f42400 	.word	0x00f42400
 80037e4:	03000100 	.word	0x03000100
 80037e8:	03000200 	.word	0x03000200

080037ec <RCC_GetSystemClockFreq>:
/**
  * @brief  Return SYSTEM clock frequency
  * @retval SYSTEM clock frequency (in Hz)
  */
static uint32_t RCC_GetSystemClockFreq(void)
{
 80037ec:	b580      	push	{r7, lr}
 80037ee:	b082      	sub	sp, #8
 80037f0:	af00      	add	r7, sp, #0
  uint32_t frequency;

  /* Get SYSCLK source -------------------------------------------------------*/
  switch (LL_RCC_GetSysClkSource())
 80037f2:	f7ff fe13 	bl	800341c <LL_RCC_GetSysClkSource>
 80037f6:	4603      	mov	r3, r0
 80037f8:	2b0c      	cmp	r3, #12
 80037fa:	d00c      	beq.n	8003816 <RCC_GetSystemClockFreq+0x2a>
 80037fc:	2b0c      	cmp	r3, #12
 80037fe:	d80e      	bhi.n	800381e <RCC_GetSystemClockFreq+0x32>
 8003800:	2b04      	cmp	r3, #4
 8003802:	d002      	beq.n	800380a <RCC_GetSystemClockFreq+0x1e>
 8003804:	2b08      	cmp	r3, #8
 8003806:	d003      	beq.n	8003810 <RCC_GetSystemClockFreq+0x24>
 8003808:	e009      	b.n	800381e <RCC_GetSystemClockFreq+0x32>
  {
    case LL_RCC_SYS_CLKSOURCE_STATUS_HSI:  /* HSI used as system clock  source */
      frequency = HSI_VALUE;
 800380a:	4b09      	ldr	r3, [pc, #36]	; (8003830 <RCC_GetSystemClockFreq+0x44>)
 800380c:	607b      	str	r3, [r7, #4]
      break;
 800380e:	e009      	b.n	8003824 <RCC_GetSystemClockFreq+0x38>

    case LL_RCC_SYS_CLKSOURCE_STATUS_HSE:  /* HSE used as system clock  source */
      frequency = HSE_VALUE;
 8003810:	4b08      	ldr	r3, [pc, #32]	; (8003834 <RCC_GetSystemClockFreq+0x48>)
 8003812:	607b      	str	r3, [r7, #4]
      break;
 8003814:	e006      	b.n	8003824 <RCC_GetSystemClockFreq+0x38>

    case LL_RCC_SYS_CLKSOURCE_STATUS_PLL:  /* PLL used as system clock  source */
      frequency = RCC_PLL_GetFreqDomain_SYS();
 8003816:	f000 f853 	bl	80038c0 <RCC_PLL_GetFreqDomain_SYS>
 800381a:	6078      	str	r0, [r7, #4]
      break;
 800381c:	e002      	b.n	8003824 <RCC_GetSystemClockFreq+0x38>

    default:
      frequency = HSI_VALUE;
 800381e:	4b04      	ldr	r3, [pc, #16]	; (8003830 <RCC_GetSystemClockFreq+0x44>)
 8003820:	607b      	str	r3, [r7, #4]
      break;
 8003822:	bf00      	nop
  }

  return frequency;
 8003824:	687b      	ldr	r3, [r7, #4]
}
 8003826:	4618      	mov	r0, r3
 8003828:	3708      	adds	r7, #8
 800382a:	46bd      	mov	sp, r7
 800382c:	bd80      	pop	{r7, pc}
 800382e:	bf00      	nop
 8003830:	00f42400 	.word	0x00f42400
 8003834:	007a1200 	.word	0x007a1200

08003838 <RCC_GetHCLKClockFreq>:
  * @brief  Return HCLK clock frequency
  * @param  SYSCLK_Frequency SYSCLK clock frequency
  * @retval HCLK clock frequency (in Hz)
  */
static uint32_t RCC_GetHCLKClockFreq(uint32_t SYSCLK_Frequency)
{
 8003838:	b580      	push	{r7, lr}
 800383a:	b082      	sub	sp, #8
 800383c:	af00      	add	r7, sp, #0
 800383e:	6078      	str	r0, [r7, #4]
  /* HCLK clock frequency */
  return __LL_RCC_CALC_HCLK_FREQ(SYSCLK_Frequency, LL_RCC_GetAHBPrescaler());
 8003840:	f7ff fdfa 	bl	8003438 <LL_RCC_GetAHBPrescaler>
 8003844:	4603      	mov	r3, r0
 8003846:	091b      	lsrs	r3, r3, #4
 8003848:	f003 030f 	and.w	r3, r3, #15
 800384c:	4a05      	ldr	r2, [pc, #20]	; (8003864 <RCC_GetHCLKClockFreq+0x2c>)
 800384e:	5cd3      	ldrb	r3, [r2, r3]
 8003850:	f003 031f 	and.w	r3, r3, #31
 8003854:	687a      	ldr	r2, [r7, #4]
 8003856:	fa22 f303 	lsr.w	r3, r2, r3
}
 800385a:	4618      	mov	r0, r3
 800385c:	3708      	adds	r7, #8
 800385e:	46bd      	mov	sp, r7
 8003860:	bd80      	pop	{r7, pc}
 8003862:	bf00      	nop
 8003864:	08008f40 	.word	0x08008f40

08003868 <RCC_GetPCLK1ClockFreq>:
  * @brief  Return PCLK1 clock frequency
  * @param  HCLK_Frequency HCLK clock frequency
  * @retval PCLK1 clock frequency (in Hz)
  */
static uint32_t RCC_GetPCLK1ClockFreq(uint32_t HCLK_Frequency)
{
 8003868:	b580      	push	{r7, lr}
 800386a:	b082      	sub	sp, #8
 800386c:	af00      	add	r7, sp, #0
 800386e:	6078      	str	r0, [r7, #4]
  /* PCLK1 clock frequency */
  return __LL_RCC_CALC_PCLK1_FREQ(HCLK_Frequency, LL_RCC_GetAPB1Prescaler());
 8003870:	f7ff fdf0 	bl	8003454 <LL_RCC_GetAPB1Prescaler>
 8003874:	4603      	mov	r3, r0
 8003876:	0a1b      	lsrs	r3, r3, #8
 8003878:	4a05      	ldr	r2, [pc, #20]	; (8003890 <RCC_GetPCLK1ClockFreq+0x28>)
 800387a:	5cd3      	ldrb	r3, [r2, r3]
 800387c:	f003 031f 	and.w	r3, r3, #31
 8003880:	687a      	ldr	r2, [r7, #4]
 8003882:	fa22 f303 	lsr.w	r3, r2, r3
}
 8003886:	4618      	mov	r0, r3
 8003888:	3708      	adds	r7, #8
 800388a:	46bd      	mov	sp, r7
 800388c:	bd80      	pop	{r7, pc}
 800388e:	bf00      	nop
 8003890:	08008f50 	.word	0x08008f50

08003894 <RCC_GetPCLK2ClockFreq>:
  * @brief  Return PCLK2 clock frequency
  * @param  HCLK_Frequency HCLK clock frequency
  * @retval PCLK2 clock frequency (in Hz)
  */
static uint32_t RCC_GetPCLK2ClockFreq(uint32_t HCLK_Frequency)
{
 8003894:	b580      	push	{r7, lr}
 8003896:	b082      	sub	sp, #8
 8003898:	af00      	add	r7, sp, #0
 800389a:	6078      	str	r0, [r7, #4]
  /* PCLK2 clock frequency */
  return __LL_RCC_CALC_PCLK2_FREQ(HCLK_Frequency, LL_RCC_GetAPB2Prescaler());
 800389c:	f7ff fde8 	bl	8003470 <LL_RCC_GetAPB2Prescaler>
 80038a0:	4603      	mov	r3, r0
 80038a2:	0adb      	lsrs	r3, r3, #11
 80038a4:	4a05      	ldr	r2, [pc, #20]	; (80038bc <RCC_GetPCLK2ClockFreq+0x28>)
 80038a6:	5cd3      	ldrb	r3, [r2, r3]
 80038a8:	f003 031f 	and.w	r3, r3, #31
 80038ac:	687a      	ldr	r2, [r7, #4]
 80038ae:	fa22 f303 	lsr.w	r3, r2, r3
}
 80038b2:	4618      	mov	r0, r3
 80038b4:	3708      	adds	r7, #8
 80038b6:	46bd      	mov	sp, r7
 80038b8:	bd80      	pop	{r7, pc}
 80038ba:	bf00      	nop
 80038bc:	08008f50 	.word	0x08008f50

080038c0 <RCC_PLL_GetFreqDomain_SYS>:
/**
  * @brief  Return PLL clock frequency used for system domain
  * @retval PLL clock frequency (in Hz)
  */
static uint32_t RCC_PLL_GetFreqDomain_SYS(void)
{
 80038c0:	b590      	push	{r4, r7, lr}
 80038c2:	b083      	sub	sp, #12
 80038c4:	af00      	add	r7, sp, #0
  uint32_t pllinputfreq, pllsource;

  /* PLL_VCO = (HSE_VALUE or HSI_VALUE / PLLM) * PLLN
     SYSCLK = PLL_VCO / PLLR
  */
  pllsource = LL_RCC_PLL_GetMainSource();
 80038c6:	f7ff fe09 	bl	80034dc <LL_RCC_PLL_GetMainSource>
 80038ca:	6038      	str	r0, [r7, #0]

  switch (pllsource)
 80038cc:	683b      	ldr	r3, [r7, #0]
 80038ce:	2b02      	cmp	r3, #2
 80038d0:	d003      	beq.n	80038da <RCC_PLL_GetFreqDomain_SYS+0x1a>
 80038d2:	683b      	ldr	r3, [r7, #0]
 80038d4:	2b03      	cmp	r3, #3
 80038d6:	d003      	beq.n	80038e0 <RCC_PLL_GetFreqDomain_SYS+0x20>
 80038d8:	e005      	b.n	80038e6 <RCC_PLL_GetFreqDomain_SYS+0x26>
  {
    case LL_RCC_PLLSOURCE_HSI:  /* HSI used as PLL clock source */
      pllinputfreq = HSI_VALUE;
 80038da:	4b11      	ldr	r3, [pc, #68]	; (8003920 <RCC_PLL_GetFreqDomain_SYS+0x60>)
 80038dc:	607b      	str	r3, [r7, #4]
      break;
 80038de:	e005      	b.n	80038ec <RCC_PLL_GetFreqDomain_SYS+0x2c>

    case LL_RCC_PLLSOURCE_HSE:  /* HSE used as PLL clock source */
      pllinputfreq = HSE_VALUE;
 80038e0:	4b10      	ldr	r3, [pc, #64]	; (8003924 <RCC_PLL_GetFreqDomain_SYS+0x64>)
 80038e2:	607b      	str	r3, [r7, #4]
      break;
 80038e4:	e002      	b.n	80038ec <RCC_PLL_GetFreqDomain_SYS+0x2c>

    default:
      pllinputfreq = HSI_VALUE;
 80038e6:	4b0e      	ldr	r3, [pc, #56]	; (8003920 <RCC_PLL_GetFreqDomain_SYS+0x60>)
 80038e8:	607b      	str	r3, [r7, #4]
      break;
 80038ea:	bf00      	nop
  }
  return __LL_RCC_CALC_PLLCLK_FREQ(pllinputfreq, LL_RCC_PLL_GetDivider(),
 80038ec:	f7ff fe04 	bl	80034f8 <LL_RCC_PLL_GetN>
 80038f0:	4602      	mov	r2, r0
 80038f2:	687b      	ldr	r3, [r7, #4]
 80038f4:	fb03 f402 	mul.w	r4, r3, r2
 80038f8:	f7ff fe1a 	bl	8003530 <LL_RCC_PLL_GetDivider>
 80038fc:	4603      	mov	r3, r0
 80038fe:	091b      	lsrs	r3, r3, #4
 8003900:	3301      	adds	r3, #1
 8003902:	fbb4 f4f3 	udiv	r4, r4, r3
 8003906:	f7ff fe05 	bl	8003514 <LL_RCC_PLL_GetR>
 800390a:	4603      	mov	r3, r0
 800390c:	0e5b      	lsrs	r3, r3, #25
 800390e:	3301      	adds	r3, #1
 8003910:	005b      	lsls	r3, r3, #1
 8003912:	fbb4 f3f3 	udiv	r3, r4, r3
                                   LL_RCC_PLL_GetN(), LL_RCC_PLL_GetR());
}
 8003916:	4618      	mov	r0, r3
 8003918:	370c      	adds	r7, #12
 800391a:	46bd      	mov	sp, r7
 800391c:	bd90      	pop	{r4, r7, pc}
 800391e:	bf00      	nop
 8003920:	00f42400 	.word	0x00f42400
 8003924:	007a1200 	.word	0x007a1200

08003928 <LL_APB1_GRP1_ForceReset>:
  *
  *         (*) value not defined in all devices.
  * @retval None
  */
__STATIC_INLINE void LL_APB1_GRP1_ForceReset(uint32_t Periphs)
{
 8003928:	b480      	push	{r7}
 800392a:	b083      	sub	sp, #12
 800392c:	af00      	add	r7, sp, #0
 800392e:	6078      	str	r0, [r7, #4]
  SET_BIT(RCC->APB1RSTR1, Periphs);
 8003930:	4b05      	ldr	r3, [pc, #20]	; (8003948 <LL_APB1_GRP1_ForceReset+0x20>)
 8003932:	6b9a      	ldr	r2, [r3, #56]	; 0x38
 8003934:	4904      	ldr	r1, [pc, #16]	; (8003948 <LL_APB1_GRP1_ForceReset+0x20>)
 8003936:	687b      	ldr	r3, [r7, #4]
 8003938:	4313      	orrs	r3, r2
 800393a:	638b      	str	r3, [r1, #56]	; 0x38
}
 800393c:	bf00      	nop
 800393e:	370c      	adds	r7, #12
 8003940:	46bd      	mov	sp, r7
 8003942:	f85d 7b04 	ldr.w	r7, [sp], #4
 8003946:	4770      	bx	lr
 8003948:	40021000 	.word	0x40021000

0800394c <LL_APB1_GRP1_ReleaseReset>:
  *
  *         (*) value not defined in all devices.
  * @retval None
  */
__STATIC_INLINE void LL_APB1_GRP1_ReleaseReset(uint32_t Periphs)
{
 800394c:	b480      	push	{r7}
 800394e:	b083      	sub	sp, #12
 8003950:	af00      	add	r7, sp, #0
 8003952:	6078      	str	r0, [r7, #4]
  CLEAR_BIT(RCC->APB1RSTR1, Periphs);
 8003954:	4b06      	ldr	r3, [pc, #24]	; (8003970 <LL_APB1_GRP1_ReleaseReset+0x24>)
 8003956:	6b9a      	ldr	r2, [r3, #56]	; 0x38
 8003958:	687b      	ldr	r3, [r7, #4]
 800395a:	43db      	mvns	r3, r3
 800395c:	4904      	ldr	r1, [pc, #16]	; (8003970 <LL_APB1_GRP1_ReleaseReset+0x24>)
 800395e:	4013      	ands	r3, r2
 8003960:	638b      	str	r3, [r1, #56]	; 0x38
}
 8003962:	bf00      	nop
 8003964:	370c      	adds	r7, #12
 8003966:	46bd      	mov	sp, r7
 8003968:	f85d 7b04 	ldr.w	r7, [sp], #4
 800396c:	4770      	bx	lr
 800396e:	bf00      	nop
 8003970:	40021000 	.word	0x40021000

08003974 <LL_APB2_GRP1_ForceReset>:
  *
  *         (*) value not defined in all devices.
  * @retval None
  */
__STATIC_INLINE void LL_APB2_GRP1_ForceReset(uint32_t Periphs)
{
 8003974:	b480      	push	{r7}
 8003976:	b083      	sub	sp, #12
 8003978:	af00      	add	r7, sp, #0
 800397a:	6078      	str	r0, [r7, #4]
  SET_BIT(RCC->APB2RSTR, Periphs);
 800397c:	4b05      	ldr	r3, [pc, #20]	; (8003994 <LL_APB2_GRP1_ForceReset+0x20>)
 800397e:	6c1a      	ldr	r2, [r3, #64]	; 0x40
 8003980:	4904      	ldr	r1, [pc, #16]	; (8003994 <LL_APB2_GRP1_ForceReset+0x20>)
 8003982:	687b      	ldr	r3, [r7, #4]
 8003984:	4313      	orrs	r3, r2
 8003986:	640b      	str	r3, [r1, #64]	; 0x40
}
 8003988:	bf00      	nop
 800398a:	370c      	adds	r7, #12
 800398c:	46bd      	mov	sp, r7
 800398e:	f85d 7b04 	ldr.w	r7, [sp], #4
 8003992:	4770      	bx	lr
 8003994:	40021000 	.word	0x40021000

08003998 <LL_APB2_GRP1_ReleaseReset>:
  *
  *         (*) value not defined in all devices.
  * @retval None
  */
__STATIC_INLINE void LL_APB2_GRP1_ReleaseReset(uint32_t Periphs)
{
 8003998:	b480      	push	{r7}
 800399a:	b083      	sub	sp, #12
 800399c:	af00      	add	r7, sp, #0
 800399e:	6078      	str	r0, [r7, #4]
  CLEAR_BIT(RCC->APB2RSTR, Periphs);
 80039a0:	4b06      	ldr	r3, [pc, #24]	; (80039bc <LL_APB2_GRP1_ReleaseReset+0x24>)
 80039a2:	6c1a      	ldr	r2, [r3, #64]	; 0x40
 80039a4:	687b      	ldr	r3, [r7, #4]
 80039a6:	43db      	mvns	r3, r3
 80039a8:	4904      	ldr	r1, [pc, #16]	; (80039bc <LL_APB2_GRP1_ReleaseReset+0x24>)
 80039aa:	4013      	ands	r3, r2
 80039ac:	640b      	str	r3, [r1, #64]	; 0x40
}
 80039ae:	bf00      	nop
 80039b0:	370c      	adds	r7, #12
 80039b2:	46bd      	mov	sp, r7
 80039b4:	f85d 7b04 	ldr.w	r7, [sp], #4
 80039b8:	4770      	bx	lr
 80039ba:	bf00      	nop
 80039bc:	40021000 	.word	0x40021000

080039c0 <LL_SPI_DeInit>:
  * @retval An ErrorStatus enumeration value:
  *          - SUCCESS: SPI registers are de-initialized
  *          - ERROR: SPI registers are not de-initialized
  */
ErrorStatus LL_SPI_DeInit(SPI_TypeDef *SPIx)
{
 80039c0:	b580      	push	{r7, lr}
 80039c2:	b084      	sub	sp, #16
 80039c4:	af00      	add	r7, sp, #0
 80039c6:	6078      	str	r0, [r7, #4]
  ErrorStatus status = ERROR;
 80039c8:	2301      	movs	r3, #1
 80039ca:	73fb      	strb	r3, [r7, #15]

  /* Check the parameters */
  assert_param(IS_SPI_ALL_INSTANCE(SPIx));

#if defined(SPI1)
  if (SPIx == SPI1)
 80039cc:	687b      	ldr	r3, [r7, #4]
 80039ce:	4a1e      	ldr	r2, [pc, #120]	; (8003a48 <LL_SPI_DeInit+0x88>)
 80039d0:	4293      	cmp	r3, r2
 80039d2:	d109      	bne.n	80039e8 <LL_SPI_DeInit+0x28>
  {
    /* Force reset of SPI clock */
    LL_APB2_GRP1_ForceReset(LL_APB2_GRP1_PERIPH_SPI1);
 80039d4:	f44f 5080 	mov.w	r0, #4096	; 0x1000
 80039d8:	f7ff ffcc 	bl	8003974 <LL_APB2_GRP1_ForceReset>

    /* Release reset of SPI clock */
    LL_APB2_GRP1_ReleaseReset(LL_APB2_GRP1_PERIPH_SPI1);
 80039dc:	f44f 5080 	mov.w	r0, #4096	; 0x1000
 80039e0:	f7ff ffda 	bl	8003998 <LL_APB2_GRP1_ReleaseReset>

    status = SUCCESS;
 80039e4:	2300      	movs	r3, #0
 80039e6:	73fb      	strb	r3, [r7, #15]
  }
#endif /* SPI1 */
#if defined(SPI2)
  if (SPIx == SPI2)
 80039e8:	687b      	ldr	r3, [r7, #4]
 80039ea:	4a18      	ldr	r2, [pc, #96]	; (8003a4c <LL_SPI_DeInit+0x8c>)
 80039ec:	4293      	cmp	r3, r2
 80039ee:	d109      	bne.n	8003a04 <LL_SPI_DeInit+0x44>
  {
    /* Force reset of SPI clock */
    LL_APB1_GRP1_ForceReset(LL_APB1_GRP1_PERIPH_SPI2);
 80039f0:	f44f 4080 	mov.w	r0, #16384	; 0x4000
 80039f4:	f7ff ff98 	bl	8003928 <LL_APB1_GRP1_ForceReset>

    /* Release reset of SPI clock */
    LL_APB1_GRP1_ReleaseReset(LL_APB1_GRP1_PERIPH_SPI2);
 80039f8:	f44f 4080 	mov.w	r0, #16384	; 0x4000
 80039fc:	f7ff ffa6 	bl	800394c <LL_APB1_GRP1_ReleaseReset>

    status = SUCCESS;
 8003a00:	2300      	movs	r3, #0
 8003a02:	73fb      	strb	r3, [r7, #15]
  }
#endif /* SPI2 */
#if defined(SPI3)
  if (SPIx == SPI3)
 8003a04:	687b      	ldr	r3, [r7, #4]
 8003a06:	4a12      	ldr	r2, [pc, #72]	; (8003a50 <LL_SPI_DeInit+0x90>)
 8003a08:	4293      	cmp	r3, r2
 8003a0a:	d109      	bne.n	8003a20 <LL_SPI_DeInit+0x60>
  {
    /* Force reset of SPI clock */
    LL_APB1_GRP1_ForceReset(LL_APB1_GRP1_PERIPH_SPI3);
 8003a0c:	f44f 4000 	mov.w	r0, #32768	; 0x8000
 8003a10:	f7ff ff8a 	bl	8003928 <LL_APB1_GRP1_ForceReset>

    /* Release reset of SPI clock */
    LL_APB1_GRP1_ReleaseReset(LL_APB1_GRP1_PERIPH_SPI3);
 8003a14:	f44f 4000 	mov.w	r0, #32768	; 0x8000
 8003a18:	f7ff ff98 	bl	800394c <LL_APB1_GRP1_ReleaseReset>

    status = SUCCESS;
 8003a1c:	2300      	movs	r3, #0
 8003a1e:	73fb      	strb	r3, [r7, #15]
  }
#endif /* SPI3 */
#if defined(SPI4)
  if (SPIx == SPI4)
 8003a20:	687b      	ldr	r3, [r7, #4]
 8003a22:	4a0c      	ldr	r2, [pc, #48]	; (8003a54 <LL_SPI_DeInit+0x94>)
 8003a24:	4293      	cmp	r3, r2
 8003a26:	d109      	bne.n	8003a3c <LL_SPI_DeInit+0x7c>
  {
    /* Force reset of SPI clock */
    LL_APB2_GRP1_ForceReset(LL_APB2_GRP1_PERIPH_SPI4);
 8003a28:	f44f 4000 	mov.w	r0, #32768	; 0x8000
 8003a2c:	f7ff ffa2 	bl	8003974 <LL_APB2_GRP1_ForceReset>

    /* Release reset of SPI clock */
    LL_APB2_GRP1_ReleaseReset(LL_APB2_GRP1_PERIPH_SPI4);
 8003a30:	f44f 4000 	mov.w	r0, #32768	; 0x8000
 8003a34:	f7ff ffb0 	bl	8003998 <LL_APB2_GRP1_ReleaseReset>

    status = SUCCESS;
 8003a38:	2300      	movs	r3, #0
 8003a3a:	73fb      	strb	r3, [r7, #15]
  }
#endif /* SPI4 */

  return status;
 8003a3c:	7bfb      	ldrb	r3, [r7, #15]
}
 8003a3e:	4618      	mov	r0, r3
 8003a40:	3710      	adds	r7, #16
 8003a42:	46bd      	mov	sp, r7
 8003a44:	bd80      	pop	{r7, pc}
 8003a46:	bf00      	nop
 8003a48:	40013000 	.word	0x40013000
 8003a4c:	40003800 	.word	0x40003800
 8003a50:	40003c00 	.word	0x40003c00
 8003a54:	40013c00 	.word	0x40013c00

08003a58 <LL_TIM_SetPrescaler>:
  * @param  TIMx Timer instance
  * @param  Prescaler between Min_Data=0 and Max_Data=65535
  * @retval None
  */
__STATIC_INLINE void LL_TIM_SetPrescaler(TIM_TypeDef *TIMx, uint32_t Prescaler)
{
 8003a58:	b480      	push	{r7}
 8003a5a:	b083      	sub	sp, #12
 8003a5c:	af00      	add	r7, sp, #0
 8003a5e:	6078      	str	r0, [r7, #4]
 8003a60:	6039      	str	r1, [r7, #0]
  WRITE_REG(TIMx->PSC, Prescaler);
 8003a62:	687b      	ldr	r3, [r7, #4]
 8003a64:	683a      	ldr	r2, [r7, #0]
 8003a66:	629a      	str	r2, [r3, #40]	; 0x28
}
 8003a68:	bf00      	nop
 8003a6a:	370c      	adds	r7, #12
 8003a6c:	46bd      	mov	sp, r7
 8003a6e:	f85d 7b04 	ldr.w	r7, [sp], #4
 8003a72:	4770      	bx	lr

08003a74 <LL_TIM_SetAutoReload>:
  * @param  TIMx Timer instance
  * @param  AutoReload between Min_Data=0 and Max_Data=65535
  * @retval None
  */
__STATIC_INLINE void LL_TIM_SetAutoReload(TIM_TypeDef *TIMx, uint32_t AutoReload)
{
 8003a74:	b480      	push	{r7}
 8003a76:	b083      	sub	sp, #12
 8003a78:	af00      	add	r7, sp, #0
 8003a7a:	6078      	str	r0, [r7, #4]
 8003a7c:	6039      	str	r1, [r7, #0]
  WRITE_REG(TIMx->ARR, AutoReload);
 8003a7e:	687b      	ldr	r3, [r7, #4]
 8003a80:	683a      	ldr	r2, [r7, #0]
 8003a82:	62da      	str	r2, [r3, #44]	; 0x2c
}
 8003a84:	bf00      	nop
 8003a86:	370c      	adds	r7, #12
 8003a88:	46bd      	mov	sp, r7
 8003a8a:	f85d 7b04 	ldr.w	r7, [sp], #4
 8003a8e:	4770      	bx	lr

08003a90 <LL_TIM_SetRepetitionCounter>:
  * @param  TIMx Timer instance
  * @param  RepetitionCounter between Min_Data=0 and Max_Data=255 or 65535 for advanced timer.
  * @retval None
  */
__STATIC_INLINE void LL_TIM_SetRepetitionCounter(TIM_TypeDef *TIMx, uint32_t RepetitionCounter)
{
 8003a90:	b480      	push	{r7}
 8003a92:	b083      	sub	sp, #12
 8003a94:	af00      	add	r7, sp, #0
 8003a96:	6078      	str	r0, [r7, #4]
 8003a98:	6039      	str	r1, [r7, #0]
  WRITE_REG(TIMx->RCR, RepetitionCounter);
 8003a9a:	687b      	ldr	r3, [r7, #4]
 8003a9c:	683a      	ldr	r2, [r7, #0]
 8003a9e:	631a      	str	r2, [r3, #48]	; 0x30
}
 8003aa0:	bf00      	nop
 8003aa2:	370c      	adds	r7, #12
 8003aa4:	46bd      	mov	sp, r7
 8003aa6:	f85d 7b04 	ldr.w	r7, [sp], #4
 8003aaa:	4770      	bx	lr

08003aac <LL_TIM_OC_SetCompareCH1>:
  * @param  TIMx Timer instance
  * @param  CompareValue between Min_Data=0 and Max_Data=65535
  * @retval None
  */
__STATIC_INLINE void LL_TIM_OC_SetCompareCH1(TIM_TypeDef *TIMx, uint32_t CompareValue)
{
 8003aac:	b480      	push	{r7}
 8003aae:	b083      	sub	sp, #12
 8003ab0:	af00      	add	r7, sp, #0
 8003ab2:	6078      	str	r0, [r7, #4]
 8003ab4:	6039      	str	r1, [r7, #0]
  WRITE_REG(TIMx->CCR1, CompareValue);
 8003ab6:	687b      	ldr	r3, [r7, #4]
 8003ab8:	683a      	ldr	r2, [r7, #0]
 8003aba:	635a      	str	r2, [r3, #52]	; 0x34
}
 8003abc:	bf00      	nop
 8003abe:	370c      	adds	r7, #12
 8003ac0:	46bd      	mov	sp, r7
 8003ac2:	f85d 7b04 	ldr.w	r7, [sp], #4
 8003ac6:	4770      	bx	lr

08003ac8 <LL_TIM_OC_SetCompareCH2>:
  * @param  TIMx Timer instance
  * @param  CompareValue between Min_Data=0 and Max_Data=65535
  * @retval None
  */
__STATIC_INLINE void LL_TIM_OC_SetCompareCH2(TIM_TypeDef *TIMx, uint32_t CompareValue)
{
 8003ac8:	b480      	push	{r7}
 8003aca:	b083      	sub	sp, #12
 8003acc:	af00      	add	r7, sp, #0
 8003ace:	6078      	str	r0, [r7, #4]
 8003ad0:	6039      	str	r1, [r7, #0]
  WRITE_REG(TIMx->CCR2, CompareValue);
 8003ad2:	687b      	ldr	r3, [r7, #4]
 8003ad4:	683a      	ldr	r2, [r7, #0]
 8003ad6:	639a      	str	r2, [r3, #56]	; 0x38
}
 8003ad8:	bf00      	nop
 8003ada:	370c      	adds	r7, #12
 8003adc:	46bd      	mov	sp, r7
 8003ade:	f85d 7b04 	ldr.w	r7, [sp], #4
 8003ae2:	4770      	bx	lr

08003ae4 <LL_TIM_OC_SetCompareCH3>:
  * @param  TIMx Timer instance
  * @param  CompareValue between Min_Data=0 and Max_Data=65535
  * @retval None
  */
__STATIC_INLINE void LL_TIM_OC_SetCompareCH3(TIM_TypeDef *TIMx, uint32_t CompareValue)
{
 8003ae4:	b480      	push	{r7}
 8003ae6:	b083      	sub	sp, #12
 8003ae8:	af00      	add	r7, sp, #0
 8003aea:	6078      	str	r0, [r7, #4]
 8003aec:	6039      	str	r1, [r7, #0]
  WRITE_REG(TIMx->CCR3, CompareValue);
 8003aee:	687b      	ldr	r3, [r7, #4]
 8003af0:	683a      	ldr	r2, [r7, #0]
 8003af2:	63da      	str	r2, [r3, #60]	; 0x3c
}
 8003af4:	bf00      	nop
 8003af6:	370c      	adds	r7, #12
 8003af8:	46bd      	mov	sp, r7
 8003afa:	f85d 7b04 	ldr.w	r7, [sp], #4
 8003afe:	4770      	bx	lr

08003b00 <LL_TIM_OC_SetCompareCH4>:
  * @param  TIMx Timer instance
  * @param  CompareValue between Min_Data=0 and Max_Data=65535
  * @retval None
  */
__STATIC_INLINE void LL_TIM_OC_SetCompareCH4(TIM_TypeDef *TIMx, uint32_t CompareValue)
{
 8003b00:	b480      	push	{r7}
 8003b02:	b083      	sub	sp, #12
 8003b04:	af00      	add	r7, sp, #0
 8003b06:	6078      	str	r0, [r7, #4]
 8003b08:	6039      	str	r1, [r7, #0]
  WRITE_REG(TIMx->CCR4, CompareValue);
 8003b0a:	687b      	ldr	r3, [r7, #4]
 8003b0c:	683a      	ldr	r2, [r7, #0]
 8003b0e:	641a      	str	r2, [r3, #64]	; 0x40
}
 8003b10:	bf00      	nop
 8003b12:	370c      	adds	r7, #12
 8003b14:	46bd      	mov	sp, r7
 8003b16:	f85d 7b04 	ldr.w	r7, [sp], #4
 8003b1a:	4770      	bx	lr

08003b1c <LL_TIM_OC_SetCompareCH5>:
  * @param  TIMx Timer instance
  * @param  CompareValue between Min_Data=0 and Max_Data=65535
  * @retval None
  */
__STATIC_INLINE void LL_TIM_OC_SetCompareCH5(TIM_TypeDef *TIMx, uint32_t CompareValue)
{
 8003b1c:	b480      	push	{r7}
 8003b1e:	b083      	sub	sp, #12
 8003b20:	af00      	add	r7, sp, #0
 8003b22:	6078      	str	r0, [r7, #4]
 8003b24:	6039      	str	r1, [r7, #0]
  MODIFY_REG(TIMx->CCR5, TIM_CCR5_CCR5, CompareValue);
 8003b26:	687b      	ldr	r3, [r7, #4]
 8003b28:	6c9b      	ldr	r3, [r3, #72]	; 0x48
 8003b2a:	687b      	ldr	r3, [r7, #4]
 8003b2c:	683a      	ldr	r2, [r7, #0]
 8003b2e:	649a      	str	r2, [r3, #72]	; 0x48
}
 8003b30:	bf00      	nop
 8003b32:	370c      	adds	r7, #12
 8003b34:	46bd      	mov	sp, r7
 8003b36:	f85d 7b04 	ldr.w	r7, [sp], #4
 8003b3a:	4770      	bx	lr

08003b3c <LL_TIM_OC_SetCompareCH6>:
  * @param  TIMx Timer instance
  * @param  CompareValue between Min_Data=0 and Max_Data=65535
  * @retval None
  */
__STATIC_INLINE void LL_TIM_OC_SetCompareCH6(TIM_TypeDef *TIMx, uint32_t CompareValue)
{
 8003b3c:	b480      	push	{r7}
 8003b3e:	b083      	sub	sp, #12
 8003b40:	af00      	add	r7, sp, #0
 8003b42:	6078      	str	r0, [r7, #4]
 8003b44:	6039      	str	r1, [r7, #0]
  WRITE_REG(TIMx->CCR6, CompareValue);
 8003b46:	687b      	ldr	r3, [r7, #4]
 8003b48:	683a      	ldr	r2, [r7, #0]
 8003b4a:	64da      	str	r2, [r3, #76]	; 0x4c
}
 8003b4c:	bf00      	nop
 8003b4e:	370c      	adds	r7, #12
 8003b50:	46bd      	mov	sp, r7
 8003b52:	f85d 7b04 	ldr.w	r7, [sp], #4
 8003b56:	4770      	bx	lr

08003b58 <LL_TIM_GenerateEvent_UPDATE>:
  * @rmtoll EGR          UG            LL_TIM_GenerateEvent_UPDATE
  * @param  TIMx Timer instance
  * @retval None
  */
__STATIC_INLINE void LL_TIM_GenerateEvent_UPDATE(TIM_TypeDef *TIMx)
{
 8003b58:	b480      	push	{r7}
 8003b5a:	b083      	sub	sp, #12
 8003b5c:	af00      	add	r7, sp, #0
 8003b5e:	6078      	str	r0, [r7, #4]
  SET_BIT(TIMx->EGR, TIM_EGR_UG);
 8003b60:	687b      	ldr	r3, [r7, #4]
 8003b62:	695b      	ldr	r3, [r3, #20]
 8003b64:	f043 0201 	orr.w	r2, r3, #1
 8003b68:	687b      	ldr	r3, [r7, #4]
 8003b6a:	615a      	str	r2, [r3, #20]
}
 8003b6c:	bf00      	nop
 8003b6e:	370c      	adds	r7, #12
 8003b70:	46bd      	mov	sp, r7
 8003b72:	f85d 7b04 	ldr.w	r7, [sp], #4
 8003b76:	4770      	bx	lr

08003b78 <LL_TIM_Init>:
  * @retval An ErrorStatus enumeration value:
  *          - SUCCESS: TIMx registers are de-initialized
  *          - ERROR: not applicable
  */
ErrorStatus LL_TIM_Init(TIM_TypeDef *TIMx, LL_TIM_InitTypeDef *TIM_InitStruct)
{
 8003b78:	b580      	push	{r7, lr}
 8003b7a:	b084      	sub	sp, #16
 8003b7c:	af00      	add	r7, sp, #0
 8003b7e:	6078      	str	r0, [r7, #4]
 8003b80:	6039      	str	r1, [r7, #0]
  /* Check the parameters */
  assert_param(IS_TIM_INSTANCE(TIMx));
  assert_param(IS_LL_TIM_COUNTERMODE(TIM_InitStruct->CounterMode));
  assert_param(IS_LL_TIM_CLOCKDIVISION(TIM_InitStruct->ClockDivision));

  tmpcr1 = LL_TIM_ReadReg(TIMx, CR1);
 8003b82:	687b      	ldr	r3, [r7, #4]
 8003b84:	681b      	ldr	r3, [r3, #0]
 8003b86:	60fb      	str	r3, [r7, #12]

  if (IS_TIM_COUNTER_MODE_SELECT_INSTANCE(TIMx))
 8003b88:	687b      	ldr	r3, [r7, #4]
 8003b8a:	4a43      	ldr	r2, [pc, #268]	; (8003c98 <LL_TIM_Init+0x120>)
 8003b8c:	4293      	cmp	r3, r2
 8003b8e:	d017      	beq.n	8003bc0 <LL_TIM_Init+0x48>
 8003b90:	687b      	ldr	r3, [r7, #4]
 8003b92:	f1b3 4f80 	cmp.w	r3, #1073741824	; 0x40000000
 8003b96:	d013      	beq.n	8003bc0 <LL_TIM_Init+0x48>
 8003b98:	687b      	ldr	r3, [r7, #4]
 8003b9a:	4a40      	ldr	r2, [pc, #256]	; (8003c9c <LL_TIM_Init+0x124>)
 8003b9c:	4293      	cmp	r3, r2
 8003b9e:	d00f      	beq.n	8003bc0 <LL_TIM_Init+0x48>
 8003ba0:	687b      	ldr	r3, [r7, #4]
 8003ba2:	4a3f      	ldr	r2, [pc, #252]	; (8003ca0 <LL_TIM_Init+0x128>)
 8003ba4:	4293      	cmp	r3, r2
 8003ba6:	d00b      	beq.n	8003bc0 <LL_TIM_Init+0x48>
 8003ba8:	687b      	ldr	r3, [r7, #4]
 8003baa:	4a3e      	ldr	r2, [pc, #248]	; (8003ca4 <LL_TIM_Init+0x12c>)
 8003bac:	4293      	cmp	r3, r2
 8003bae:	d007      	beq.n	8003bc0 <LL_TIM_Init+0x48>
 8003bb0:	687b      	ldr	r3, [r7, #4]
 8003bb2:	4a3d      	ldr	r2, [pc, #244]	; (8003ca8 <LL_TIM_Init+0x130>)
 8003bb4:	4293      	cmp	r3, r2
 8003bb6:	d003      	beq.n	8003bc0 <LL_TIM_Init+0x48>
 8003bb8:	687b      	ldr	r3, [r7, #4]
 8003bba:	4a3c      	ldr	r2, [pc, #240]	; (8003cac <LL_TIM_Init+0x134>)
 8003bbc:	4293      	cmp	r3, r2
 8003bbe:	d106      	bne.n	8003bce <LL_TIM_Init+0x56>
  {
    /* Select the Counter Mode */
    MODIFY_REG(tmpcr1, (TIM_CR1_DIR | TIM_CR1_CMS), TIM_InitStruct->CounterMode);
 8003bc0:	68fb      	ldr	r3, [r7, #12]
 8003bc2:	f023 0270 	bic.w	r2, r3, #112	; 0x70
 8003bc6:	683b      	ldr	r3, [r7, #0]
 8003bc8:	685b      	ldr	r3, [r3, #4]
 8003bca:	4313      	orrs	r3, r2
 8003bcc:	60fb      	str	r3, [r7, #12]
  }

  if (IS_TIM_CLOCK_DIVISION_INSTANCE(TIMx))
 8003bce:	687b      	ldr	r3, [r7, #4]
 8003bd0:	4a31      	ldr	r2, [pc, #196]	; (8003c98 <LL_TIM_Init+0x120>)
 8003bd2:	4293      	cmp	r3, r2
 8003bd4:	d023      	beq.n	8003c1e <LL_TIM_Init+0xa6>
 8003bd6:	687b      	ldr	r3, [r7, #4]
 8003bd8:	f1b3 4f80 	cmp.w	r3, #1073741824	; 0x40000000
 8003bdc:	d01f      	beq.n	8003c1e <LL_TIM_Init+0xa6>
 8003bde:	687b      	ldr	r3, [r7, #4]
 8003be0:	4a2e      	ldr	r2, [pc, #184]	; (8003c9c <LL_TIM_Init+0x124>)
 8003be2:	4293      	cmp	r3, r2
 8003be4:	d01b      	beq.n	8003c1e <LL_TIM_Init+0xa6>
 8003be6:	687b      	ldr	r3, [r7, #4]
 8003be8:	4a2d      	ldr	r2, [pc, #180]	; (8003ca0 <LL_TIM_Init+0x128>)
 8003bea:	4293      	cmp	r3, r2
 8003bec:	d017      	beq.n	8003c1e <LL_TIM_Init+0xa6>
 8003bee:	687b      	ldr	r3, [r7, #4]
 8003bf0:	4a2c      	ldr	r2, [pc, #176]	; (8003ca4 <LL_TIM_Init+0x12c>)
 8003bf2:	4293      	cmp	r3, r2
 8003bf4:	d013      	beq.n	8003c1e <LL_TIM_Init+0xa6>
 8003bf6:	687b      	ldr	r3, [r7, #4]
 8003bf8:	4a2b      	ldr	r2, [pc, #172]	; (8003ca8 <LL_TIM_Init+0x130>)
 8003bfa:	4293      	cmp	r3, r2
 8003bfc:	d00f      	beq.n	8003c1e <LL_TIM_Init+0xa6>
 8003bfe:	687b      	ldr	r3, [r7, #4]
 8003c00:	4a2b      	ldr	r2, [pc, #172]	; (8003cb0 <LL_TIM_Init+0x138>)
 8003c02:	4293      	cmp	r3, r2
 8003c04:	d00b      	beq.n	8003c1e <LL_TIM_Init+0xa6>
 8003c06:	687b      	ldr	r3, [r7, #4]
 8003c08:	4a2a      	ldr	r2, [pc, #168]	; (8003cb4 <LL_TIM_Init+0x13c>)
 8003c0a:	4293      	cmp	r3, r2
 8003c0c:	d007      	beq.n	8003c1e <LL_TIM_Init+0xa6>
 8003c0e:	687b      	ldr	r3, [r7, #4]
 8003c10:	4a29      	ldr	r2, [pc, #164]	; (8003cb8 <LL_TIM_Init+0x140>)
 8003c12:	4293      	cmp	r3, r2
 8003c14:	d003      	beq.n	8003c1e <LL_TIM_Init+0xa6>
 8003c16:	687b      	ldr	r3, [r7, #4]
 8003c18:	4a24      	ldr	r2, [pc, #144]	; (8003cac <LL_TIM_Init+0x134>)
 8003c1a:	4293      	cmp	r3, r2
 8003c1c:	d106      	bne.n	8003c2c <LL_TIM_Init+0xb4>
  {
    /* Set the clock division */
    MODIFY_REG(tmpcr1, TIM_CR1_CKD, TIM_InitStruct->ClockDivision);
 8003c1e:	68fb      	ldr	r3, [r7, #12]
 8003c20:	f423 7240 	bic.w	r2, r3, #768	; 0x300
 8003c24:	683b      	ldr	r3, [r7, #0]
 8003c26:	68db      	ldr	r3, [r3, #12]
 8003c28:	4313      	orrs	r3, r2
 8003c2a:	60fb      	str	r3, [r7, #12]
  }

  /* Write to TIMx CR1 */
  LL_TIM_WriteReg(TIMx, CR1, tmpcr1);
 8003c2c:	687b      	ldr	r3, [r7, #4]
 8003c2e:	68fa      	ldr	r2, [r7, #12]
 8003c30:	601a      	str	r2, [r3, #0]

  /* Set the Autoreload value */
  LL_TIM_SetAutoReload(TIMx, TIM_InitStruct->Autoreload);
 8003c32:	683b      	ldr	r3, [r7, #0]
 8003c34:	689b      	ldr	r3, [r3, #8]
 8003c36:	4619      	mov	r1, r3
 8003c38:	6878      	ldr	r0, [r7, #4]
 8003c3a:	f7ff ff1b 	bl	8003a74 <LL_TIM_SetAutoReload>

  /* Set the Prescaler value */
  LL_TIM_SetPrescaler(TIMx, TIM_InitStruct->Prescaler);
 8003c3e:	683b      	ldr	r3, [r7, #0]
 8003c40:	881b      	ldrh	r3, [r3, #0]
 8003c42:	4619      	mov	r1, r3
 8003c44:	6878      	ldr	r0, [r7, #4]
 8003c46:	f7ff ff07 	bl	8003a58 <LL_TIM_SetPrescaler>

  if (IS_TIM_REPETITION_COUNTER_INSTANCE(TIMx))
 8003c4a:	687b      	ldr	r3, [r7, #4]
 8003c4c:	4a12      	ldr	r2, [pc, #72]	; (8003c98 <LL_TIM_Init+0x120>)
 8003c4e:	4293      	cmp	r3, r2
 8003c50:	d013      	beq.n	8003c7a <LL_TIM_Init+0x102>
 8003c52:	687b      	ldr	r3, [r7, #4]
 8003c54:	4a14      	ldr	r2, [pc, #80]	; (8003ca8 <LL_TIM_Init+0x130>)
 8003c56:	4293      	cmp	r3, r2
 8003c58:	d00f      	beq.n	8003c7a <LL_TIM_Init+0x102>
 8003c5a:	687b      	ldr	r3, [r7, #4]
 8003c5c:	4a14      	ldr	r2, [pc, #80]	; (8003cb0 <LL_TIM_Init+0x138>)
 8003c5e:	4293      	cmp	r3, r2
 8003c60:	d00b      	beq.n	8003c7a <LL_TIM_Init+0x102>
 8003c62:	687b      	ldr	r3, [r7, #4]
 8003c64:	4a13      	ldr	r2, [pc, #76]	; (8003cb4 <LL_TIM_Init+0x13c>)
 8003c66:	4293      	cmp	r3, r2
 8003c68:	d007      	beq.n	8003c7a <LL_TIM_Init+0x102>
 8003c6a:	687b      	ldr	r3, [r7, #4]
 8003c6c:	4a12      	ldr	r2, [pc, #72]	; (8003cb8 <LL_TIM_Init+0x140>)
 8003c6e:	4293      	cmp	r3, r2
 8003c70:	d003      	beq.n	8003c7a <LL_TIM_Init+0x102>
 8003c72:	687b      	ldr	r3, [r7, #4]
 8003c74:	4a0d      	ldr	r2, [pc, #52]	; (8003cac <LL_TIM_Init+0x134>)
 8003c76:	4293      	cmp	r3, r2
 8003c78:	d105      	bne.n	8003c86 <LL_TIM_Init+0x10e>
  {
    /* Set the Repetition Counter value */
    LL_TIM_SetRepetitionCounter(TIMx, TIM_InitStruct->RepetitionCounter);
 8003c7a:	683b      	ldr	r3, [r7, #0]
 8003c7c:	691b      	ldr	r3, [r3, #16]
 8003c7e:	4619      	mov	r1, r3
 8003c80:	6878      	ldr	r0, [r7, #4]
 8003c82:	f7ff ff05 	bl	8003a90 <LL_TIM_SetRepetitionCounter>
  }

  /* Generate an update event to reload the Prescaler
     and the repetition counter value (if applicable) immediately */
  LL_TIM_GenerateEvent_UPDATE(TIMx);
 8003c86:	6878      	ldr	r0, [r7, #4]
 8003c88:	f7ff ff66 	bl	8003b58 <LL_TIM_GenerateEvent_UPDATE>

  return SUCCESS;
 8003c8c:	2300      	movs	r3, #0
}
 8003c8e:	4618      	mov	r0, r3
 8003c90:	3710      	adds	r7, #16
 8003c92:	46bd      	mov	sp, r7
 8003c94:	bd80      	pop	{r7, pc}
 8003c96:	bf00      	nop
 8003c98:	40012c00 	.word	0x40012c00
 8003c9c:	40000400 	.word	0x40000400
 8003ca0:	40000800 	.word	0x40000800
 8003ca4:	40000c00 	.word	0x40000c00
 8003ca8:	40013400 	.word	0x40013400
 8003cac:	40015000 	.word	0x40015000
 8003cb0:	40014000 	.word	0x40014000
 8003cb4:	40014400 	.word	0x40014400
 8003cb8:	40014800 	.word	0x40014800

08003cbc <LL_TIM_OC_Init>:
  * @retval An ErrorStatus enumeration value:
  *          - SUCCESS: TIMx output channel is initialized
  *          - ERROR: TIMx output channel is not initialized
  */
ErrorStatus LL_TIM_OC_Init(TIM_TypeDef *TIMx, uint32_t Channel, LL_TIM_OC_InitTypeDef *TIM_OC_InitStruct)
{
 8003cbc:	b580      	push	{r7, lr}
 8003cbe:	b086      	sub	sp, #24
 8003cc0:	af00      	add	r7, sp, #0
 8003cc2:	60f8      	str	r0, [r7, #12]
 8003cc4:	60b9      	str	r1, [r7, #8]
 8003cc6:	607a      	str	r2, [r7, #4]
  ErrorStatus result = ERROR;
 8003cc8:	2301      	movs	r3, #1
 8003cca:	75fb      	strb	r3, [r7, #23]

  switch (Channel)
 8003ccc:	68bb      	ldr	r3, [r7, #8]
 8003cce:	f5b3 1f80 	cmp.w	r3, #1048576	; 0x100000
 8003cd2:	d045      	beq.n	8003d60 <LL_TIM_OC_Init+0xa4>
 8003cd4:	68bb      	ldr	r3, [r7, #8]
 8003cd6:	f5b3 1f80 	cmp.w	r3, #1048576	; 0x100000
 8003cda:	d848      	bhi.n	8003d6e <LL_TIM_OC_Init+0xb2>
 8003cdc:	68bb      	ldr	r3, [r7, #8]
 8003cde:	f5b3 3f80 	cmp.w	r3, #65536	; 0x10000
 8003ce2:	d036      	beq.n	8003d52 <LL_TIM_OC_Init+0x96>
 8003ce4:	68bb      	ldr	r3, [r7, #8]
 8003ce6:	f5b3 3f80 	cmp.w	r3, #65536	; 0x10000
 8003cea:	d840      	bhi.n	8003d6e <LL_TIM_OC_Init+0xb2>
 8003cec:	68bb      	ldr	r3, [r7, #8]
 8003cee:	f5b3 5f80 	cmp.w	r3, #4096	; 0x1000
 8003cf2:	d027      	beq.n	8003d44 <LL_TIM_OC_Init+0x88>
 8003cf4:	68bb      	ldr	r3, [r7, #8]
 8003cf6:	f5b3 5f80 	cmp.w	r3, #4096	; 0x1000
 8003cfa:	d838      	bhi.n	8003d6e <LL_TIM_OC_Init+0xb2>
 8003cfc:	68bb      	ldr	r3, [r7, #8]
 8003cfe:	f5b3 7f80 	cmp.w	r3, #256	; 0x100
 8003d02:	d018      	beq.n	8003d36 <LL_TIM_OC_Init+0x7a>
 8003d04:	68bb      	ldr	r3, [r7, #8]
 8003d06:	f5b3 7f80 	cmp.w	r3, #256	; 0x100
 8003d0a:	d830      	bhi.n	8003d6e <LL_TIM_OC_Init+0xb2>
 8003d0c:	68bb      	ldr	r3, [r7, #8]
 8003d0e:	2b01      	cmp	r3, #1
 8003d10:	d003      	beq.n	8003d1a <LL_TIM_OC_Init+0x5e>
 8003d12:	68bb      	ldr	r3, [r7, #8]
 8003d14:	2b10      	cmp	r3, #16
 8003d16:	d007      	beq.n	8003d28 <LL_TIM_OC_Init+0x6c>
      break;
    case LL_TIM_CHANNEL_CH6:
      result = OC6Config(TIMx, TIM_OC_InitStruct);
      break;
    default:
      break;
 8003d18:	e029      	b.n	8003d6e <LL_TIM_OC_Init+0xb2>
      result = OC1Config(TIMx, TIM_OC_InitStruct);
 8003d1a:	6879      	ldr	r1, [r7, #4]
 8003d1c:	68f8      	ldr	r0, [r7, #12]
 8003d1e:	f000 f82d 	bl	8003d7c <OC1Config>
 8003d22:	4603      	mov	r3, r0
 8003d24:	75fb      	strb	r3, [r7, #23]
      break;
 8003d26:	e023      	b.n	8003d70 <LL_TIM_OC_Init+0xb4>
      result = OC2Config(TIMx, TIM_OC_InitStruct);
 8003d28:	6879      	ldr	r1, [r7, #4]
 8003d2a:	68f8      	ldr	r0, [r7, #12]
 8003d2c:	f000 f8ac 	bl	8003e88 <OC2Config>
 8003d30:	4603      	mov	r3, r0
 8003d32:	75fb      	strb	r3, [r7, #23]
      break;
 8003d34:	e01c      	b.n	8003d70 <LL_TIM_OC_Init+0xb4>
      result = OC3Config(TIMx, TIM_OC_InitStruct);
 8003d36:	6879      	ldr	r1, [r7, #4]
 8003d38:	68f8      	ldr	r0, [r7, #12]
 8003d3a:	f000 f92f 	bl	8003f9c <OC3Config>
 8003d3e:	4603      	mov	r3, r0
 8003d40:	75fb      	strb	r3, [r7, #23]
      break;
 8003d42:	e015      	b.n	8003d70 <LL_TIM_OC_Init+0xb4>
      result = OC4Config(TIMx, TIM_OC_InitStruct);
 8003d44:	6879      	ldr	r1, [r7, #4]
 8003d46:	68f8      	ldr	r0, [r7, #12]
 8003d48:	f000 f9b2 	bl	80040b0 <OC4Config>
 8003d4c:	4603      	mov	r3, r0
 8003d4e:	75fb      	strb	r3, [r7, #23]
      break;
 8003d50:	e00e      	b.n	8003d70 <LL_TIM_OC_Init+0xb4>
      result = OC5Config(TIMx, TIM_OC_InitStruct);
 8003d52:	6879      	ldr	r1, [r7, #4]
 8003d54:	68f8      	ldr	r0, [r7, #12]
 8003d56:	f000 fa35 	bl	80041c4 <OC5Config>
 8003d5a:	4603      	mov	r3, r0
 8003d5c:	75fb      	strb	r3, [r7, #23]
      break;
 8003d5e:	e007      	b.n	8003d70 <LL_TIM_OC_Init+0xb4>
      result = OC6Config(TIMx, TIM_OC_InitStruct);
 8003d60:	6879      	ldr	r1, [r7, #4]
 8003d62:	68f8      	ldr	r0, [r7, #12]
 8003d64:	f000 fa98 	bl	8004298 <OC6Config>
 8003d68:	4603      	mov	r3, r0
 8003d6a:	75fb      	strb	r3, [r7, #23]
      break;
 8003d6c:	e000      	b.n	8003d70 <LL_TIM_OC_Init+0xb4>
      break;
 8003d6e:	bf00      	nop
  }

  return result;
 8003d70:	7dfb      	ldrb	r3, [r7, #23]
}
 8003d72:	4618      	mov	r0, r3
 8003d74:	3718      	adds	r7, #24
 8003d76:	46bd      	mov	sp, r7
 8003d78:	bd80      	pop	{r7, pc}
	...

08003d7c <OC1Config>:
  * @retval An ErrorStatus enumeration value:
  *          - SUCCESS: TIMx registers are de-initialized
  *          - ERROR: not applicable
  */
static ErrorStatus OC1Config(TIM_TypeDef *TIMx, LL_TIM_OC_InitTypeDef *TIM_OCInitStruct)
{
 8003d7c:	b580      	push	{r7, lr}
 8003d7e:	b086      	sub	sp, #24
 8003d80:	af00      	add	r7, sp, #0
 8003d82:	6078      	str	r0, [r7, #4]
 8003d84:	6039      	str	r1, [r7, #0]
  assert_param(IS_LL_TIM_OCPOLARITY(TIM_OCInitStruct->OCPolarity));
  assert_param(IS_LL_TIM_OCSTATE(TIM_OCInitStruct->OCNState));
  assert_param(IS_LL_TIM_OCPOLARITY(TIM_OCInitStruct->OCNPolarity));

  /* Disable the Channel 1: Reset the CC1E Bit */
  CLEAR_BIT(TIMx->CCER, TIM_CCER_CC1E);
 8003d86:	687b      	ldr	r3, [r7, #4]
 8003d88:	6a1b      	ldr	r3, [r3, #32]
 8003d8a:	f023 0201 	bic.w	r2, r3, #1
 8003d8e:	687b      	ldr	r3, [r7, #4]
 8003d90:	621a      	str	r2, [r3, #32]

  /* Get the TIMx CCER register value */
  tmpccer = LL_TIM_ReadReg(TIMx, CCER);
 8003d92:	687b      	ldr	r3, [r7, #4]
 8003d94:	6a1b      	ldr	r3, [r3, #32]
 8003d96:	617b      	str	r3, [r7, #20]

  /* Get the TIMx CR2 register value */
  tmpcr2 = LL_TIM_ReadReg(TIMx, CR2);
 8003d98:	687b      	ldr	r3, [r7, #4]
 8003d9a:	685b      	ldr	r3, [r3, #4]
 8003d9c:	613b      	str	r3, [r7, #16]

  /* Get the TIMx CCMR1 register value */
  tmpccmr1 = LL_TIM_ReadReg(TIMx, CCMR1);
 8003d9e:	687b      	ldr	r3, [r7, #4]
 8003da0:	699b      	ldr	r3, [r3, #24]
 8003da2:	60fb      	str	r3, [r7, #12]

  /* Reset Capture/Compare selection Bits */
  CLEAR_BIT(tmpccmr1, TIM_CCMR1_CC1S);
 8003da4:	68fb      	ldr	r3, [r7, #12]
 8003da6:	f023 0303 	bic.w	r3, r3, #3
 8003daa:	60fb      	str	r3, [r7, #12]

  /* Set the Output Compare Mode */
  MODIFY_REG(tmpccmr1, TIM_CCMR1_OC1M, TIM_OCInitStruct->OCMode);
 8003dac:	68fb      	ldr	r3, [r7, #12]
 8003dae:	f423 3380 	bic.w	r3, r3, #65536	; 0x10000
 8003db2:	f023 0370 	bic.w	r3, r3, #112	; 0x70
 8003db6:	683a      	ldr	r2, [r7, #0]
 8003db8:	6812      	ldr	r2, [r2, #0]
 8003dba:	4313      	orrs	r3, r2
 8003dbc:	60fb      	str	r3, [r7, #12]

  /* Set the Output Compare Polarity */
  MODIFY_REG(tmpccer, TIM_CCER_CC1P, TIM_OCInitStruct->OCPolarity);
 8003dbe:	697b      	ldr	r3, [r7, #20]
 8003dc0:	f023 0202 	bic.w	r2, r3, #2
 8003dc4:	683b      	ldr	r3, [r7, #0]
 8003dc6:	691b      	ldr	r3, [r3, #16]
 8003dc8:	4313      	orrs	r3, r2
 8003dca:	617b      	str	r3, [r7, #20]

  /* Set the Output State */
  MODIFY_REG(tmpccer, TIM_CCER_CC1E, TIM_OCInitStruct->OCState);
 8003dcc:	697b      	ldr	r3, [r7, #20]
 8003dce:	f023 0201 	bic.w	r2, r3, #1
 8003dd2:	683b      	ldr	r3, [r7, #0]
 8003dd4:	685b      	ldr	r3, [r3, #4]
 8003dd6:	4313      	orrs	r3, r2
 8003dd8:	617b      	str	r3, [r7, #20]

  if (IS_TIM_BREAK_INSTANCE(TIMx))
 8003dda:	687b      	ldr	r3, [r7, #4]
 8003ddc:	4a24      	ldr	r2, [pc, #144]	; (8003e70 <OC1Config+0xf4>)
 8003dde:	4293      	cmp	r3, r2
 8003de0:	d013      	beq.n	8003e0a <OC1Config+0x8e>
 8003de2:	687b      	ldr	r3, [r7, #4]
 8003de4:	4a23      	ldr	r2, [pc, #140]	; (8003e74 <OC1Config+0xf8>)
 8003de6:	4293      	cmp	r3, r2
 8003de8:	d00f      	beq.n	8003e0a <OC1Config+0x8e>
 8003dea:	687b      	ldr	r3, [r7, #4]
 8003dec:	4a22      	ldr	r2, [pc, #136]	; (8003e78 <OC1Config+0xfc>)
 8003dee:	4293      	cmp	r3, r2
 8003df0:	d00b      	beq.n	8003e0a <OC1Config+0x8e>
 8003df2:	687b      	ldr	r3, [r7, #4]
 8003df4:	4a21      	ldr	r2, [pc, #132]	; (8003e7c <OC1Config+0x100>)
 8003df6:	4293      	cmp	r3, r2
 8003df8:	d007      	beq.n	8003e0a <OC1Config+0x8e>
 8003dfa:	687b      	ldr	r3, [r7, #4]
 8003dfc:	4a20      	ldr	r2, [pc, #128]	; (8003e80 <OC1Config+0x104>)
 8003dfe:	4293      	cmp	r3, r2
 8003e00:	d003      	beq.n	8003e0a <OC1Config+0x8e>
 8003e02:	687b      	ldr	r3, [r7, #4]
 8003e04:	4a1f      	ldr	r2, [pc, #124]	; (8003e84 <OC1Config+0x108>)
 8003e06:	4293      	cmp	r3, r2
 8003e08:	d11e      	bne.n	8003e48 <OC1Config+0xcc>
  {
    assert_param(IS_LL_TIM_OCIDLESTATE(TIM_OCInitStruct->OCNIdleState));
    assert_param(IS_LL_TIM_OCIDLESTATE(TIM_OCInitStruct->OCIdleState));

    /* Set the complementary output Polarity */
    MODIFY_REG(tmpccer, TIM_CCER_CC1NP, TIM_OCInitStruct->OCNPolarity << 2U);
 8003e0a:	697b      	ldr	r3, [r7, #20]
 8003e0c:	f023 0208 	bic.w	r2, r3, #8
 8003e10:	683b      	ldr	r3, [r7, #0]
 8003e12:	695b      	ldr	r3, [r3, #20]
 8003e14:	009b      	lsls	r3, r3, #2
 8003e16:	4313      	orrs	r3, r2
 8003e18:	617b      	str	r3, [r7, #20]

    /* Set the complementary output State */
    MODIFY_REG(tmpccer, TIM_CCER_CC1NE, TIM_OCInitStruct->OCNState << 2U);
 8003e1a:	697b      	ldr	r3, [r7, #20]
 8003e1c:	f023 0204 	bic.w	r2, r3, #4
 8003e20:	683b      	ldr	r3, [r7, #0]
 8003e22:	689b      	ldr	r3, [r3, #8]
 8003e24:	009b      	lsls	r3, r3, #2
 8003e26:	4313      	orrs	r3, r2
 8003e28:	617b      	str	r3, [r7, #20]

    /* Set the Output Idle state */
    MODIFY_REG(tmpcr2, TIM_CR2_OIS1, TIM_OCInitStruct->OCIdleState);
 8003e2a:	693b      	ldr	r3, [r7, #16]
 8003e2c:	f423 7280 	bic.w	r2, r3, #256	; 0x100
 8003e30:	683b      	ldr	r3, [r7, #0]
 8003e32:	699b      	ldr	r3, [r3, #24]
 8003e34:	4313      	orrs	r3, r2
 8003e36:	613b      	str	r3, [r7, #16]

    /* Set the complementary output Idle state */
    MODIFY_REG(tmpcr2, TIM_CR2_OIS1N, TIM_OCInitStruct->OCNIdleState << 1U);
 8003e38:	693b      	ldr	r3, [r7, #16]
 8003e3a:	f423 7200 	bic.w	r2, r3, #512	; 0x200
 8003e3e:	683b      	ldr	r3, [r7, #0]
 8003e40:	69db      	ldr	r3, [r3, #28]
 8003e42:	005b      	lsls	r3, r3, #1
 8003e44:	4313      	orrs	r3, r2
 8003e46:	613b      	str	r3, [r7, #16]
  }

  /* Write to TIMx CR2 */
  LL_TIM_WriteReg(TIMx, CR2, tmpcr2);
 8003e48:	687b      	ldr	r3, [r7, #4]
 8003e4a:	693a      	ldr	r2, [r7, #16]
 8003e4c:	605a      	str	r2, [r3, #4]

  /* Write to TIMx CCMR1 */
  LL_TIM_WriteReg(TIMx, CCMR1, tmpccmr1);
 8003e4e:	687b      	ldr	r3, [r7, #4]
 8003e50:	68fa      	ldr	r2, [r7, #12]
 8003e52:	619a      	str	r2, [r3, #24]

  /* Set the Capture Compare Register value */
  LL_TIM_OC_SetCompareCH1(TIMx, TIM_OCInitStruct->CompareValue);
 8003e54:	683b      	ldr	r3, [r7, #0]
 8003e56:	68db      	ldr	r3, [r3, #12]
 8003e58:	4619      	mov	r1, r3
 8003e5a:	6878      	ldr	r0, [r7, #4]
 8003e5c:	f7ff fe26 	bl	8003aac <LL_TIM_OC_SetCompareCH1>

  /* Write to TIMx CCER */
  LL_TIM_WriteReg(TIMx, CCER, tmpccer);
 8003e60:	687b      	ldr	r3, [r7, #4]
 8003e62:	697a      	ldr	r2, [r7, #20]
 8003e64:	621a      	str	r2, [r3, #32]

  return SUCCESS;
 8003e66:	2300      	movs	r3, #0
}
 8003e68:	4618      	mov	r0, r3
 8003e6a:	3718      	adds	r7, #24
 8003e6c:	46bd      	mov	sp, r7
 8003e6e:	bd80      	pop	{r7, pc}
 8003e70:	40012c00 	.word	0x40012c00
 8003e74:	40013400 	.word	0x40013400
 8003e78:	40014000 	.word	0x40014000
 8003e7c:	40014400 	.word	0x40014400
 8003e80:	40014800 	.word	0x40014800
 8003e84:	40015000 	.word	0x40015000

08003e88 <OC2Config>:
  * @retval An ErrorStatus enumeration value:
  *          - SUCCESS: TIMx registers are de-initialized
  *          - ERROR: not applicable
  */
static ErrorStatus OC2Config(TIM_TypeDef *TIMx, LL_TIM_OC_InitTypeDef *TIM_OCInitStruct)
{
 8003e88:	b580      	push	{r7, lr}
 8003e8a:	b086      	sub	sp, #24
 8003e8c:	af00      	add	r7, sp, #0
 8003e8e:	6078      	str	r0, [r7, #4]
 8003e90:	6039      	str	r1, [r7, #0]
  assert_param(IS_LL_TIM_OCPOLARITY(TIM_OCInitStruct->OCPolarity));
  assert_param(IS_LL_TIM_OCSTATE(TIM_OCInitStruct->OCNState));
  assert_param(IS_LL_TIM_OCPOLARITY(TIM_OCInitStruct->OCNPolarity));

  /* Disable the Channel 2: Reset the CC2E Bit */
  CLEAR_BIT(TIMx->CCER, TIM_CCER_CC2E);
 8003e92:	687b      	ldr	r3, [r7, #4]
 8003e94:	6a1b      	ldr	r3, [r3, #32]
 8003e96:	f023 0210 	bic.w	r2, r3, #16
 8003e9a:	687b      	ldr	r3, [r7, #4]
 8003e9c:	621a      	str	r2, [r3, #32]

  /* Get the TIMx CCER register value */
  tmpccer =  LL_TIM_ReadReg(TIMx, CCER);
 8003e9e:	687b      	ldr	r3, [r7, #4]
 8003ea0:	6a1b      	ldr	r3, [r3, #32]
 8003ea2:	617b      	str	r3, [r7, #20]

  /* Get the TIMx CR2 register value */
  tmpcr2 = LL_TIM_ReadReg(TIMx, CR2);
 8003ea4:	687b      	ldr	r3, [r7, #4]
 8003ea6:	685b      	ldr	r3, [r3, #4]
 8003ea8:	613b      	str	r3, [r7, #16]

  /* Get the TIMx CCMR1 register value */
  tmpccmr1 = LL_TIM_ReadReg(TIMx, CCMR1);
 8003eaa:	687b      	ldr	r3, [r7, #4]
 8003eac:	699b      	ldr	r3, [r3, #24]
 8003eae:	60fb      	str	r3, [r7, #12]

  /* Reset Capture/Compare selection Bits */
  CLEAR_BIT(tmpccmr1, TIM_CCMR1_CC2S);
 8003eb0:	68fb      	ldr	r3, [r7, #12]
 8003eb2:	f423 7340 	bic.w	r3, r3, #768	; 0x300
 8003eb6:	60fb      	str	r3, [r7, #12]

  /* Select the Output Compare Mode */
  MODIFY_REG(tmpccmr1, TIM_CCMR1_OC2M, TIM_OCInitStruct->OCMode << 8U);
 8003eb8:	68fb      	ldr	r3, [r7, #12]
 8003eba:	f023 7380 	bic.w	r3, r3, #16777216	; 0x1000000
 8003ebe:	f423 43e0 	bic.w	r3, r3, #28672	; 0x7000
 8003ec2:	683a      	ldr	r2, [r7, #0]
 8003ec4:	6812      	ldr	r2, [r2, #0]
 8003ec6:	0212      	lsls	r2, r2, #8
 8003ec8:	4313      	orrs	r3, r2
 8003eca:	60fb      	str	r3, [r7, #12]

  /* Set the Output Compare Polarity */
  MODIFY_REG(tmpccer, TIM_CCER_CC2P, TIM_OCInitStruct->OCPolarity << 4U);
 8003ecc:	697b      	ldr	r3, [r7, #20]
 8003ece:	f023 0220 	bic.w	r2, r3, #32
 8003ed2:	683b      	ldr	r3, [r7, #0]
 8003ed4:	691b      	ldr	r3, [r3, #16]
 8003ed6:	011b      	lsls	r3, r3, #4
 8003ed8:	4313      	orrs	r3, r2
 8003eda:	617b      	str	r3, [r7, #20]

  /* Set the Output State */
  MODIFY_REG(tmpccer, TIM_CCER_CC2E, TIM_OCInitStruct->OCState << 4U);
 8003edc:	697b      	ldr	r3, [r7, #20]
 8003ede:	f023 0210 	bic.w	r2, r3, #16
 8003ee2:	683b      	ldr	r3, [r7, #0]
 8003ee4:	685b      	ldr	r3, [r3, #4]
 8003ee6:	011b      	lsls	r3, r3, #4
 8003ee8:	4313      	orrs	r3, r2
 8003eea:	617b      	str	r3, [r7, #20]

  if (IS_TIM_BREAK_INSTANCE(TIMx))
 8003eec:	687b      	ldr	r3, [r7, #4]
 8003eee:	4a25      	ldr	r2, [pc, #148]	; (8003f84 <OC2Config+0xfc>)
 8003ef0:	4293      	cmp	r3, r2
 8003ef2:	d013      	beq.n	8003f1c <OC2Config+0x94>
 8003ef4:	687b      	ldr	r3, [r7, #4]
 8003ef6:	4a24      	ldr	r2, [pc, #144]	; (8003f88 <OC2Config+0x100>)
 8003ef8:	4293      	cmp	r3, r2
 8003efa:	d00f      	beq.n	8003f1c <OC2Config+0x94>
 8003efc:	687b      	ldr	r3, [r7, #4]
 8003efe:	4a23      	ldr	r2, [pc, #140]	; (8003f8c <OC2Config+0x104>)
 8003f00:	4293      	cmp	r3, r2
 8003f02:	d00b      	beq.n	8003f1c <OC2Config+0x94>
 8003f04:	687b      	ldr	r3, [r7, #4]
 8003f06:	4a22      	ldr	r2, [pc, #136]	; (8003f90 <OC2Config+0x108>)
 8003f08:	4293      	cmp	r3, r2
 8003f0a:	d007      	beq.n	8003f1c <OC2Config+0x94>
 8003f0c:	687b      	ldr	r3, [r7, #4]
 8003f0e:	4a21      	ldr	r2, [pc, #132]	; (8003f94 <OC2Config+0x10c>)
 8003f10:	4293      	cmp	r3, r2
 8003f12:	d003      	beq.n	8003f1c <OC2Config+0x94>
 8003f14:	687b      	ldr	r3, [r7, #4]
 8003f16:	4a20      	ldr	r2, [pc, #128]	; (8003f98 <OC2Config+0x110>)
 8003f18:	4293      	cmp	r3, r2
 8003f1a:	d11f      	bne.n	8003f5c <OC2Config+0xd4>
  {
    assert_param(IS_LL_TIM_OCIDLESTATE(TIM_OCInitStruct->OCNIdleState));
    assert_param(IS_LL_TIM_OCIDLESTATE(TIM_OCInitStruct->OCIdleState));

    /* Set the complementary output Polarity */
    MODIFY_REG(tmpccer, TIM_CCER_CC2NP, TIM_OCInitStruct->OCNPolarity << 6U);
 8003f1c:	697b      	ldr	r3, [r7, #20]
 8003f1e:	f023 0280 	bic.w	r2, r3, #128	; 0x80
 8003f22:	683b      	ldr	r3, [r7, #0]
 8003f24:	695b      	ldr	r3, [r3, #20]
 8003f26:	019b      	lsls	r3, r3, #6
 8003f28:	4313      	orrs	r3, r2
 8003f2a:	617b      	str	r3, [r7, #20]

    /* Set the complementary output State */
    MODIFY_REG(tmpccer, TIM_CCER_CC2NE, TIM_OCInitStruct->OCNState << 6U);
 8003f2c:	697b      	ldr	r3, [r7, #20]
 8003f2e:	f023 0240 	bic.w	r2, r3, #64	; 0x40
 8003f32:	683b      	ldr	r3, [r7, #0]
 8003f34:	689b      	ldr	r3, [r3, #8]
 8003f36:	019b      	lsls	r3, r3, #6
 8003f38:	4313      	orrs	r3, r2
 8003f3a:	617b      	str	r3, [r7, #20]

    /* Set the Output Idle state */
    MODIFY_REG(tmpcr2, TIM_CR2_OIS2, TIM_OCInitStruct->OCIdleState << 2U);
 8003f3c:	693b      	ldr	r3, [r7, #16]
 8003f3e:	f423 6280 	bic.w	r2, r3, #1024	; 0x400
 8003f42:	683b      	ldr	r3, [r7, #0]
 8003f44:	699b      	ldr	r3, [r3, #24]
 8003f46:	009b      	lsls	r3, r3, #2
 8003f48:	4313      	orrs	r3, r2
 8003f4a:	613b      	str	r3, [r7, #16]

    /* Set the complementary output Idle state */
    MODIFY_REG(tmpcr2, TIM_CR2_OIS2N, TIM_OCInitStruct->OCNIdleState << 3U);
 8003f4c:	693b      	ldr	r3, [r7, #16]
 8003f4e:	f423 6200 	bic.w	r2, r3, #2048	; 0x800
 8003f52:	683b      	ldr	r3, [r7, #0]
 8003f54:	69db      	ldr	r3, [r3, #28]
 8003f56:	00db      	lsls	r3, r3, #3
 8003f58:	4313      	orrs	r3, r2
 8003f5a:	613b      	str	r3, [r7, #16]
  }

  /* Write to TIMx CR2 */
  LL_TIM_WriteReg(TIMx, CR2, tmpcr2);
 8003f5c:	687b      	ldr	r3, [r7, #4]
 8003f5e:	693a      	ldr	r2, [r7, #16]
 8003f60:	605a      	str	r2, [r3, #4]

  /* Write to TIMx CCMR1 */
  LL_TIM_WriteReg(TIMx, CCMR1, tmpccmr1);
 8003f62:	687b      	ldr	r3, [r7, #4]
 8003f64:	68fa      	ldr	r2, [r7, #12]
 8003f66:	619a      	str	r2, [r3, #24]

  /* Set the Capture Compare Register value */
  LL_TIM_OC_SetCompareCH2(TIMx, TIM_OCInitStruct->CompareValue);
 8003f68:	683b      	ldr	r3, [r7, #0]
 8003f6a:	68db      	ldr	r3, [r3, #12]
 8003f6c:	4619      	mov	r1, r3
 8003f6e:	6878      	ldr	r0, [r7, #4]
 8003f70:	f7ff fdaa 	bl	8003ac8 <LL_TIM_OC_SetCompareCH2>

  /* Write to TIMx CCER */
  LL_TIM_WriteReg(TIMx, CCER, tmpccer);
 8003f74:	687b      	ldr	r3, [r7, #4]
 8003f76:	697a      	ldr	r2, [r7, #20]
 8003f78:	621a      	str	r2, [r3, #32]

  return SUCCESS;
 8003f7a:	2300      	movs	r3, #0
}
 8003f7c:	4618      	mov	r0, r3
 8003f7e:	3718      	adds	r7, #24
 8003f80:	46bd      	mov	sp, r7
 8003f82:	bd80      	pop	{r7, pc}
 8003f84:	40012c00 	.word	0x40012c00
 8003f88:	40013400 	.word	0x40013400
 8003f8c:	40014000 	.word	0x40014000
 8003f90:	40014400 	.word	0x40014400
 8003f94:	40014800 	.word	0x40014800
 8003f98:	40015000 	.word	0x40015000

08003f9c <OC3Config>:
  * @retval An ErrorStatus enumeration value:
  *          - SUCCESS: TIMx registers are de-initialized
  *          - ERROR: not applicable
  */
static ErrorStatus OC3Config(TIM_TypeDef *TIMx, LL_TIM_OC_InitTypeDef *TIM_OCInitStruct)
{
 8003f9c:	b580      	push	{r7, lr}
 8003f9e:	b086      	sub	sp, #24
 8003fa0:	af00      	add	r7, sp, #0
 8003fa2:	6078      	str	r0, [r7, #4]
 8003fa4:	6039      	str	r1, [r7, #0]
  assert_param(IS_LL_TIM_OCPOLARITY(TIM_OCInitStruct->OCPolarity));
  assert_param(IS_LL_TIM_OCSTATE(TIM_OCInitStruct->OCNState));
  assert_param(IS_LL_TIM_OCPOLARITY(TIM_OCInitStruct->OCNPolarity));

  /* Disable the Channel 3: Reset the CC3E Bit */
  CLEAR_BIT(TIMx->CCER, TIM_CCER_CC3E);
 8003fa6:	687b      	ldr	r3, [r7, #4]
 8003fa8:	6a1b      	ldr	r3, [r3, #32]
 8003faa:	f423 7280 	bic.w	r2, r3, #256	; 0x100
 8003fae:	687b      	ldr	r3, [r7, #4]
 8003fb0:	621a      	str	r2, [r3, #32]

  /* Get the TIMx CCER register value */
  tmpccer =  LL_TIM_ReadReg(TIMx, CCER);
 8003fb2:	687b      	ldr	r3, [r7, #4]
 8003fb4:	6a1b      	ldr	r3, [r3, #32]
 8003fb6:	617b      	str	r3, [r7, #20]

  /* Get the TIMx CR2 register value */
  tmpcr2 = LL_TIM_ReadReg(TIMx, CR2);
 8003fb8:	687b      	ldr	r3, [r7, #4]
 8003fba:	685b      	ldr	r3, [r3, #4]
 8003fbc:	613b      	str	r3, [r7, #16]

  /* Get the TIMx CCMR2 register value */
  tmpccmr2 = LL_TIM_ReadReg(TIMx, CCMR2);
 8003fbe:	687b      	ldr	r3, [r7, #4]
 8003fc0:	69db      	ldr	r3, [r3, #28]
 8003fc2:	60fb      	str	r3, [r7, #12]

  /* Reset Capture/Compare selection Bits */
  CLEAR_BIT(tmpccmr2, TIM_CCMR2_CC3S);
 8003fc4:	68fb      	ldr	r3, [r7, #12]
 8003fc6:	f023 0303 	bic.w	r3, r3, #3
 8003fca:	60fb      	str	r3, [r7, #12]

  /* Select the Output Compare Mode */
  MODIFY_REG(tmpccmr2, TIM_CCMR2_OC3M, TIM_OCInitStruct->OCMode);
 8003fcc:	68fb      	ldr	r3, [r7, #12]
 8003fce:	f423 3380 	bic.w	r3, r3, #65536	; 0x10000
 8003fd2:	f023 0370 	bic.w	r3, r3, #112	; 0x70
 8003fd6:	683a      	ldr	r2, [r7, #0]
 8003fd8:	6812      	ldr	r2, [r2, #0]
 8003fda:	4313      	orrs	r3, r2
 8003fdc:	60fb      	str	r3, [r7, #12]

  /* Set the Output Compare Polarity */
  MODIFY_REG(tmpccer, TIM_CCER_CC3P, TIM_OCInitStruct->OCPolarity << 8U);
 8003fde:	697b      	ldr	r3, [r7, #20]
 8003fe0:	f423 7200 	bic.w	r2, r3, #512	; 0x200
 8003fe4:	683b      	ldr	r3, [r7, #0]
 8003fe6:	691b      	ldr	r3, [r3, #16]
 8003fe8:	021b      	lsls	r3, r3, #8
 8003fea:	4313      	orrs	r3, r2
 8003fec:	617b      	str	r3, [r7, #20]

  /* Set the Output State */
  MODIFY_REG(tmpccer, TIM_CCER_CC3E, TIM_OCInitStruct->OCState << 8U);
 8003fee:	697b      	ldr	r3, [r7, #20]
 8003ff0:	f423 7280 	bic.w	r2, r3, #256	; 0x100
 8003ff4:	683b      	ldr	r3, [r7, #0]
 8003ff6:	685b      	ldr	r3, [r3, #4]
 8003ff8:	021b      	lsls	r3, r3, #8
 8003ffa:	4313      	orrs	r3, r2
 8003ffc:	617b      	str	r3, [r7, #20]

  if (IS_TIM_BREAK_INSTANCE(TIMx))
 8003ffe:	687b      	ldr	r3, [r7, #4]
 8004000:	4a25      	ldr	r2, [pc, #148]	; (8004098 <OC3Config+0xfc>)
 8004002:	4293      	cmp	r3, r2
 8004004:	d013      	beq.n	800402e <OC3Config+0x92>
 8004006:	687b      	ldr	r3, [r7, #4]
 8004008:	4a24      	ldr	r2, [pc, #144]	; (800409c <OC3Config+0x100>)
 800400a:	4293      	cmp	r3, r2
 800400c:	d00f      	beq.n	800402e <OC3Config+0x92>
 800400e:	687b      	ldr	r3, [r7, #4]
 8004010:	4a23      	ldr	r2, [pc, #140]	; (80040a0 <OC3Config+0x104>)
 8004012:	4293      	cmp	r3, r2
 8004014:	d00b      	beq.n	800402e <OC3Config+0x92>
 8004016:	687b      	ldr	r3, [r7, #4]
 8004018:	4a22      	ldr	r2, [pc, #136]	; (80040a4 <OC3Config+0x108>)
 800401a:	4293      	cmp	r3, r2
 800401c:	d007      	beq.n	800402e <OC3Config+0x92>
 800401e:	687b      	ldr	r3, [r7, #4]
 8004020:	4a21      	ldr	r2, [pc, #132]	; (80040a8 <OC3Config+0x10c>)
 8004022:	4293      	cmp	r3, r2
 8004024:	d003      	beq.n	800402e <OC3Config+0x92>
 8004026:	687b      	ldr	r3, [r7, #4]
 8004028:	4a20      	ldr	r2, [pc, #128]	; (80040ac <OC3Config+0x110>)
 800402a:	4293      	cmp	r3, r2
 800402c:	d11f      	bne.n	800406e <OC3Config+0xd2>
  {
    assert_param(IS_LL_TIM_OCIDLESTATE(TIM_OCInitStruct->OCNIdleState));
    assert_param(IS_LL_TIM_OCIDLESTATE(TIM_OCInitStruct->OCIdleState));

    /* Set the complementary output Polarity */
    MODIFY_REG(tmpccer, TIM_CCER_CC3NP, TIM_OCInitStruct->OCNPolarity << 10U);
 800402e:	697b      	ldr	r3, [r7, #20]
 8004030:	f423 6200 	bic.w	r2, r3, #2048	; 0x800
 8004034:	683b      	ldr	r3, [r7, #0]
 8004036:	695b      	ldr	r3, [r3, #20]
 8004038:	029b      	lsls	r3, r3, #10
 800403a:	4313      	orrs	r3, r2
 800403c:	617b      	str	r3, [r7, #20]

    /* Set the complementary output State */
    MODIFY_REG(tmpccer, TIM_CCER_CC3NE, TIM_OCInitStruct->OCNState << 10U);
 800403e:	697b      	ldr	r3, [r7, #20]
 8004040:	f423 6280 	bic.w	r2, r3, #1024	; 0x400
 8004044:	683b      	ldr	r3, [r7, #0]
 8004046:	689b      	ldr	r3, [r3, #8]
 8004048:	029b      	lsls	r3, r3, #10
 800404a:	4313      	orrs	r3, r2
 800404c:	617b      	str	r3, [r7, #20]

    /* Set the Output Idle state */
    MODIFY_REG(tmpcr2, TIM_CR2_OIS3, TIM_OCInitStruct->OCIdleState << 4U);
 800404e:	693b      	ldr	r3, [r7, #16]
 8004050:	f423 5280 	bic.w	r2, r3, #4096	; 0x1000
 8004054:	683b      	ldr	r3, [r7, #0]
 8004056:	699b      	ldr	r3, [r3, #24]
 8004058:	011b      	lsls	r3, r3, #4
 800405a:	4313      	orrs	r3, r2
 800405c:	613b      	str	r3, [r7, #16]

    /* Set the complementary output Idle state */
    MODIFY_REG(tmpcr2, TIM_CR2_OIS3N, TIM_OCInitStruct->OCNIdleState << 5U);
 800405e:	693b      	ldr	r3, [r7, #16]
 8004060:	f423 5200 	bic.w	r2, r3, #8192	; 0x2000
 8004064:	683b      	ldr	r3, [r7, #0]
 8004066:	69db      	ldr	r3, [r3, #28]
 8004068:	015b      	lsls	r3, r3, #5
 800406a:	4313      	orrs	r3, r2
 800406c:	613b      	str	r3, [r7, #16]
  }

  /* Write to TIMx CR2 */
  LL_TIM_WriteReg(TIMx, CR2, tmpcr2);
 800406e:	687b      	ldr	r3, [r7, #4]
 8004070:	693a      	ldr	r2, [r7, #16]
 8004072:	605a      	str	r2, [r3, #4]

  /* Write to TIMx CCMR2 */
  LL_TIM_WriteReg(TIMx, CCMR2, tmpccmr2);
 8004074:	687b      	ldr	r3, [r7, #4]
 8004076:	68fa      	ldr	r2, [r7, #12]
 8004078:	61da      	str	r2, [r3, #28]

  /* Set the Capture Compare Register value */
  LL_TIM_OC_SetCompareCH3(TIMx, TIM_OCInitStruct->CompareValue);
 800407a:	683b      	ldr	r3, [r7, #0]
 800407c:	68db      	ldr	r3, [r3, #12]
 800407e:	4619      	mov	r1, r3
 8004080:	6878      	ldr	r0, [r7, #4]
 8004082:	f7ff fd2f 	bl	8003ae4 <LL_TIM_OC_SetCompareCH3>

  /* Write to TIMx CCER */
  LL_TIM_WriteReg(TIMx, CCER, tmpccer);
 8004086:	687b      	ldr	r3, [r7, #4]
 8004088:	697a      	ldr	r2, [r7, #20]
 800408a:	621a      	str	r2, [r3, #32]

  return SUCCESS;
 800408c:	2300      	movs	r3, #0
}
 800408e:	4618      	mov	r0, r3
 8004090:	3718      	adds	r7, #24
 8004092:	46bd      	mov	sp, r7
 8004094:	bd80      	pop	{r7, pc}
 8004096:	bf00      	nop
 8004098:	40012c00 	.word	0x40012c00
 800409c:	40013400 	.word	0x40013400
 80040a0:	40014000 	.word	0x40014000
 80040a4:	40014400 	.word	0x40014400
 80040a8:	40014800 	.word	0x40014800
 80040ac:	40015000 	.word	0x40015000

080040b0 <OC4Config>:
  * @retval An ErrorStatus enumeration value:
  *          - SUCCESS: TIMx registers are de-initialized
  *          - ERROR: not applicable
  */
static ErrorStatus OC4Config(TIM_TypeDef *TIMx, LL_TIM_OC_InitTypeDef *TIM_OCInitStruct)
{
 80040b0:	b580      	push	{r7, lr}
 80040b2:	b086      	sub	sp, #24
 80040b4:	af00      	add	r7, sp, #0
 80040b6:	6078      	str	r0, [r7, #4]
 80040b8:	6039      	str	r1, [r7, #0]
  assert_param(IS_LL_TIM_OCPOLARITY(TIM_OCInitStruct->OCPolarity));
  assert_param(IS_LL_TIM_OCPOLARITY(TIM_OCInitStruct->OCNPolarity));
  assert_param(IS_LL_TIM_OCSTATE(TIM_OCInitStruct->OCNState));

  /* Disable the Channel 4: Reset the CC4E Bit */
  CLEAR_BIT(TIMx->CCER, TIM_CCER_CC4E);
 80040ba:	687b      	ldr	r3, [r7, #4]
 80040bc:	6a1b      	ldr	r3, [r3, #32]
 80040be:	f423 5280 	bic.w	r2, r3, #4096	; 0x1000
 80040c2:	687b      	ldr	r3, [r7, #4]
 80040c4:	621a      	str	r2, [r3, #32]

  /* Get the TIMx CCER register value */
  tmpccer = LL_TIM_ReadReg(TIMx, CCER);
 80040c6:	687b      	ldr	r3, [r7, #4]
 80040c8:	6a1b      	ldr	r3, [r3, #32]
 80040ca:	617b      	str	r3, [r7, #20]

  /* Get the TIMx CR2 register value */
  tmpcr2 =  LL_TIM_ReadReg(TIMx, CR2);
 80040cc:	687b      	ldr	r3, [r7, #4]
 80040ce:	685b      	ldr	r3, [r3, #4]
 80040d0:	613b      	str	r3, [r7, #16]

  /* Get the TIMx CCMR2 register value */
  tmpccmr2 = LL_TIM_ReadReg(TIMx, CCMR2);
 80040d2:	687b      	ldr	r3, [r7, #4]
 80040d4:	69db      	ldr	r3, [r3, #28]
 80040d6:	60fb      	str	r3, [r7, #12]

  /* Reset Capture/Compare selection Bits */
  CLEAR_BIT(tmpccmr2, TIM_CCMR2_CC4S);
 80040d8:	68fb      	ldr	r3, [r7, #12]
 80040da:	f423 7340 	bic.w	r3, r3, #768	; 0x300
 80040de:	60fb      	str	r3, [r7, #12]

  /* Select the Output Compare Mode */
  MODIFY_REG(tmpccmr2, TIM_CCMR2_OC4M, TIM_OCInitStruct->OCMode << 8U);
 80040e0:	68fb      	ldr	r3, [r7, #12]
 80040e2:	f023 7380 	bic.w	r3, r3, #16777216	; 0x1000000
 80040e6:	f423 43e0 	bic.w	r3, r3, #28672	; 0x7000
 80040ea:	683a      	ldr	r2, [r7, #0]
 80040ec:	6812      	ldr	r2, [r2, #0]
 80040ee:	0212      	lsls	r2, r2, #8
 80040f0:	4313      	orrs	r3, r2
 80040f2:	60fb      	str	r3, [r7, #12]

  /* Set the Output Compare Polarity */
  MODIFY_REG(tmpccer, TIM_CCER_CC4P, TIM_OCInitStruct->OCPolarity << 12U);
 80040f4:	697b      	ldr	r3, [r7, #20]
 80040f6:	f423 5200 	bic.w	r2, r3, #8192	; 0x2000
 80040fa:	683b      	ldr	r3, [r7, #0]
 80040fc:	691b      	ldr	r3, [r3, #16]
 80040fe:	031b      	lsls	r3, r3, #12
 8004100:	4313      	orrs	r3, r2
 8004102:	617b      	str	r3, [r7, #20]

  /* Set the Output State */
  MODIFY_REG(tmpccer, TIM_CCER_CC4E, TIM_OCInitStruct->OCState << 12U);
 8004104:	697b      	ldr	r3, [r7, #20]
 8004106:	f423 5280 	bic.w	r2, r3, #4096	; 0x1000
 800410a:	683b      	ldr	r3, [r7, #0]
 800410c:	685b      	ldr	r3, [r3, #4]
 800410e:	031b      	lsls	r3, r3, #12
 8004110:	4313      	orrs	r3, r2
 8004112:	617b      	str	r3, [r7, #20]

  if (IS_TIM_BREAK_INSTANCE(TIMx))
 8004114:	687b      	ldr	r3, [r7, #4]
 8004116:	4a25      	ldr	r2, [pc, #148]	; (80041ac <OC4Config+0xfc>)
 8004118:	4293      	cmp	r3, r2
 800411a:	d013      	beq.n	8004144 <OC4Config+0x94>
 800411c:	687b      	ldr	r3, [r7, #4]
 800411e:	4a24      	ldr	r2, [pc, #144]	; (80041b0 <OC4Config+0x100>)
 8004120:	4293      	cmp	r3, r2
 8004122:	d00f      	beq.n	8004144 <OC4Config+0x94>
 8004124:	687b      	ldr	r3, [r7, #4]
 8004126:	4a23      	ldr	r2, [pc, #140]	; (80041b4 <OC4Config+0x104>)
 8004128:	4293      	cmp	r3, r2
 800412a:	d00b      	beq.n	8004144 <OC4Config+0x94>
 800412c:	687b      	ldr	r3, [r7, #4]
 800412e:	4a22      	ldr	r2, [pc, #136]	; (80041b8 <OC4Config+0x108>)
 8004130:	4293      	cmp	r3, r2
 8004132:	d007      	beq.n	8004144 <OC4Config+0x94>
 8004134:	687b      	ldr	r3, [r7, #4]
 8004136:	4a21      	ldr	r2, [pc, #132]	; (80041bc <OC4Config+0x10c>)
 8004138:	4293      	cmp	r3, r2
 800413a:	d003      	beq.n	8004144 <OC4Config+0x94>
 800413c:	687b      	ldr	r3, [r7, #4]
 800413e:	4a20      	ldr	r2, [pc, #128]	; (80041c0 <OC4Config+0x110>)
 8004140:	4293      	cmp	r3, r2
 8004142:	d11f      	bne.n	8004184 <OC4Config+0xd4>
  {
    assert_param(IS_LL_TIM_OCIDLESTATE(TIM_OCInitStruct->OCNIdleState));
    assert_param(IS_LL_TIM_OCIDLESTATE(TIM_OCInitStruct->OCIdleState));

    /* Set the complementary output Polarity */
    MODIFY_REG(tmpccer, TIM_CCER_CC4NP, TIM_OCInitStruct->OCNPolarity << 14U);
 8004144:	697b      	ldr	r3, [r7, #20]
 8004146:	f423 4200 	bic.w	r2, r3, #32768	; 0x8000
 800414a:	683b      	ldr	r3, [r7, #0]
 800414c:	695b      	ldr	r3, [r3, #20]
 800414e:	039b      	lsls	r3, r3, #14
 8004150:	4313      	orrs	r3, r2
 8004152:	617b      	str	r3, [r7, #20]

    /* Set the complementary output State */
    MODIFY_REG(tmpccer, TIM_CCER_CC4NE, TIM_OCInitStruct->OCNState << 14U);
 8004154:	697b      	ldr	r3, [r7, #20]
 8004156:	f423 4280 	bic.w	r2, r3, #16384	; 0x4000
 800415a:	683b      	ldr	r3, [r7, #0]
 800415c:	689b      	ldr	r3, [r3, #8]
 800415e:	039b      	lsls	r3, r3, #14
 8004160:	4313      	orrs	r3, r2
 8004162:	617b      	str	r3, [r7, #20]

    /* Set the Output Idle state */
    MODIFY_REG(tmpcr2, TIM_CR2_OIS4, TIM_OCInitStruct->OCIdleState << 6U);
 8004164:	693b      	ldr	r3, [r7, #16]
 8004166:	f423 4280 	bic.w	r2, r3, #16384	; 0x4000
 800416a:	683b      	ldr	r3, [r7, #0]
 800416c:	699b      	ldr	r3, [r3, #24]
 800416e:	019b      	lsls	r3, r3, #6
 8004170:	4313      	orrs	r3, r2
 8004172:	613b      	str	r3, [r7, #16]

    /* Set the complementary output Idle state */
    MODIFY_REG(tmpcr2, TIM_CR2_OIS4N, TIM_OCInitStruct->OCNIdleState << 7U);
 8004174:	693b      	ldr	r3, [r7, #16]
 8004176:	f423 4200 	bic.w	r2, r3, #32768	; 0x8000
 800417a:	683b      	ldr	r3, [r7, #0]
 800417c:	69db      	ldr	r3, [r3, #28]
 800417e:	01db      	lsls	r3, r3, #7
 8004180:	4313      	orrs	r3, r2
 8004182:	613b      	str	r3, [r7, #16]
  }

  /* Write to TIMx CR2 */
  LL_TIM_WriteReg(TIMx, CR2, tmpcr2);
 8004184:	687b      	ldr	r3, [r7, #4]
 8004186:	693a      	ldr	r2, [r7, #16]
 8004188:	605a      	str	r2, [r3, #4]

  /* Write to TIMx CCMR2 */
  LL_TIM_WriteReg(TIMx, CCMR2, tmpccmr2);
 800418a:	687b      	ldr	r3, [r7, #4]
 800418c:	68fa      	ldr	r2, [r7, #12]
 800418e:	61da      	str	r2, [r3, #28]

  /* Set the Capture Compare Register value */
  LL_TIM_OC_SetCompareCH4(TIMx, TIM_OCInitStruct->CompareValue);
 8004190:	683b      	ldr	r3, [r7, #0]
 8004192:	68db      	ldr	r3, [r3, #12]
 8004194:	4619      	mov	r1, r3
 8004196:	6878      	ldr	r0, [r7, #4]
 8004198:	f7ff fcb2 	bl	8003b00 <LL_TIM_OC_SetCompareCH4>

  /* Write to TIMx CCER */
  LL_TIM_WriteReg(TIMx, CCER, tmpccer);
 800419c:	687b      	ldr	r3, [r7, #4]
 800419e:	697a      	ldr	r2, [r7, #20]
 80041a0:	621a      	str	r2, [r3, #32]

  return SUCCESS;
 80041a2:	2300      	movs	r3, #0
}
 80041a4:	4618      	mov	r0, r3
 80041a6:	3718      	adds	r7, #24
 80041a8:	46bd      	mov	sp, r7
 80041aa:	bd80      	pop	{r7, pc}
 80041ac:	40012c00 	.word	0x40012c00
 80041b0:	40013400 	.word	0x40013400
 80041b4:	40014000 	.word	0x40014000
 80041b8:	40014400 	.word	0x40014400
 80041bc:	40014800 	.word	0x40014800
 80041c0:	40015000 	.word	0x40015000

080041c4 <OC5Config>:
  * @retval An ErrorStatus enumeration value:
  *          - SUCCESS: TIMx registers are de-initialized
  *          - ERROR: not applicable
  */
static ErrorStatus OC5Config(TIM_TypeDef *TIMx, LL_TIM_OC_InitTypeDef *TIM_OCInitStruct)
{
 80041c4:	b580      	push	{r7, lr}
 80041c6:	b084      	sub	sp, #16
 80041c8:	af00      	add	r7, sp, #0
 80041ca:	6078      	str	r0, [r7, #4]
 80041cc:	6039      	str	r1, [r7, #0]
  assert_param(IS_LL_TIM_OCPOLARITY(TIM_OCInitStruct->OCPolarity));
  assert_param(IS_LL_TIM_OCPOLARITY(TIM_OCInitStruct->OCNPolarity));
  assert_param(IS_LL_TIM_OCSTATE(TIM_OCInitStruct->OCNState));

  /* Disable the Channel 5: Reset the CC5E Bit */
  CLEAR_BIT(TIMx->CCER, TIM_CCER_CC5E);
 80041ce:	687b      	ldr	r3, [r7, #4]
 80041d0:	6a1b      	ldr	r3, [r3, #32]
 80041d2:	f423 3280 	bic.w	r2, r3, #65536	; 0x10000
 80041d6:	687b      	ldr	r3, [r7, #4]
 80041d8:	621a      	str	r2, [r3, #32]

  /* Get the TIMx CCER register value */
  tmpccer = LL_TIM_ReadReg(TIMx, CCER);
 80041da:	687b      	ldr	r3, [r7, #4]
 80041dc:	6a1b      	ldr	r3, [r3, #32]
 80041de:	60fb      	str	r3, [r7, #12]

  /* Get the TIMx CCMR3 register value */
  tmpccmr3 = LL_TIM_ReadReg(TIMx, CCMR3);
 80041e0:	687b      	ldr	r3, [r7, #4]
 80041e2:	6d1b      	ldr	r3, [r3, #80]	; 0x50
 80041e4:	60bb      	str	r3, [r7, #8]

  /* Select the Output Compare Mode */
  MODIFY_REG(tmpccmr3, TIM_CCMR3_OC5M, TIM_OCInitStruct->OCMode);
 80041e6:	68bb      	ldr	r3, [r7, #8]
 80041e8:	f423 3380 	bic.w	r3, r3, #65536	; 0x10000
 80041ec:	f023 0370 	bic.w	r3, r3, #112	; 0x70
 80041f0:	683a      	ldr	r2, [r7, #0]
 80041f2:	6812      	ldr	r2, [r2, #0]
 80041f4:	4313      	orrs	r3, r2
 80041f6:	60bb      	str	r3, [r7, #8]

  /* Set the Output Compare Polarity */
  MODIFY_REG(tmpccer, TIM_CCER_CC5P, TIM_OCInitStruct->OCPolarity << 16U);
 80041f8:	68fb      	ldr	r3, [r7, #12]
 80041fa:	f423 3200 	bic.w	r2, r3, #131072	; 0x20000
 80041fe:	683b      	ldr	r3, [r7, #0]
 8004200:	691b      	ldr	r3, [r3, #16]
 8004202:	041b      	lsls	r3, r3, #16
 8004204:	4313      	orrs	r3, r2
 8004206:	60fb      	str	r3, [r7, #12]

  /* Set the Output State */
  MODIFY_REG(tmpccer, TIM_CCER_CC5E, TIM_OCInitStruct->OCState << 16U);
 8004208:	68fb      	ldr	r3, [r7, #12]
 800420a:	f423 3280 	bic.w	r2, r3, #65536	; 0x10000
 800420e:	683b      	ldr	r3, [r7, #0]
 8004210:	685b      	ldr	r3, [r3, #4]
 8004212:	041b      	lsls	r3, r3, #16
 8004214:	4313      	orrs	r3, r2
 8004216:	60fb      	str	r3, [r7, #12]

  if (IS_TIM_BREAK_INSTANCE(TIMx))
 8004218:	687b      	ldr	r3, [r7, #4]
 800421a:	4a19      	ldr	r2, [pc, #100]	; (8004280 <OC5Config+0xbc>)
 800421c:	4293      	cmp	r3, r2
 800421e:	d013      	beq.n	8004248 <OC5Config+0x84>
 8004220:	687b      	ldr	r3, [r7, #4]
 8004222:	4a18      	ldr	r2, [pc, #96]	; (8004284 <OC5Config+0xc0>)
 8004224:	4293      	cmp	r3, r2
 8004226:	d00f      	beq.n	8004248 <OC5Config+0x84>
 8004228:	687b      	ldr	r3, [r7, #4]
 800422a:	4a17      	ldr	r2, [pc, #92]	; (8004288 <OC5Config+0xc4>)
 800422c:	4293      	cmp	r3, r2
 800422e:	d00b      	beq.n	8004248 <OC5Config+0x84>
 8004230:	687b      	ldr	r3, [r7, #4]
 8004232:	4a16      	ldr	r2, [pc, #88]	; (800428c <OC5Config+0xc8>)
 8004234:	4293      	cmp	r3, r2
 8004236:	d007      	beq.n	8004248 <OC5Config+0x84>
 8004238:	687b      	ldr	r3, [r7, #4]
 800423a:	4a15      	ldr	r2, [pc, #84]	; (8004290 <OC5Config+0xcc>)
 800423c:	4293      	cmp	r3, r2
 800423e:	d003      	beq.n	8004248 <OC5Config+0x84>
 8004240:	687b      	ldr	r3, [r7, #4]
 8004242:	4a14      	ldr	r2, [pc, #80]	; (8004294 <OC5Config+0xd0>)
 8004244:	4293      	cmp	r3, r2
 8004246:	d109      	bne.n	800425c <OC5Config+0x98>
  {
    assert_param(IS_LL_TIM_OCIDLESTATE(TIM_OCInitStruct->OCNIdleState));
    assert_param(IS_LL_TIM_OCIDLESTATE(TIM_OCInitStruct->OCIdleState));

    /* Set the Output Idle state */
    MODIFY_REG(TIMx->CR2, TIM_CR2_OIS5, TIM_OCInitStruct->OCIdleState << 8U);
 8004248:	687b      	ldr	r3, [r7, #4]
 800424a:	685b      	ldr	r3, [r3, #4]
 800424c:	f423 3280 	bic.w	r2, r3, #65536	; 0x10000
 8004250:	683b      	ldr	r3, [r7, #0]
 8004252:	699b      	ldr	r3, [r3, #24]
 8004254:	021b      	lsls	r3, r3, #8
 8004256:	431a      	orrs	r2, r3
 8004258:	687b      	ldr	r3, [r7, #4]
 800425a:	605a      	str	r2, [r3, #4]

  }

  /* Write to TIMx CCMR3 */
  LL_TIM_WriteReg(TIMx, CCMR3, tmpccmr3);
 800425c:	687b      	ldr	r3, [r7, #4]
 800425e:	68ba      	ldr	r2, [r7, #8]
 8004260:	651a      	str	r2, [r3, #80]	; 0x50

  /* Set the Capture Compare Register value */
  LL_TIM_OC_SetCompareCH5(TIMx, TIM_OCInitStruct->CompareValue);
 8004262:	683b      	ldr	r3, [r7, #0]
 8004264:	68db      	ldr	r3, [r3, #12]
 8004266:	4619      	mov	r1, r3
 8004268:	6878      	ldr	r0, [r7, #4]
 800426a:	f7ff fc57 	bl	8003b1c <LL_TIM_OC_SetCompareCH5>

  /* Write to TIMx CCER */
  LL_TIM_WriteReg(TIMx, CCER, tmpccer);
 800426e:	687b      	ldr	r3, [r7, #4]
 8004270:	68fa      	ldr	r2, [r7, #12]
 8004272:	621a      	str	r2, [r3, #32]

  return SUCCESS;
 8004274:	2300      	movs	r3, #0
}
 8004276:	4618      	mov	r0, r3
 8004278:	3710      	adds	r7, #16
 800427a:	46bd      	mov	sp, r7
 800427c:	bd80      	pop	{r7, pc}
 800427e:	bf00      	nop
 8004280:	40012c00 	.word	0x40012c00
 8004284:	40013400 	.word	0x40013400
 8004288:	40014000 	.word	0x40014000
 800428c:	40014400 	.word	0x40014400
 8004290:	40014800 	.word	0x40014800
 8004294:	40015000 	.word	0x40015000

08004298 <OC6Config>:
  * @retval An ErrorStatus enumeration value:
  *          - SUCCESS: TIMx registers are de-initialized
  *          - ERROR: not applicable
  */
static ErrorStatus OC6Config(TIM_TypeDef *TIMx, LL_TIM_OC_InitTypeDef *TIM_OCInitStruct)
{
 8004298:	b580      	push	{r7, lr}
 800429a:	b084      	sub	sp, #16
 800429c:	af00      	add	r7, sp, #0
 800429e:	6078      	str	r0, [r7, #4]
 80042a0:	6039      	str	r1, [r7, #0]
  assert_param(IS_LL_TIM_OCPOLARITY(TIM_OCInitStruct->OCPolarity));
  assert_param(IS_LL_TIM_OCPOLARITY(TIM_OCInitStruct->OCNPolarity));
  assert_param(IS_LL_TIM_OCSTATE(TIM_OCInitStruct->OCNState));

  /* Disable the Channel 5: Reset the CC6E Bit */
  CLEAR_BIT(TIMx->CCER, TIM_CCER_CC6E);
 80042a2:	687b      	ldr	r3, [r7, #4]
 80042a4:	6a1b      	ldr	r3, [r3, #32]
 80042a6:	f423 1280 	bic.w	r2, r3, #1048576	; 0x100000
 80042aa:	687b      	ldr	r3, [r7, #4]
 80042ac:	621a      	str	r2, [r3, #32]

  /* Get the TIMx CCER register value */
  tmpccer = LL_TIM_ReadReg(TIMx, CCER);
 80042ae:	687b      	ldr	r3, [r7, #4]
 80042b0:	6a1b      	ldr	r3, [r3, #32]
 80042b2:	60fb      	str	r3, [r7, #12]

  /* Get the TIMx CCMR3 register value */
  tmpccmr3 = LL_TIM_ReadReg(TIMx, CCMR3);
 80042b4:	687b      	ldr	r3, [r7, #4]
 80042b6:	6d1b      	ldr	r3, [r3, #80]	; 0x50
 80042b8:	60bb      	str	r3, [r7, #8]

  /* Select the Output Compare Mode */
  MODIFY_REG(tmpccmr3, TIM_CCMR3_OC6M, TIM_OCInitStruct->OCMode << 8U);
 80042ba:	68bb      	ldr	r3, [r7, #8]
 80042bc:	f023 7380 	bic.w	r3, r3, #16777216	; 0x1000000
 80042c0:	f423 43e0 	bic.w	r3, r3, #28672	; 0x7000
 80042c4:	683a      	ldr	r2, [r7, #0]
 80042c6:	6812      	ldr	r2, [r2, #0]
 80042c8:	0212      	lsls	r2, r2, #8
 80042ca:	4313      	orrs	r3, r2
 80042cc:	60bb      	str	r3, [r7, #8]

  /* Set the Output Compare Polarity */
  MODIFY_REG(tmpccer, TIM_CCER_CC6P, TIM_OCInitStruct->OCPolarity << 20U);
 80042ce:	68fb      	ldr	r3, [r7, #12]
 80042d0:	f423 1200 	bic.w	r2, r3, #2097152	; 0x200000
 80042d4:	683b      	ldr	r3, [r7, #0]
 80042d6:	691b      	ldr	r3, [r3, #16]
 80042d8:	051b      	lsls	r3, r3, #20
 80042da:	4313      	orrs	r3, r2
 80042dc:	60fb      	str	r3, [r7, #12]

  /* Set the Output State */
  MODIFY_REG(tmpccer, TIM_CCER_CC6E, TIM_OCInitStruct->OCState << 20U);
 80042de:	68fb      	ldr	r3, [r7, #12]
 80042e0:	f423 1280 	bic.w	r2, r3, #1048576	; 0x100000
 80042e4:	683b      	ldr	r3, [r7, #0]
 80042e6:	685b      	ldr	r3, [r3, #4]
 80042e8:	051b      	lsls	r3, r3, #20
 80042ea:	4313      	orrs	r3, r2
 80042ec:	60fb      	str	r3, [r7, #12]

  if (IS_TIM_BREAK_INSTANCE(TIMx))
 80042ee:	687b      	ldr	r3, [r7, #4]
 80042f0:	4a18      	ldr	r2, [pc, #96]	; (8004354 <OC6Config+0xbc>)
 80042f2:	4293      	cmp	r3, r2
 80042f4:	d013      	beq.n	800431e <OC6Config+0x86>
 80042f6:	687b      	ldr	r3, [r7, #4]
 80042f8:	4a17      	ldr	r2, [pc, #92]	; (8004358 <OC6Config+0xc0>)
 80042fa:	4293      	cmp	r3, r2
 80042fc:	d00f      	beq.n	800431e <OC6Config+0x86>
 80042fe:	687b      	ldr	r3, [r7, #4]
 8004300:	4a16      	ldr	r2, [pc, #88]	; (800435c <OC6Config+0xc4>)
 8004302:	4293      	cmp	r3, r2
 8004304:	d00b      	beq.n	800431e <OC6Config+0x86>
 8004306:	687b      	ldr	r3, [r7, #4]
 8004308:	4a15      	ldr	r2, [pc, #84]	; (8004360 <OC6Config+0xc8>)
 800430a:	4293      	cmp	r3, r2
 800430c:	d007      	beq.n	800431e <OC6Config+0x86>
 800430e:	687b      	ldr	r3, [r7, #4]
 8004310:	4a14      	ldr	r2, [pc, #80]	; (8004364 <OC6Config+0xcc>)
 8004312:	4293      	cmp	r3, r2
 8004314:	d003      	beq.n	800431e <OC6Config+0x86>
 8004316:	687b      	ldr	r3, [r7, #4]
 8004318:	4a13      	ldr	r2, [pc, #76]	; (8004368 <OC6Config+0xd0>)
 800431a:	4293      	cmp	r3, r2
 800431c:	d109      	bne.n	8004332 <OC6Config+0x9a>
  {
    assert_param(IS_LL_TIM_OCIDLESTATE(TIM_OCInitStruct->OCNIdleState));
    assert_param(IS_LL_TIM_OCIDLESTATE(TIM_OCInitStruct->OCIdleState));

    /* Set the Output Idle state */
    MODIFY_REG(TIMx->CR2, TIM_CR2_OIS6, TIM_OCInitStruct->OCIdleState << 10U);
 800431e:	687b      	ldr	r3, [r7, #4]
 8004320:	685b      	ldr	r3, [r3, #4]
 8004322:	f423 2280 	bic.w	r2, r3, #262144	; 0x40000
 8004326:	683b      	ldr	r3, [r7, #0]
 8004328:	699b      	ldr	r3, [r3, #24]
 800432a:	029b      	lsls	r3, r3, #10
 800432c:	431a      	orrs	r2, r3
 800432e:	687b      	ldr	r3, [r7, #4]
 8004330:	605a      	str	r2, [r3, #4]
  }

  /* Write to TIMx CCMR3 */
  LL_TIM_WriteReg(TIMx, CCMR3, tmpccmr3);
 8004332:	687b      	ldr	r3, [r7, #4]
 8004334:	68ba      	ldr	r2, [r7, #8]
 8004336:	651a      	str	r2, [r3, #80]	; 0x50

  /* Set the Capture Compare Register value */
  LL_TIM_OC_SetCompareCH6(TIMx, TIM_OCInitStruct->CompareValue);
 8004338:	683b      	ldr	r3, [r7, #0]
 800433a:	68db      	ldr	r3, [r3, #12]
 800433c:	4619      	mov	r1, r3
 800433e:	6878      	ldr	r0, [r7, #4]
 8004340:	f7ff fbfc 	bl	8003b3c <LL_TIM_OC_SetCompareCH6>

  /* Write to TIMx CCER */
  LL_TIM_WriteReg(TIMx, CCER, tmpccer);
 8004344:	687b      	ldr	r3, [r7, #4]
 8004346:	68fa      	ldr	r2, [r7, #12]
 8004348:	621a      	str	r2, [r3, #32]

  return SUCCESS;
 800434a:	2300      	movs	r3, #0
}
 800434c:	4618      	mov	r0, r3
 800434e:	3710      	adds	r7, #16
 8004350:	46bd      	mov	sp, r7
 8004352:	bd80      	pop	{r7, pc}
 8004354:	40012c00 	.word	0x40012c00
 8004358:	40013400 	.word	0x40013400
 800435c:	40014000 	.word	0x40014000
 8004360:	40014400 	.word	0x40014400
 8004364:	40014800 	.word	0x40014800
 8004368:	40015000 	.word	0x40015000

0800436c <LL_USART_IsEnabled>:
  * @rmtoll CR1          UE            LL_USART_IsEnabled
  * @param  USARTx USART Instance
  * @retval State of bit (1 or 0).
  */
__STATIC_INLINE uint32_t LL_USART_IsEnabled(USART_TypeDef *USARTx)
{
 800436c:	b480      	push	{r7}
 800436e:	b083      	sub	sp, #12
 8004370:	af00      	add	r7, sp, #0
 8004372:	6078      	str	r0, [r7, #4]
  return ((READ_BIT(USARTx->CR1, USART_CR1_UE) == (USART_CR1_UE)) ? 1UL : 0UL);
 8004374:	687b      	ldr	r3, [r7, #4]
 8004376:	681b      	ldr	r3, [r3, #0]
 8004378:	f003 0301 	and.w	r3, r3, #1
 800437c:	2b01      	cmp	r3, #1
 800437e:	d101      	bne.n	8004384 <LL_USART_IsEnabled+0x18>
 8004380:	2301      	movs	r3, #1
 8004382:	e000      	b.n	8004386 <LL_USART_IsEnabled+0x1a>
 8004384:	2300      	movs	r3, #0
}
 8004386:	4618      	mov	r0, r3
 8004388:	370c      	adds	r7, #12
 800438a:	46bd      	mov	sp, r7
 800438c:	f85d 7b04 	ldr.w	r7, [sp], #4
 8004390:	4770      	bx	lr

08004392 <LL_USART_SetPrescaler>:
  *         @arg @ref LL_USART_PRESCALER_DIV128
  *         @arg @ref LL_USART_PRESCALER_DIV256
  * @retval None
  */
__STATIC_INLINE void LL_USART_SetPrescaler(USART_TypeDef *USARTx, uint32_t PrescalerValue)
{
 8004392:	b480      	push	{r7}
 8004394:	b083      	sub	sp, #12
 8004396:	af00      	add	r7, sp, #0
 8004398:	6078      	str	r0, [r7, #4]
 800439a:	6039      	str	r1, [r7, #0]
  MODIFY_REG(USARTx->PRESC, USART_PRESC_PRESCALER, (uint16_t)PrescalerValue);
 800439c:	687b      	ldr	r3, [r7, #4]
 800439e:	6adb      	ldr	r3, [r3, #44]	; 0x2c
 80043a0:	f023 030f 	bic.w	r3, r3, #15
 80043a4:	683a      	ldr	r2, [r7, #0]
 80043a6:	b292      	uxth	r2, r2
 80043a8:	431a      	orrs	r2, r3
 80043aa:	687b      	ldr	r3, [r7, #4]
 80043ac:	62da      	str	r2, [r3, #44]	; 0x2c
}
 80043ae:	bf00      	nop
 80043b0:	370c      	adds	r7, #12
 80043b2:	46bd      	mov	sp, r7
 80043b4:	f85d 7b04 	ldr.w	r7, [sp], #4
 80043b8:	4770      	bx	lr

080043ba <LL_USART_SetStopBitsLength>:
  *         @arg @ref LL_USART_STOPBITS_1_5
  *         @arg @ref LL_USART_STOPBITS_2
  * @retval None
  */
__STATIC_INLINE void LL_USART_SetStopBitsLength(USART_TypeDef *USARTx, uint32_t StopBits)
{
 80043ba:	b480      	push	{r7}
 80043bc:	b083      	sub	sp, #12
 80043be:	af00      	add	r7, sp, #0
 80043c0:	6078      	str	r0, [r7, #4]
 80043c2:	6039      	str	r1, [r7, #0]
  MODIFY_REG(USARTx->CR2, USART_CR2_STOP, StopBits);
 80043c4:	687b      	ldr	r3, [r7, #4]
 80043c6:	685b      	ldr	r3, [r3, #4]
 80043c8:	f423 5240 	bic.w	r2, r3, #12288	; 0x3000
 80043cc:	683b      	ldr	r3, [r7, #0]
 80043ce:	431a      	orrs	r2, r3
 80043d0:	687b      	ldr	r3, [r7, #4]
 80043d2:	605a      	str	r2, [r3, #4]
}
 80043d4:	bf00      	nop
 80043d6:	370c      	adds	r7, #12
 80043d8:	46bd      	mov	sp, r7
 80043da:	f85d 7b04 	ldr.w	r7, [sp], #4
 80043de:	4770      	bx	lr

080043e0 <LL_USART_SetHWFlowCtrl>:
  *         @arg @ref LL_USART_HWCONTROL_CTS
  *         @arg @ref LL_USART_HWCONTROL_RTS_CTS
  * @retval None
  */
__STATIC_INLINE void LL_USART_SetHWFlowCtrl(USART_TypeDef *USARTx, uint32_t HardwareFlowControl)
{
 80043e0:	b480      	push	{r7}
 80043e2:	b083      	sub	sp, #12
 80043e4:	af00      	add	r7, sp, #0
 80043e6:	6078      	str	r0, [r7, #4]
 80043e8:	6039      	str	r1, [r7, #0]
  MODIFY_REG(USARTx->CR3, USART_CR3_RTSE | USART_CR3_CTSE, HardwareFlowControl);
 80043ea:	687b      	ldr	r3, [r7, #4]
 80043ec:	689b      	ldr	r3, [r3, #8]
 80043ee:	f423 7240 	bic.w	r2, r3, #768	; 0x300
 80043f2:	683b      	ldr	r3, [r7, #0]
 80043f4:	431a      	orrs	r2, r3
 80043f6:	687b      	ldr	r3, [r7, #4]
 80043f8:	609a      	str	r2, [r3, #8]
}
 80043fa:	bf00      	nop
 80043fc:	370c      	adds	r7, #12
 80043fe:	46bd      	mov	sp, r7
 8004400:	f85d 7b04 	ldr.w	r7, [sp], #4
 8004404:	4770      	bx	lr
	...

08004408 <LL_USART_SetBaudRate>:
  * @retval None
  */
__STATIC_INLINE void LL_USART_SetBaudRate(USART_TypeDef *USARTx, uint32_t PeriphClk, uint32_t PrescalerValue,
                                          uint32_t OverSampling,
                                          uint32_t BaudRate)
{
 8004408:	b480      	push	{r7}
 800440a:	b087      	sub	sp, #28
 800440c:	af00      	add	r7, sp, #0
 800440e:	60f8      	str	r0, [r7, #12]
 8004410:	60b9      	str	r1, [r7, #8]
 8004412:	607a      	str	r2, [r7, #4]
 8004414:	603b      	str	r3, [r7, #0]
  uint32_t usartdiv;
  uint32_t brrtemp;

  if (PrescalerValue > LL_USART_PRESCALER_DIV256)
 8004416:	687b      	ldr	r3, [r7, #4]
 8004418:	2b0b      	cmp	r3, #11
 800441a:	d83c      	bhi.n	8004496 <LL_USART_SetBaudRate+0x8e>
  {
    /* Do not overstep the size of USART_PRESCALER_TAB */
  }
  else if (BaudRate == 0U)
 800441c:	6a3b      	ldr	r3, [r7, #32]
 800441e:	2b00      	cmp	r3, #0
 8004420:	d039      	beq.n	8004496 <LL_USART_SetBaudRate+0x8e>
  {
    /* Can Not divide per 0 */
  }
  else if (OverSampling == LL_USART_OVERSAMPLING_8)
 8004422:	683b      	ldr	r3, [r7, #0]
 8004424:	f5b3 4f00 	cmp.w	r3, #32768	; 0x8000
 8004428:	d122      	bne.n	8004470 <LL_USART_SetBaudRate+0x68>
  {
    usartdiv = (uint16_t)(__LL_USART_DIV_SAMPLING8(PeriphClk, (uint8_t)PrescalerValue, BaudRate));
 800442a:	687b      	ldr	r3, [r7, #4]
 800442c:	b2db      	uxtb	r3, r3
 800442e:	461a      	mov	r2, r3
 8004430:	4b1c      	ldr	r3, [pc, #112]	; (80044a4 <LL_USART_SetBaudRate+0x9c>)
 8004432:	f853 3022 	ldr.w	r3, [r3, r2, lsl #2]
 8004436:	68ba      	ldr	r2, [r7, #8]
 8004438:	fbb2 f3f3 	udiv	r3, r2, r3
 800443c:	005a      	lsls	r2, r3, #1
 800443e:	6a3b      	ldr	r3, [r7, #32]
 8004440:	085b      	lsrs	r3, r3, #1
 8004442:	441a      	add	r2, r3
 8004444:	6a3b      	ldr	r3, [r7, #32]
 8004446:	fbb2 f3f3 	udiv	r3, r2, r3
 800444a:	b29b      	uxth	r3, r3
 800444c:	617b      	str	r3, [r7, #20]
    brrtemp = usartdiv & 0xFFF0U;
 800444e:	697a      	ldr	r2, [r7, #20]
 8004450:	f64f 73f0 	movw	r3, #65520	; 0xfff0
 8004454:	4013      	ands	r3, r2
 8004456:	613b      	str	r3, [r7, #16]
    brrtemp |= (uint16_t)((usartdiv & (uint16_t)0x000FU) >> 1U);
 8004458:	697b      	ldr	r3, [r7, #20]
 800445a:	085b      	lsrs	r3, r3, #1
 800445c:	b29b      	uxth	r3, r3
 800445e:	f003 0307 	and.w	r3, r3, #7
 8004462:	693a      	ldr	r2, [r7, #16]
 8004464:	4313      	orrs	r3, r2
 8004466:	613b      	str	r3, [r7, #16]
    USARTx->BRR = brrtemp;
 8004468:	68fb      	ldr	r3, [r7, #12]
 800446a:	693a      	ldr	r2, [r7, #16]
 800446c:	60da      	str	r2, [r3, #12]
  }
  else
  {
    USARTx->BRR = (uint16_t)(__LL_USART_DIV_SAMPLING16(PeriphClk, (uint8_t)PrescalerValue, BaudRate));
  }
}
 800446e:	e012      	b.n	8004496 <LL_USART_SetBaudRate+0x8e>
    USARTx->BRR = (uint16_t)(__LL_USART_DIV_SAMPLING16(PeriphClk, (uint8_t)PrescalerValue, BaudRate));
 8004470:	687b      	ldr	r3, [r7, #4]
 8004472:	b2db      	uxtb	r3, r3
 8004474:	461a      	mov	r2, r3
 8004476:	4b0b      	ldr	r3, [pc, #44]	; (80044a4 <LL_USART_SetBaudRate+0x9c>)
 8004478:	f853 3022 	ldr.w	r3, [r3, r2, lsl #2]
 800447c:	68ba      	ldr	r2, [r7, #8]
 800447e:	fbb2 f2f3 	udiv	r2, r2, r3
 8004482:	6a3b      	ldr	r3, [r7, #32]
 8004484:	085b      	lsrs	r3, r3, #1
 8004486:	441a      	add	r2, r3
 8004488:	6a3b      	ldr	r3, [r7, #32]
 800448a:	fbb2 f3f3 	udiv	r3, r2, r3
 800448e:	b29b      	uxth	r3, r3
 8004490:	461a      	mov	r2, r3
 8004492:	68fb      	ldr	r3, [r7, #12]
 8004494:	60da      	str	r2, [r3, #12]
}
 8004496:	bf00      	nop
 8004498:	371c      	adds	r7, #28
 800449a:	46bd      	mov	sp, r7
 800449c:	f85d 7b04 	ldr.w	r7, [sp], #4
 80044a0:	4770      	bx	lr
 80044a2:	bf00      	nop
 80044a4:	0800900c 	.word	0x0800900c

080044a8 <LL_USART_Init>:
  * @retval An ErrorStatus enumeration value:
  *          - SUCCESS: USART registers are initialized according to USART_InitStruct content
  *          - ERROR: Problem occurred during USART Registers initialization
  */
ErrorStatus LL_USART_Init(USART_TypeDef *USARTx, LL_USART_InitTypeDef *USART_InitStruct)
{
 80044a8:	b580      	push	{r7, lr}
 80044aa:	b086      	sub	sp, #24
 80044ac:	af02      	add	r7, sp, #8
 80044ae:	6078      	str	r0, [r7, #4]
 80044b0:	6039      	str	r1, [r7, #0]
  ErrorStatus status = ERROR;
 80044b2:	2301      	movs	r3, #1
 80044b4:	73fb      	strb	r3, [r7, #15]
  uint32_t periphclk = LL_RCC_PERIPH_FREQUENCY_NO;
 80044b6:	2300      	movs	r3, #0
 80044b8:	60bb      	str	r3, [r7, #8]
  assert_param(IS_LL_USART_HWCONTROL(USART_InitStruct->HardwareFlowControl));
  assert_param(IS_LL_USART_OVERSAMPLING(USART_InitStruct->OverSampling));

  /* USART needs to be in disabled state, in order to be able to configure some bits in
     CRx registers */
  if (LL_USART_IsEnabled(USARTx) == 0U)
 80044ba:	6878      	ldr	r0, [r7, #4]
 80044bc:	f7ff ff56 	bl	800436c <LL_USART_IsEnabled>
 80044c0:	4603      	mov	r3, r0
 80044c2:	2b00      	cmp	r3, #0
 80044c4:	d165      	bne.n	8004592 <LL_USART_Init+0xea>
     * - DataWidth:          USART_CR1_M bits according to USART_InitStruct->DataWidth value
     * - Parity:             USART_CR1_PCE, USART_CR1_PS bits according to USART_InitStruct->Parity value
     * - TransferDirection:  USART_CR1_TE, USART_CR1_RE bits according to USART_InitStruct->TransferDirection value
     * - Oversampling:       USART_CR1_OVER8 bit according to USART_InitStruct->OverSampling value.
     */
    MODIFY_REG(USARTx->CR1,
 80044c6:	687b      	ldr	r3, [r7, #4]
 80044c8:	681a      	ldr	r2, [r3, #0]
 80044ca:	4b34      	ldr	r3, [pc, #208]	; (800459c <LL_USART_Init+0xf4>)
 80044cc:	4013      	ands	r3, r2
 80044ce:	683a      	ldr	r2, [r7, #0]
 80044d0:	6891      	ldr	r1, [r2, #8]
 80044d2:	683a      	ldr	r2, [r7, #0]
 80044d4:	6912      	ldr	r2, [r2, #16]
 80044d6:	4311      	orrs	r1, r2
 80044d8:	683a      	ldr	r2, [r7, #0]
 80044da:	6952      	ldr	r2, [r2, #20]
 80044dc:	4311      	orrs	r1, r2
 80044de:	683a      	ldr	r2, [r7, #0]
 80044e0:	69d2      	ldr	r2, [r2, #28]
 80044e2:	430a      	orrs	r2, r1
 80044e4:	431a      	orrs	r2, r3
 80044e6:	687b      	ldr	r3, [r7, #4]
 80044e8:	601a      	str	r2, [r3, #0]
    /*---------------------------- USART CR2 Configuration ---------------------
     * Configure USARTx CR2 (Stop bits) with parameters:
     * - Stop Bits:          USART_CR2_STOP bits according to USART_InitStruct->StopBits value.
     * - CLKEN, CPOL, CPHA and LBCL bits are to be configured using LL_USART_ClockInit().
     */
    LL_USART_SetStopBitsLength(USARTx, USART_InitStruct->StopBits);
 80044ea:	683b      	ldr	r3, [r7, #0]
 80044ec:	68db      	ldr	r3, [r3, #12]
 80044ee:	4619      	mov	r1, r3
 80044f0:	6878      	ldr	r0, [r7, #4]
 80044f2:	f7ff ff62 	bl	80043ba <LL_USART_SetStopBitsLength>
    /*---------------------------- USART CR3 Configuration ---------------------
     * Configure USARTx CR3 (Hardware Flow Control) with parameters:
     * - HardwareFlowControl: USART_CR3_RTSE, USART_CR3_CTSE bits according to
     *   USART_InitStruct->HardwareFlowControl value.
     */
    LL_USART_SetHWFlowCtrl(USARTx, USART_InitStruct->HardwareFlowControl);
 80044f6:	683b      	ldr	r3, [r7, #0]
 80044f8:	699b      	ldr	r3, [r3, #24]
 80044fa:	4619      	mov	r1, r3
 80044fc:	6878      	ldr	r0, [r7, #4]
 80044fe:	f7ff ff6f 	bl	80043e0 <LL_USART_SetHWFlowCtrl>

    /*---------------------------- USART BRR Configuration ---------------------
     * Retrieve Clock frequency used for USART Peripheral
     */
    if (USARTx == USART1)
 8004502:	687b      	ldr	r3, [r7, #4]
 8004504:	4a26      	ldr	r2, [pc, #152]	; (80045a0 <LL_USART_Init+0xf8>)
 8004506:	4293      	cmp	r3, r2
 8004508:	d104      	bne.n	8004514 <LL_USART_Init+0x6c>
    {
      periphclk = LL_RCC_GetUSARTClockFreq(LL_RCC_USART1_CLKSOURCE);
 800450a:	2003      	movs	r0, #3
 800450c:	f7ff f81e 	bl	800354c <LL_RCC_GetUSARTClockFreq>
 8004510:	60b8      	str	r0, [r7, #8]
 8004512:	e023      	b.n	800455c <LL_USART_Init+0xb4>
    }
    else if (USARTx == USART2)
 8004514:	687b      	ldr	r3, [r7, #4]
 8004516:	4a23      	ldr	r2, [pc, #140]	; (80045a4 <LL_USART_Init+0xfc>)
 8004518:	4293      	cmp	r3, r2
 800451a:	d104      	bne.n	8004526 <LL_USART_Init+0x7e>
    {
      periphclk = LL_RCC_GetUSARTClockFreq(LL_RCC_USART2_CLKSOURCE);
 800451c:	200c      	movs	r0, #12
 800451e:	f7ff f815 	bl	800354c <LL_RCC_GetUSARTClockFreq>
 8004522:	60b8      	str	r0, [r7, #8]
 8004524:	e01a      	b.n	800455c <LL_USART_Init+0xb4>
    }
    else if (USARTx == USART3)
 8004526:	687b      	ldr	r3, [r7, #4]
 8004528:	4a1f      	ldr	r2, [pc, #124]	; (80045a8 <LL_USART_Init+0x100>)
 800452a:	4293      	cmp	r3, r2
 800452c:	d104      	bne.n	8004538 <LL_USART_Init+0x90>
    {
      periphclk = LL_RCC_GetUSARTClockFreq(LL_RCC_USART3_CLKSOURCE);
 800452e:	2030      	movs	r0, #48	; 0x30
 8004530:	f7ff f80c 	bl	800354c <LL_RCC_GetUSARTClockFreq>
 8004534:	60b8      	str	r0, [r7, #8]
 8004536:	e011      	b.n	800455c <LL_USART_Init+0xb4>
    }
#if defined(UART4)
    else if (USARTx == UART4)
 8004538:	687b      	ldr	r3, [r7, #4]
 800453a:	4a1c      	ldr	r2, [pc, #112]	; (80045ac <LL_USART_Init+0x104>)
 800453c:	4293      	cmp	r3, r2
 800453e:	d104      	bne.n	800454a <LL_USART_Init+0xa2>
    {
      periphclk = LL_RCC_GetUARTClockFreq(LL_RCC_UART4_CLKSOURCE);
 8004540:	20c0      	movs	r0, #192	; 0xc0
 8004542:	f7ff f8c9 	bl	80036d8 <LL_RCC_GetUARTClockFreq>
 8004546:	60b8      	str	r0, [r7, #8]
 8004548:	e008      	b.n	800455c <LL_USART_Init+0xb4>
    }
#endif /* UART4 */
#if defined(UART5)
    else if (USARTx == UART5)
 800454a:	687b      	ldr	r3, [r7, #4]
 800454c:	4a18      	ldr	r2, [pc, #96]	; (80045b0 <LL_USART_Init+0x108>)
 800454e:	4293      	cmp	r3, r2
 8004550:	d104      	bne.n	800455c <LL_USART_Init+0xb4>
    {
      periphclk = LL_RCC_GetUARTClockFreq(LL_RCC_UART5_CLKSOURCE);
 8004552:	f44f 7040 	mov.w	r0, #768	; 0x300
 8004556:	f7ff f8bf 	bl	80036d8 <LL_RCC_GetUARTClockFreq>
 800455a:	60b8      	str	r0, [r7, #8]
    /* Configure the USART Baud Rate :
       - prescaler value is required
       - valid baud rate value (different from 0) is required
       - Peripheral clock as returned by RCC service, should be valid (different from 0).
    */
    if ((periphclk != LL_RCC_PERIPH_FREQUENCY_NO)
 800455c:	68bb      	ldr	r3, [r7, #8]
 800455e:	2b00      	cmp	r3, #0
 8004560:	d011      	beq.n	8004586 <LL_USART_Init+0xde>
        && (USART_InitStruct->BaudRate != 0U))
 8004562:	683b      	ldr	r3, [r7, #0]
 8004564:	685b      	ldr	r3, [r3, #4]
 8004566:	2b00      	cmp	r3, #0
 8004568:	d00d      	beq.n	8004586 <LL_USART_Init+0xde>
    {
      status = SUCCESS;
 800456a:	2300      	movs	r3, #0
 800456c:	73fb      	strb	r3, [r7, #15]
      LL_USART_SetBaudRate(USARTx,
 800456e:	683b      	ldr	r3, [r7, #0]
 8004570:	681a      	ldr	r2, [r3, #0]
 8004572:	683b      	ldr	r3, [r7, #0]
 8004574:	69d9      	ldr	r1, [r3, #28]
 8004576:	683b      	ldr	r3, [r7, #0]
 8004578:	685b      	ldr	r3, [r3, #4]
 800457a:	9300      	str	r3, [sp, #0]
 800457c:	460b      	mov	r3, r1
 800457e:	68b9      	ldr	r1, [r7, #8]
 8004580:	6878      	ldr	r0, [r7, #4]
 8004582:	f7ff ff41 	bl	8004408 <LL_USART_SetBaudRate>

    /*---------------------------- USART PRESC Configuration -----------------------
     * Configure USARTx PRESC (Prescaler) with parameters:
     * - PrescalerValue: USART_PRESC_PRESCALER bits according to USART_InitStruct->PrescalerValue value.
     */
    LL_USART_SetPrescaler(USARTx, USART_InitStruct->PrescalerValue);
 8004586:	683b      	ldr	r3, [r7, #0]
 8004588:	681b      	ldr	r3, [r3, #0]
 800458a:	4619      	mov	r1, r3
 800458c:	6878      	ldr	r0, [r7, #4]
 800458e:	f7ff ff00 	bl	8004392 <LL_USART_SetPrescaler>
  }
  /* Endif (=> USART not in Disabled state => return ERROR) */

  return (status);
 8004592:	7bfb      	ldrb	r3, [r7, #15]
}
 8004594:	4618      	mov	r0, r3
 8004596:	3710      	adds	r7, #16
 8004598:	46bd      	mov	sp, r7
 800459a:	bd80      	pop	{r7, pc}
 800459c:	efff69f3 	.word	0xefff69f3
 80045a0:	40013800 	.word	0x40013800
 80045a4:	40004400 	.word	0x40004400
 80045a8:	40004800 	.word	0x40004800
 80045ac:	40004c00 	.word	0x40004c00
 80045b0:	40005000 	.word	0x40005000

080045b4 <LL_PWR_GetRegulVoltageScaling>:
  * @retval Returned value can be one of the following values:
  *         @arg @ref LL_PWR_REGU_VOLTAGE_SCALE1
  *         @arg @ref LL_PWR_REGU_VOLTAGE_SCALE2
  */
__STATIC_INLINE uint32_t LL_PWR_GetRegulVoltageScaling(void)
{
 80045b4:	b480      	push	{r7}
 80045b6:	af00      	add	r7, sp, #0
  return (uint32_t)(READ_BIT(PWR->CR1, PWR_CR1_VOS));
 80045b8:	4b04      	ldr	r3, [pc, #16]	; (80045cc <LL_PWR_GetRegulVoltageScaling+0x18>)
 80045ba:	681b      	ldr	r3, [r3, #0]
 80045bc:	f403 63c0 	and.w	r3, r3, #1536	; 0x600
}
 80045c0:	4618      	mov	r0, r3
 80045c2:	46bd      	mov	sp, r7
 80045c4:	f85d 7b04 	ldr.w	r7, [sp], #4
 80045c8:	4770      	bx	lr
 80045ca:	bf00      	nop
 80045cc:	40007000 	.word	0x40007000

080045d0 <LL_FLASH_SetLatency>:
  *
  *         (*) value not defined in all devices.
  * @retval None
  */
__STATIC_INLINE void LL_FLASH_SetLatency(uint32_t Latency)
{
 80045d0:	b480      	push	{r7}
 80045d2:	b083      	sub	sp, #12
 80045d4:	af00      	add	r7, sp, #0
 80045d6:	6078      	str	r0, [r7, #4]
  MODIFY_REG(FLASH->ACR, FLASH_ACR_LATENCY, Latency);
 80045d8:	4b06      	ldr	r3, [pc, #24]	; (80045f4 <LL_FLASH_SetLatency+0x24>)
 80045da:	681b      	ldr	r3, [r3, #0]
 80045dc:	f023 020f 	bic.w	r2, r3, #15
 80045e0:	4904      	ldr	r1, [pc, #16]	; (80045f4 <LL_FLASH_SetLatency+0x24>)
 80045e2:	687b      	ldr	r3, [r7, #4]
 80045e4:	4313      	orrs	r3, r2
 80045e6:	600b      	str	r3, [r1, #0]
}
 80045e8:	bf00      	nop
 80045ea:	370c      	adds	r7, #12
 80045ec:	46bd      	mov	sp, r7
 80045ee:	f85d 7b04 	ldr.w	r7, [sp], #4
 80045f2:	4770      	bx	lr
 80045f4:	40022000 	.word	0x40022000

080045f8 <LL_FLASH_GetLatency>:
  *         @arg @ref LL_FLASH_LATENCY_15 (*)
  *
  *         (*) value not defined in all devices.
  */
__STATIC_INLINE uint32_t LL_FLASH_GetLatency(void)
{
 80045f8:	b480      	push	{r7}
 80045fa:	af00      	add	r7, sp, #0
  return (uint32_t)(READ_BIT(FLASH->ACR, FLASH_ACR_LATENCY));
 80045fc:	4b04      	ldr	r3, [pc, #16]	; (8004610 <LL_FLASH_GetLatency+0x18>)
 80045fe:	681b      	ldr	r3, [r3, #0]
 8004600:	f003 030f 	and.w	r3, r3, #15
}
 8004604:	4618      	mov	r0, r3
 8004606:	46bd      	mov	sp, r7
 8004608:	f85d 7b04 	ldr.w	r7, [sp], #4
 800460c:	4770      	bx	lr
 800460e:	bf00      	nop
 8004610:	40022000 	.word	0x40022000

08004614 <LL_InitTick>:
  *         configuration by calling this function, for a delay use rather osDelay RTOS service.
  * @param  Ticks Number of ticks
  * @retval None
  */
__STATIC_INLINE void LL_InitTick(uint32_t HCLKFrequency, uint32_t Ticks)
{
 8004614:	b480      	push	{r7}
 8004616:	b083      	sub	sp, #12
 8004618:	af00      	add	r7, sp, #0
 800461a:	6078      	str	r0, [r7, #4]
 800461c:	6039      	str	r1, [r7, #0]
  /* Configure the SysTick to have interrupt in 1ms time base */
  SysTick->LOAD  = (uint32_t)((HCLKFrequency / Ticks) - 1UL);  /* set reload register */
 800461e:	687a      	ldr	r2, [r7, #4]
 8004620:	683b      	ldr	r3, [r7, #0]
 8004622:	fbb2 f3f3 	udiv	r3, r2, r3
 8004626:	4a07      	ldr	r2, [pc, #28]	; (8004644 <LL_InitTick+0x30>)
 8004628:	3b01      	subs	r3, #1
 800462a:	6053      	str	r3, [r2, #4]
  SysTick->VAL   = 0UL;                                       /* Load the SysTick Counter Value */
 800462c:	4b05      	ldr	r3, [pc, #20]	; (8004644 <LL_InitTick+0x30>)
 800462e:	2200      	movs	r2, #0
 8004630:	609a      	str	r2, [r3, #8]
  SysTick->CTRL  = SysTick_CTRL_CLKSOURCE_Msk |
 8004632:	4b04      	ldr	r3, [pc, #16]	; (8004644 <LL_InitTick+0x30>)
 8004634:	2205      	movs	r2, #5
 8004636:	601a      	str	r2, [r3, #0]
                   SysTick_CTRL_ENABLE_Msk;                   /* Enable the Systick Timer */
}
 8004638:	bf00      	nop
 800463a:	370c      	adds	r7, #12
 800463c:	46bd      	mov	sp, r7
 800463e:	f85d 7b04 	ldr.w	r7, [sp], #4
 8004642:	4770      	bx	lr
 8004644:	e000e010 	.word	0xe000e010

08004648 <LL_Init1msTick>:
  * @param  HCLKFrequency HCLK frequency in Hz
  * @note   HCLK frequency can be calculated thanks to RCC helper macro or function @ref LL_RCC_GetSystemClocksFreq
  * @retval None
  */
void LL_Init1msTick(uint32_t HCLKFrequency)
{
 8004648:	b580      	push	{r7, lr}
 800464a:	b082      	sub	sp, #8
 800464c:	af00      	add	r7, sp, #0
 800464e:	6078      	str	r0, [r7, #4]
  /* Use frequency provided in argument */
  LL_InitTick(HCLKFrequency, 1000U);
 8004650:	f44f 717a 	mov.w	r1, #1000	; 0x3e8
 8004654:	6878      	ldr	r0, [r7, #4]
 8004656:	f7ff ffdd 	bl	8004614 <LL_InitTick>
}
 800465a:	bf00      	nop
 800465c:	3708      	adds	r7, #8
 800465e:	46bd      	mov	sp, r7
 8004660:	bd80      	pop	{r7, pc}
	...

08004664 <LL_mDelay>:
  *         will configure Systick to 1ms
  * @param  Delay specifies the delay time length, in milliseconds.
  * @retval None
  */
void LL_mDelay(uint32_t Delay)
{
 8004664:	b480      	push	{r7}
 8004666:	b085      	sub	sp, #20
 8004668:	af00      	add	r7, sp, #0
 800466a:	6078      	str	r0, [r7, #4]
  __IO uint32_t  tmp = SysTick->CTRL;  /* Clear the COUNTFLAG first */
 800466c:	4b10      	ldr	r3, [pc, #64]	; (80046b0 <LL_mDelay+0x4c>)
 800466e:	681b      	ldr	r3, [r3, #0]
 8004670:	60bb      	str	r3, [r7, #8]
  uint32_t tmpDelay; /* MISRAC2012-Rule-17.8 */
  /* Add this code to indicate that local variable is not used */
  ((void)tmp);
 8004672:	68bb      	ldr	r3, [r7, #8]
  tmpDelay = Delay;
 8004674:	687b      	ldr	r3, [r7, #4]
 8004676:	60fb      	str	r3, [r7, #12]
  /* Add a period to guaranty minimum wait */
  if(tmpDelay < LL_MAX_DELAY)
 8004678:	68fb      	ldr	r3, [r7, #12]
 800467a:	f1b3 3fff 	cmp.w	r3, #4294967295	; 0xffffffff
 800467e:	d00c      	beq.n	800469a <LL_mDelay+0x36>
  {
    tmpDelay++;
 8004680:	68fb      	ldr	r3, [r7, #12]
 8004682:	3301      	adds	r3, #1
 8004684:	60fb      	str	r3, [r7, #12]
  }

  while (tmpDelay != 0U)
 8004686:	e008      	b.n	800469a <LL_mDelay+0x36>
  {
    if((SysTick->CTRL & SysTick_CTRL_COUNTFLAG_Msk) != 0U)
 8004688:	4b09      	ldr	r3, [pc, #36]	; (80046b0 <LL_mDelay+0x4c>)
 800468a:	681b      	ldr	r3, [r3, #0]
 800468c:	f403 3380 	and.w	r3, r3, #65536	; 0x10000
 8004690:	2b00      	cmp	r3, #0
 8004692:	d002      	beq.n	800469a <LL_mDelay+0x36>
    {
      tmpDelay--;
 8004694:	68fb      	ldr	r3, [r7, #12]
 8004696:	3b01      	subs	r3, #1
 8004698:	60fb      	str	r3, [r7, #12]
  while (tmpDelay != 0U)
 800469a:	68fb      	ldr	r3, [r7, #12]
 800469c:	2b00      	cmp	r3, #0
 800469e:	d1f3      	bne.n	8004688 <LL_mDelay+0x24>
    }
  }
}
 80046a0:	bf00      	nop
 80046a2:	bf00      	nop
 80046a4:	3714      	adds	r7, #20
 80046a6:	46bd      	mov	sp, r7
 80046a8:	f85d 7b04 	ldr.w	r7, [sp], #4
 80046ac:	4770      	bx	lr
 80046ae:	bf00      	nop
 80046b0:	e000e010 	.word	0xe000e010

080046b4 <LL_SetSystemCoreClock>:
  * @note   Variable can be calculated also through SystemCoreClockUpdate function.
  * @param  HCLKFrequency HCLK frequency in Hz (can be calculated thanks to RCC helper macro)
  * @retval None
  */
void LL_SetSystemCoreClock(uint32_t HCLKFrequency)
{
 80046b4:	b480      	push	{r7}
 80046b6:	b083      	sub	sp, #12
 80046b8:	af00      	add	r7, sp, #0
 80046ba:	6078      	str	r0, [r7, #4]
  /* HCLK clock frequency */
  SystemCoreClock = HCLKFrequency;
 80046bc:	4a04      	ldr	r2, [pc, #16]	; (80046d0 <LL_SetSystemCoreClock+0x1c>)
 80046be:	687b      	ldr	r3, [r7, #4]
 80046c0:	6013      	str	r3, [r2, #0]
}
 80046c2:	bf00      	nop
 80046c4:	370c      	adds	r7, #12
 80046c6:	46bd      	mov	sp, r7
 80046c8:	f85d 7b04 	ldr.w	r7, [sp], #4
 80046cc:	4770      	bx	lr
 80046ce:	bf00      	nop
 80046d0:	20000000 	.word	0x20000000

080046d4 <LL_SetFlashLatency>:
  * @retval An ErrorStatus enumeration value:
  *          - SUCCESS: Latency has been modified
  *          - ERROR: Latency cannot be modified
  */
ErrorStatus LL_SetFlashLatency(uint32_t HCLKFrequency)
{
 80046d4:	b580      	push	{r7, lr}
 80046d6:	b086      	sub	sp, #24
 80046d8:	af00      	add	r7, sp, #0
 80046da:	6078      	str	r0, [r7, #4]
  uint32_t timeout;
  uint32_t getlatency;
  ErrorStatus status = SUCCESS;
 80046dc:	2300      	movs	r3, #0
 80046de:	74fb      	strb	r3, [r7, #19]

  uint32_t latency = LL_FLASH_LATENCY_0;  /* default value 0WS */
 80046e0:	2300      	movs	r3, #0
 80046e2:	60fb      	str	r3, [r7, #12]

  /* Frequency cannot be equal to 0 or greater than max clock */
  if((HCLKFrequency == 0U) || (HCLKFrequency > UTILS_SCALE1_LATENCY9_FREQ))
 80046e4:	687b      	ldr	r3, [r7, #4]
 80046e6:	2b00      	cmp	r3, #0
 80046e8:	d003      	beq.n	80046f2 <LL_SetFlashLatency+0x1e>
 80046ea:	687b      	ldr	r3, [r7, #4]
 80046ec:	4a38      	ldr	r2, [pc, #224]	; (80047d0 <LL_SetFlashLatency+0xfc>)
 80046ee:	4293      	cmp	r3, r2
 80046f0:	d902      	bls.n	80046f8 <LL_SetFlashLatency+0x24>
  {
    status = ERROR;
 80046f2:	2301      	movs	r3, #1
 80046f4:	74fb      	strb	r3, [r7, #19]
 80046f6:	e065      	b.n	80047c4 <LL_SetFlashLatency+0xf0>
  }
  else
  {
    if(LL_PWR_GetRegulVoltageScaling() == LL_PWR_REGU_VOLTAGE_SCALE1)
 80046f8:	f7ff ff5c 	bl	80045b4 <LL_PWR_GetRegulVoltageScaling>
 80046fc:	4603      	mov	r3, r0
 80046fe:	f5b3 7f00 	cmp.w	r3, #512	; 0x200
 8004702:	d137      	bne.n	8004774 <LL_SetFlashLatency+0xa0>
    {
      if(HCLKFrequency > UTILS_SCALE1_LATENCY8_FREQ)
 8004704:	687b      	ldr	r3, [r7, #4]
 8004706:	4a33      	ldr	r2, [pc, #204]	; (80047d4 <LL_SetFlashLatency+0x100>)
 8004708:	4293      	cmp	r3, r2
 800470a:	d902      	bls.n	8004712 <LL_SetFlashLatency+0x3e>
      {
        /* 160 < HCLK <= 170 => 8WS (9 CPU cycles) */
        latency = LL_FLASH_LATENCY_8;
 800470c:	2308      	movs	r3, #8
 800470e:	60fb      	str	r3, [r7, #12]
 8004710:	e03d      	b.n	800478e <LL_SetFlashLatency+0xba>
      }
      else if(HCLKFrequency > UTILS_SCALE1_LATENCY7_FREQ)
 8004712:	687b      	ldr	r3, [r7, #4]
 8004714:	4a30      	ldr	r2, [pc, #192]	; (80047d8 <LL_SetFlashLatency+0x104>)
 8004716:	4293      	cmp	r3, r2
 8004718:	d902      	bls.n	8004720 <LL_SetFlashLatency+0x4c>
      {
        /* 140 < HCLK <= 160 => 7WS (8 CPU cycles) */
        latency = LL_FLASH_LATENCY_7;
 800471a:	2307      	movs	r3, #7
 800471c:	60fb      	str	r3, [r7, #12]
 800471e:	e036      	b.n	800478e <LL_SetFlashLatency+0xba>
      }
      else if(HCLKFrequency > UTILS_SCALE1_LATENCY6_FREQ)
 8004720:	687b      	ldr	r3, [r7, #4]
 8004722:	4a2e      	ldr	r2, [pc, #184]	; (80047dc <LL_SetFlashLatency+0x108>)
 8004724:	4293      	cmp	r3, r2
 8004726:	d902      	bls.n	800472e <LL_SetFlashLatency+0x5a>
      {
        /* 120 < HCLK <= 140 => 6WS (7 CPU cycles) */
        latency = LL_FLASH_LATENCY_6;
 8004728:	2306      	movs	r3, #6
 800472a:	60fb      	str	r3, [r7, #12]
 800472c:	e02f      	b.n	800478e <LL_SetFlashLatency+0xba>
      }
      else if(HCLKFrequency > UTILS_SCALE1_LATENCY5_FREQ)
 800472e:	687b      	ldr	r3, [r7, #4]
 8004730:	4a2b      	ldr	r2, [pc, #172]	; (80047e0 <LL_SetFlashLatency+0x10c>)
 8004732:	4293      	cmp	r3, r2
 8004734:	d902      	bls.n	800473c <LL_SetFlashLatency+0x68>
      {
        /* 100 < HCLK <= 120 => 5WS (6 CPU cycles) */
        latency = LL_FLASH_LATENCY_5;
 8004736:	2305      	movs	r3, #5
 8004738:	60fb      	str	r3, [r7, #12]
 800473a:	e028      	b.n	800478e <LL_SetFlashLatency+0xba>
      }
      else if(HCLKFrequency > UTILS_SCALE1_LATENCY4_FREQ)
 800473c:	687b      	ldr	r3, [r7, #4]
 800473e:	4a29      	ldr	r2, [pc, #164]	; (80047e4 <LL_SetFlashLatency+0x110>)
 8004740:	4293      	cmp	r3, r2
 8004742:	d902      	bls.n	800474a <LL_SetFlashLatency+0x76>
      {
        /* 80 < HCLK <= 100 => 4WS (5 CPU cycles) */
        latency = LL_FLASH_LATENCY_4;
 8004744:	2304      	movs	r3, #4
 8004746:	60fb      	str	r3, [r7, #12]
 8004748:	e021      	b.n	800478e <LL_SetFlashLatency+0xba>
      }
      else if(HCLKFrequency > UTILS_SCALE1_LATENCY3_FREQ)
 800474a:	687b      	ldr	r3, [r7, #4]
 800474c:	4a26      	ldr	r2, [pc, #152]	; (80047e8 <LL_SetFlashLatency+0x114>)
 800474e:	4293      	cmp	r3, r2
 8004750:	d902      	bls.n	8004758 <LL_SetFlashLatency+0x84>
      {
        /* 60 < HCLK <= 80 => 3WS (4 CPU cycles) */
        latency = LL_FLASH_LATENCY_3;
 8004752:	2303      	movs	r3, #3
 8004754:	60fb      	str	r3, [r7, #12]
 8004756:	e01a      	b.n	800478e <LL_SetFlashLatency+0xba>
      }
      else if(HCLKFrequency > UTILS_SCALE1_LATENCY2_FREQ)
 8004758:	687b      	ldr	r3, [r7, #4]
 800475a:	4a24      	ldr	r2, [pc, #144]	; (80047ec <LL_SetFlashLatency+0x118>)
 800475c:	4293      	cmp	r3, r2
 800475e:	d902      	bls.n	8004766 <LL_SetFlashLatency+0x92>
      {
        /* 40 < HCLK <= 60 => 2WS (3 CPU cycles) */
        latency = LL_FLASH_LATENCY_2;
 8004760:	2302      	movs	r3, #2
 8004762:	60fb      	str	r3, [r7, #12]
 8004764:	e013      	b.n	800478e <LL_SetFlashLatency+0xba>
      }
      else
      {
        if(HCLKFrequency > UTILS_SCALE1_LATENCY1_FREQ)
 8004766:	687b      	ldr	r3, [r7, #4]
 8004768:	4a21      	ldr	r2, [pc, #132]	; (80047f0 <LL_SetFlashLatency+0x11c>)
 800476a:	4293      	cmp	r3, r2
 800476c:	d90f      	bls.n	800478e <LL_SetFlashLatency+0xba>
        {
          /* 20 < HCLK <= 40 => 1WS (2 CPU cycles) */
          latency = LL_FLASH_LATENCY_1;
 800476e:	2301      	movs	r3, #1
 8004770:	60fb      	str	r3, [r7, #12]
 8004772:	e00c      	b.n	800478e <LL_SetFlashLatency+0xba>
        /* else HCLKFrequency <= 10MHz default LL_FLASH_LATENCY_0 0WS */
      }
    }
    else /* SCALE2 */
    {
      if(HCLKFrequency > UTILS_SCALE2_LATENCY2_FREQ)
 8004774:	687b      	ldr	r3, [r7, #4]
 8004776:	4a1f      	ldr	r2, [pc, #124]	; (80047f4 <LL_SetFlashLatency+0x120>)
 8004778:	4293      	cmp	r3, r2
 800477a:	d902      	bls.n	8004782 <LL_SetFlashLatency+0xae>
      {
        /* 16 < HCLK <= 26 => 2WS (3 CPU cycles) */
        latency = LL_FLASH_LATENCY_2;
 800477c:	2302      	movs	r3, #2
 800477e:	60fb      	str	r3, [r7, #12]
 8004780:	e005      	b.n	800478e <LL_SetFlashLatency+0xba>
      }
      else
      {
        if(HCLKFrequency > UTILS_SCALE2_LATENCY1_FREQ)
 8004782:	687b      	ldr	r3, [r7, #4]
 8004784:	4a1c      	ldr	r2, [pc, #112]	; (80047f8 <LL_SetFlashLatency+0x124>)
 8004786:	4293      	cmp	r3, r2
 8004788:	d901      	bls.n	800478e <LL_SetFlashLatency+0xba>
        {
          /* 8 < HCLK <= 16 => 1WS (2 CPU cycles) */
          latency = LL_FLASH_LATENCY_1;
 800478a:	2301      	movs	r3, #1
 800478c:	60fb      	str	r3, [r7, #12]
        }
        /* else HCLKFrequency <= 8MHz default LL_FLASH_LATENCY_0 0WS */
      }
    }

    if (status != ERROR)
 800478e:	7cfb      	ldrb	r3, [r7, #19]
 8004790:	2b01      	cmp	r3, #1
 8004792:	d017      	beq.n	80047c4 <LL_SetFlashLatency+0xf0>
    {
      LL_FLASH_SetLatency(latency);
 8004794:	68f8      	ldr	r0, [r7, #12]
 8004796:	f7ff ff1b 	bl	80045d0 <LL_FLASH_SetLatency>

      /* Check that the new number of wait states is taken into account to access the Flash
         memory by reading the FLASH_ACR register */
      timeout = 2U;
 800479a:	2302      	movs	r3, #2
 800479c:	617b      	str	r3, [r7, #20]
      do
      {
        /* Wait for Flash latency to be updated */
        getlatency = LL_FLASH_GetLatency();
 800479e:	f7ff ff2b 	bl	80045f8 <LL_FLASH_GetLatency>
 80047a2:	60b8      	str	r0, [r7, #8]
        timeout--;
 80047a4:	697b      	ldr	r3, [r7, #20]
 80047a6:	3b01      	subs	r3, #1
 80047a8:	617b      	str	r3, [r7, #20]
      } while ((getlatency != latency) && (timeout > 0U));
 80047aa:	68ba      	ldr	r2, [r7, #8]
 80047ac:	68fb      	ldr	r3, [r7, #12]
 80047ae:	429a      	cmp	r2, r3
 80047b0:	d002      	beq.n	80047b8 <LL_SetFlashLatency+0xe4>
 80047b2:	697b      	ldr	r3, [r7, #20]
 80047b4:	2b00      	cmp	r3, #0
 80047b6:	d1f2      	bne.n	800479e <LL_SetFlashLatency+0xca>

      if(getlatency != latency)
 80047b8:	68ba      	ldr	r2, [r7, #8]
 80047ba:	68fb      	ldr	r3, [r7, #12]
 80047bc:	429a      	cmp	r2, r3
 80047be:	d001      	beq.n	80047c4 <LL_SetFlashLatency+0xf0>
      {
        status = ERROR;
 80047c0:	2301      	movs	r3, #1
 80047c2:	74fb      	strb	r3, [r7, #19]
      }
    }
  }

  return status;
 80047c4:	7cfb      	ldrb	r3, [r7, #19]
}
 80047c6:	4618      	mov	r0, r3
 80047c8:	3718      	adds	r7, #24
 80047ca:	46bd      	mov	sp, r7
 80047cc:	bd80      	pop	{r7, pc}
 80047ce:	bf00      	nop
 80047d0:	0a21fe80 	.word	0x0a21fe80
 80047d4:	09896800 	.word	0x09896800
 80047d8:	08583b00 	.word	0x08583b00
 80047dc:	07270e00 	.word	0x07270e00
 80047e0:	05f5e100 	.word	0x05f5e100
 80047e4:	04c4b400 	.word	0x04c4b400
 80047e8:	03938700 	.word	0x03938700
 80047ec:	02625a00 	.word	0x02625a00
 80047f0:	01312d00 	.word	0x01312d00
 80047f4:	00f42400 	.word	0x00f42400
 80047f8:	007a1200 	.word	0x007a1200

080047fc <__NVIC_SetPriorityGrouping>:
           In case of a conflict between priority grouping and available
           priority bits (__NVIC_PRIO_BITS), the smallest possible priority group is set.
  \param [in]      PriorityGroup  Priority grouping field.
 */
__STATIC_INLINE void __NVIC_SetPriorityGrouping(uint32_t PriorityGroup)
{
 80047fc:	b480      	push	{r7}
 80047fe:	b085      	sub	sp, #20
 8004800:	af00      	add	r7, sp, #0
 8004802:	6078      	str	r0, [r7, #4]
  uint32_t reg_value;
  uint32_t PriorityGroupTmp = (PriorityGroup & (uint32_t)0x07UL);             /* only values 0..7 are used          */
 8004804:	687b      	ldr	r3, [r7, #4]
 8004806:	f003 0307 	and.w	r3, r3, #7
 800480a:	60fb      	str	r3, [r7, #12]

  reg_value  =  SCB->AIRCR;                                                   /* read old register configuration    */
 800480c:	4b0c      	ldr	r3, [pc, #48]	; (8004840 <__NVIC_SetPriorityGrouping+0x44>)
 800480e:	68db      	ldr	r3, [r3, #12]
 8004810:	60bb      	str	r3, [r7, #8]
  reg_value &= ~((uint32_t)(SCB_AIRCR_VECTKEY_Msk | SCB_AIRCR_PRIGROUP_Msk)); /* clear bits to change               */
 8004812:	68ba      	ldr	r2, [r7, #8]
 8004814:	f64f 03ff 	movw	r3, #63743	; 0xf8ff
 8004818:	4013      	ands	r3, r2
 800481a:	60bb      	str	r3, [r7, #8]
  reg_value  =  (reg_value                                   |
                ((uint32_t)0x5FAUL << SCB_AIRCR_VECTKEY_Pos) |
                (PriorityGroupTmp << SCB_AIRCR_PRIGROUP_Pos)  );              /* Insert write key and priority group */
 800481c:	68fb      	ldr	r3, [r7, #12]
 800481e:	021a      	lsls	r2, r3, #8
                ((uint32_t)0x5FAUL << SCB_AIRCR_VECTKEY_Pos) |
 8004820:	68bb      	ldr	r3, [r7, #8]
 8004822:	4313      	orrs	r3, r2
  reg_value  =  (reg_value                                   |
 8004824:	f043 63bf 	orr.w	r3, r3, #100139008	; 0x5f80000
 8004828:	f443 3300 	orr.w	r3, r3, #131072	; 0x20000
 800482c:	60bb      	str	r3, [r7, #8]
  SCB->AIRCR =  reg_value;
 800482e:	4a04      	ldr	r2, [pc, #16]	; (8004840 <__NVIC_SetPriorityGrouping+0x44>)
 8004830:	68bb      	ldr	r3, [r7, #8]
 8004832:	60d3      	str	r3, [r2, #12]
}
 8004834:	bf00      	nop
 8004836:	3714      	adds	r7, #20
 8004838:	46bd      	mov	sp, r7
 800483a:	f85d 7b04 	ldr.w	r7, [sp], #4
 800483e:	4770      	bx	lr
 8004840:	e000ed00 	.word	0xe000ed00

08004844 <LL_RCC_HSE_EnableBypass>:
{
 8004844:	b480      	push	{r7}
 8004846:	af00      	add	r7, sp, #0
  SET_BIT(RCC->CR, RCC_CR_HSEBYP);
 8004848:	4b05      	ldr	r3, [pc, #20]	; (8004860 <LL_RCC_HSE_EnableBypass+0x1c>)
 800484a:	681b      	ldr	r3, [r3, #0]
 800484c:	4a04      	ldr	r2, [pc, #16]	; (8004860 <LL_RCC_HSE_EnableBypass+0x1c>)
 800484e:	f443 2380 	orr.w	r3, r3, #262144	; 0x40000
 8004852:	6013      	str	r3, [r2, #0]
}
 8004854:	bf00      	nop
 8004856:	46bd      	mov	sp, r7
 8004858:	f85d 7b04 	ldr.w	r7, [sp], #4
 800485c:	4770      	bx	lr
 800485e:	bf00      	nop
 8004860:	40021000 	.word	0x40021000

08004864 <LL_RCC_HSE_Enable>:
{
 8004864:	b480      	push	{r7}
 8004866:	af00      	add	r7, sp, #0
  SET_BIT(RCC->CR, RCC_CR_HSEON);
 8004868:	4b05      	ldr	r3, [pc, #20]	; (8004880 <LL_RCC_HSE_Enable+0x1c>)
 800486a:	681b      	ldr	r3, [r3, #0]
 800486c:	4a04      	ldr	r2, [pc, #16]	; (8004880 <LL_RCC_HSE_Enable+0x1c>)
 800486e:	f443 3380 	orr.w	r3, r3, #65536	; 0x10000
 8004872:	6013      	str	r3, [r2, #0]
}
 8004874:	bf00      	nop
 8004876:	46bd      	mov	sp, r7
 8004878:	f85d 7b04 	ldr.w	r7, [sp], #4
 800487c:	4770      	bx	lr
 800487e:	bf00      	nop
 8004880:	40021000 	.word	0x40021000

08004884 <LL_RCC_HSE_Disable>:
{
 8004884:	b480      	push	{r7}
 8004886:	af00      	add	r7, sp, #0
  CLEAR_BIT(RCC->CR, RCC_CR_HSEON);
 8004888:	4b05      	ldr	r3, [pc, #20]	; (80048a0 <LL_RCC_HSE_Disable+0x1c>)
 800488a:	681b      	ldr	r3, [r3, #0]
 800488c:	4a04      	ldr	r2, [pc, #16]	; (80048a0 <LL_RCC_HSE_Disable+0x1c>)
 800488e:	f423 3380 	bic.w	r3, r3, #65536	; 0x10000
 8004892:	6013      	str	r3, [r2, #0]
}
 8004894:	bf00      	nop
 8004896:	46bd      	mov	sp, r7
 8004898:	f85d 7b04 	ldr.w	r7, [sp], #4
 800489c:	4770      	bx	lr
 800489e:	bf00      	nop
 80048a0:	40021000 	.word	0x40021000

080048a4 <LL_RCC_HSE_IsReady>:
{
 80048a4:	b480      	push	{r7}
 80048a6:	af00      	add	r7, sp, #0
  return ((READ_BIT(RCC->CR, RCC_CR_HSERDY) == (RCC_CR_HSERDY)) ? 1UL : 0UL);
 80048a8:	4b07      	ldr	r3, [pc, #28]	; (80048c8 <LL_RCC_HSE_IsReady+0x24>)
 80048aa:	681b      	ldr	r3, [r3, #0]
 80048ac:	f403 3300 	and.w	r3, r3, #131072	; 0x20000
 80048b0:	f5b3 3f00 	cmp.w	r3, #131072	; 0x20000
 80048b4:	d101      	bne.n	80048ba <LL_RCC_HSE_IsReady+0x16>
 80048b6:	2301      	movs	r3, #1
 80048b8:	e000      	b.n	80048bc <LL_RCC_HSE_IsReady+0x18>
 80048ba:	2300      	movs	r3, #0
}
 80048bc:	4618      	mov	r0, r3
 80048be:	46bd      	mov	sp, r7
 80048c0:	f85d 7b04 	ldr.w	r7, [sp], #4
 80048c4:	4770      	bx	lr
 80048c6:	bf00      	nop
 80048c8:	40021000 	.word	0x40021000

080048cc <LL_RCC_HSI_Enable>:
{
 80048cc:	b480      	push	{r7}
 80048ce:	af00      	add	r7, sp, #0
  SET_BIT(RCC->CR, RCC_CR_HSION);
 80048d0:	4b05      	ldr	r3, [pc, #20]	; (80048e8 <LL_RCC_HSI_Enable+0x1c>)
 80048d2:	681b      	ldr	r3, [r3, #0]
 80048d4:	4a04      	ldr	r2, [pc, #16]	; (80048e8 <LL_RCC_HSI_Enable+0x1c>)
 80048d6:	f443 7380 	orr.w	r3, r3, #256	; 0x100
 80048da:	6013      	str	r3, [r2, #0]
}
 80048dc:	bf00      	nop
 80048de:	46bd      	mov	sp, r7
 80048e0:	f85d 7b04 	ldr.w	r7, [sp], #4
 80048e4:	4770      	bx	lr
 80048e6:	bf00      	nop
 80048e8:	40021000 	.word	0x40021000

080048ec <LL_RCC_HSI_IsReady>:
{
 80048ec:	b480      	push	{r7}
 80048ee:	af00      	add	r7, sp, #0
  return ((READ_BIT(RCC->CR, RCC_CR_HSIRDY) == (RCC_CR_HSIRDY)) ? 1UL : 0UL);
 80048f0:	4b07      	ldr	r3, [pc, #28]	; (8004910 <LL_RCC_HSI_IsReady+0x24>)
 80048f2:	681b      	ldr	r3, [r3, #0]
 80048f4:	f403 6380 	and.w	r3, r3, #1024	; 0x400
 80048f8:	f5b3 6f80 	cmp.w	r3, #1024	; 0x400
 80048fc:	d101      	bne.n	8004902 <LL_RCC_HSI_IsReady+0x16>
 80048fe:	2301      	movs	r3, #1
 8004900:	e000      	b.n	8004904 <LL_RCC_HSI_IsReady+0x18>
 8004902:	2300      	movs	r3, #0
}
 8004904:	4618      	mov	r0, r3
 8004906:	46bd      	mov	sp, r7
 8004908:	f85d 7b04 	ldr.w	r7, [sp], #4
 800490c:	4770      	bx	lr
 800490e:	bf00      	nop
 8004910:	40021000 	.word	0x40021000

08004914 <LL_RCC_HSI_SetCalibTrimming>:
{
 8004914:	b480      	push	{r7}
 8004916:	b083      	sub	sp, #12
 8004918:	af00      	add	r7, sp, #0
 800491a:	6078      	str	r0, [r7, #4]
  MODIFY_REG(RCC->ICSCR, RCC_ICSCR_HSITRIM, Value << RCC_ICSCR_HSITRIM_Pos);
 800491c:	4b07      	ldr	r3, [pc, #28]	; (800493c <LL_RCC_HSI_SetCalibTrimming+0x28>)
 800491e:	685b      	ldr	r3, [r3, #4]
 8004920:	f023 42fe 	bic.w	r2, r3, #2130706432	; 0x7f000000
 8004924:	687b      	ldr	r3, [r7, #4]
 8004926:	061b      	lsls	r3, r3, #24
 8004928:	4904      	ldr	r1, [pc, #16]	; (800493c <LL_RCC_HSI_SetCalibTrimming+0x28>)
 800492a:	4313      	orrs	r3, r2
 800492c:	604b      	str	r3, [r1, #4]
}
 800492e:	bf00      	nop
 8004930:	370c      	adds	r7, #12
 8004932:	46bd      	mov	sp, r7
 8004934:	f85d 7b04 	ldr.w	r7, [sp], #4
 8004938:	4770      	bx	lr
 800493a:	bf00      	nop
 800493c:	40021000 	.word	0x40021000

08004940 <LL_RCC_SetSysClkSource>:
{
 8004940:	b480      	push	{r7}
 8004942:	b083      	sub	sp, #12
 8004944:	af00      	add	r7, sp, #0
 8004946:	6078      	str	r0, [r7, #4]
  MODIFY_REG(RCC->CFGR, RCC_CFGR_SW, Source);
 8004948:	4b06      	ldr	r3, [pc, #24]	; (8004964 <LL_RCC_SetSysClkSource+0x24>)
 800494a:	689b      	ldr	r3, [r3, #8]
 800494c:	f023 0203 	bic.w	r2, r3, #3
 8004950:	4904      	ldr	r1, [pc, #16]	; (8004964 <LL_RCC_SetSysClkSource+0x24>)
 8004952:	687b      	ldr	r3, [r7, #4]
 8004954:	4313      	orrs	r3, r2
 8004956:	608b      	str	r3, [r1, #8]
}
 8004958:	bf00      	nop
 800495a:	370c      	adds	r7, #12
 800495c:	46bd      	mov	sp, r7
 800495e:	f85d 7b04 	ldr.w	r7, [sp], #4
 8004962:	4770      	bx	lr
 8004964:	40021000 	.word	0x40021000

08004968 <LL_RCC_GetSysClkSource>:
{
 8004968:	b480      	push	{r7}
 800496a:	af00      	add	r7, sp, #0
  return (uint32_t)(READ_BIT(RCC->CFGR, RCC_CFGR_SWS));
 800496c:	4b04      	ldr	r3, [pc, #16]	; (8004980 <LL_RCC_GetSysClkSource+0x18>)
 800496e:	689b      	ldr	r3, [r3, #8]
 8004970:	f003 030c 	and.w	r3, r3, #12
}
 8004974:	4618      	mov	r0, r3
 8004976:	46bd      	mov	sp, r7
 8004978:	f85d 7b04 	ldr.w	r7, [sp], #4
 800497c:	4770      	bx	lr
 800497e:	bf00      	nop
 8004980:	40021000 	.word	0x40021000

08004984 <LL_RCC_SetAHBPrescaler>:
{
 8004984:	b480      	push	{r7}
 8004986:	b083      	sub	sp, #12
 8004988:	af00      	add	r7, sp, #0
 800498a:	6078      	str	r0, [r7, #4]
  MODIFY_REG(RCC->CFGR, RCC_CFGR_HPRE, Prescaler);
 800498c:	4b06      	ldr	r3, [pc, #24]	; (80049a8 <LL_RCC_SetAHBPrescaler+0x24>)
 800498e:	689b      	ldr	r3, [r3, #8]
 8004990:	f023 02f0 	bic.w	r2, r3, #240	; 0xf0
 8004994:	4904      	ldr	r1, [pc, #16]	; (80049a8 <LL_RCC_SetAHBPrescaler+0x24>)
 8004996:	687b      	ldr	r3, [r7, #4]
 8004998:	4313      	orrs	r3, r2
 800499a:	608b      	str	r3, [r1, #8]
}
 800499c:	bf00      	nop
 800499e:	370c      	adds	r7, #12
 80049a0:	46bd      	mov	sp, r7
 80049a2:	f85d 7b04 	ldr.w	r7, [sp], #4
 80049a6:	4770      	bx	lr
 80049a8:	40021000 	.word	0x40021000

080049ac <LL_RCC_SetAPB1Prescaler>:
{
 80049ac:	b480      	push	{r7}
 80049ae:	b083      	sub	sp, #12
 80049b0:	af00      	add	r7, sp, #0
 80049b2:	6078      	str	r0, [r7, #4]
  MODIFY_REG(RCC->CFGR, RCC_CFGR_PPRE1, Prescaler);
 80049b4:	4b06      	ldr	r3, [pc, #24]	; (80049d0 <LL_RCC_SetAPB1Prescaler+0x24>)
 80049b6:	689b      	ldr	r3, [r3, #8]
 80049b8:	f423 62e0 	bic.w	r2, r3, #1792	; 0x700
 80049bc:	4904      	ldr	r1, [pc, #16]	; (80049d0 <LL_RCC_SetAPB1Prescaler+0x24>)
 80049be:	687b      	ldr	r3, [r7, #4]
 80049c0:	4313      	orrs	r3, r2
 80049c2:	608b      	str	r3, [r1, #8]
}
 80049c4:	bf00      	nop
 80049c6:	370c      	adds	r7, #12
 80049c8:	46bd      	mov	sp, r7
 80049ca:	f85d 7b04 	ldr.w	r7, [sp], #4
 80049ce:	4770      	bx	lr
 80049d0:	40021000 	.word	0x40021000

080049d4 <LL_RCC_SetAPB2Prescaler>:
{
 80049d4:	b480      	push	{r7}
 80049d6:	b083      	sub	sp, #12
 80049d8:	af00      	add	r7, sp, #0
 80049da:	6078      	str	r0, [r7, #4]
  MODIFY_REG(RCC->CFGR, RCC_CFGR_PPRE2, Prescaler);
 80049dc:	4b06      	ldr	r3, [pc, #24]	; (80049f8 <LL_RCC_SetAPB2Prescaler+0x24>)
 80049de:	689b      	ldr	r3, [r3, #8]
 80049e0:	f423 5260 	bic.w	r2, r3, #14336	; 0x3800
 80049e4:	4904      	ldr	r1, [pc, #16]	; (80049f8 <LL_RCC_SetAPB2Prescaler+0x24>)
 80049e6:	687b      	ldr	r3, [r7, #4]
 80049e8:	4313      	orrs	r3, r2
 80049ea:	608b      	str	r3, [r1, #8]
}
 80049ec:	bf00      	nop
 80049ee:	370c      	adds	r7, #12
 80049f0:	46bd      	mov	sp, r7
 80049f2:	f85d 7b04 	ldr.w	r7, [sp], #4
 80049f6:	4770      	bx	lr
 80049f8:	40021000 	.word	0x40021000

080049fc <LL_RCC_PLL_Enable>:
{
 80049fc:	b480      	push	{r7}
 80049fe:	af00      	add	r7, sp, #0
  SET_BIT(RCC->CR, RCC_CR_PLLON);
 8004a00:	4b05      	ldr	r3, [pc, #20]	; (8004a18 <LL_RCC_PLL_Enable+0x1c>)
 8004a02:	681b      	ldr	r3, [r3, #0]
 8004a04:	4a04      	ldr	r2, [pc, #16]	; (8004a18 <LL_RCC_PLL_Enable+0x1c>)
 8004a06:	f043 7380 	orr.w	r3, r3, #16777216	; 0x1000000
 8004a0a:	6013      	str	r3, [r2, #0]
}
 8004a0c:	bf00      	nop
 8004a0e:	46bd      	mov	sp, r7
 8004a10:	f85d 7b04 	ldr.w	r7, [sp], #4
 8004a14:	4770      	bx	lr
 8004a16:	bf00      	nop
 8004a18:	40021000 	.word	0x40021000

08004a1c <LL_RCC_PLL_Disable>:
{
 8004a1c:	b480      	push	{r7}
 8004a1e:	af00      	add	r7, sp, #0
  CLEAR_BIT(RCC->CR, RCC_CR_PLLON);
 8004a20:	4b05      	ldr	r3, [pc, #20]	; (8004a38 <LL_RCC_PLL_Disable+0x1c>)
 8004a22:	681b      	ldr	r3, [r3, #0]
 8004a24:	4a04      	ldr	r2, [pc, #16]	; (8004a38 <LL_RCC_PLL_Disable+0x1c>)
 8004a26:	f023 7380 	bic.w	r3, r3, #16777216	; 0x1000000
 8004a2a:	6013      	str	r3, [r2, #0]
}
 8004a2c:	bf00      	nop
 8004a2e:	46bd      	mov	sp, r7
 8004a30:	f85d 7b04 	ldr.w	r7, [sp], #4
 8004a34:	4770      	bx	lr
 8004a36:	bf00      	nop
 8004a38:	40021000 	.word	0x40021000

08004a3c <LL_RCC_PLL_IsReady>:
{
 8004a3c:	b480      	push	{r7}
 8004a3e:	af00      	add	r7, sp, #0
  return ((READ_BIT(RCC->CR, RCC_CR_PLLRDY) == (RCC_CR_PLLRDY)) ? 1UL : 0UL);
 8004a40:	4b07      	ldr	r3, [pc, #28]	; (8004a60 <LL_RCC_PLL_IsReady+0x24>)
 8004a42:	681b      	ldr	r3, [r3, #0]
 8004a44:	f003 7300 	and.w	r3, r3, #33554432	; 0x2000000
 8004a48:	f1b3 7f00 	cmp.w	r3, #33554432	; 0x2000000
 8004a4c:	d101      	bne.n	8004a52 <LL_RCC_PLL_IsReady+0x16>
 8004a4e:	2301      	movs	r3, #1
 8004a50:	e000      	b.n	8004a54 <LL_RCC_PLL_IsReady+0x18>
 8004a52:	2300      	movs	r3, #0
}
 8004a54:	4618      	mov	r0, r3
 8004a56:	46bd      	mov	sp, r7
 8004a58:	f85d 7b04 	ldr.w	r7, [sp], #4
 8004a5c:	4770      	bx	lr
 8004a5e:	bf00      	nop
 8004a60:	40021000 	.word	0x40021000

08004a64 <LL_RCC_PLL_ConfigDomain_SYS>:
{
 8004a64:	b480      	push	{r7}
 8004a66:	b085      	sub	sp, #20
 8004a68:	af00      	add	r7, sp, #0
 8004a6a:	60f8      	str	r0, [r7, #12]
 8004a6c:	60b9      	str	r1, [r7, #8]
 8004a6e:	607a      	str	r2, [r7, #4]
 8004a70:	603b      	str	r3, [r7, #0]
  MODIFY_REG(RCC->PLLCFGR, RCC_PLLCFGR_PLLSRC | RCC_PLLCFGR_PLLM | RCC_PLLCFGR_PLLN | RCC_PLLCFGR_PLLR,
 8004a72:	4b0a      	ldr	r3, [pc, #40]	; (8004a9c <LL_RCC_PLL_ConfigDomain_SYS+0x38>)
 8004a74:	68da      	ldr	r2, [r3, #12]
 8004a76:	4b0a      	ldr	r3, [pc, #40]	; (8004aa0 <LL_RCC_PLL_ConfigDomain_SYS+0x3c>)
 8004a78:	4013      	ands	r3, r2
 8004a7a:	68f9      	ldr	r1, [r7, #12]
 8004a7c:	68ba      	ldr	r2, [r7, #8]
 8004a7e:	4311      	orrs	r1, r2
 8004a80:	687a      	ldr	r2, [r7, #4]
 8004a82:	0212      	lsls	r2, r2, #8
 8004a84:	4311      	orrs	r1, r2
 8004a86:	683a      	ldr	r2, [r7, #0]
 8004a88:	430a      	orrs	r2, r1
 8004a8a:	4904      	ldr	r1, [pc, #16]	; (8004a9c <LL_RCC_PLL_ConfigDomain_SYS+0x38>)
 8004a8c:	4313      	orrs	r3, r2
 8004a8e:	60cb      	str	r3, [r1, #12]
}
 8004a90:	bf00      	nop
 8004a92:	3714      	adds	r7, #20
 8004a94:	46bd      	mov	sp, r7
 8004a96:	f85d 7b04 	ldr.w	r7, [sp], #4
 8004a9a:	4770      	bx	lr
 8004a9c:	40021000 	.word	0x40021000
 8004aa0:	f9ff800c 	.word	0xf9ff800c

08004aa4 <LL_RCC_PLL_EnableDomain_SYS>:
  * @brief  Enable PLL output mapped on SYSCLK domain
  * @rmtoll PLLCFGR      PLLREN        LL_RCC_PLL_EnableDomain_SYS
  * @retval None
  */
__STATIC_INLINE void LL_RCC_PLL_EnableDomain_SYS(void)
{
 8004aa4:	b480      	push	{r7}
 8004aa6:	af00      	add	r7, sp, #0
  SET_BIT(RCC->PLLCFGR, RCC_PLLCFGR_PLLREN);
 8004aa8:	4b05      	ldr	r3, [pc, #20]	; (8004ac0 <LL_RCC_PLL_EnableDomain_SYS+0x1c>)
 8004aaa:	68db      	ldr	r3, [r3, #12]
 8004aac:	4a04      	ldr	r2, [pc, #16]	; (8004ac0 <LL_RCC_PLL_EnableDomain_SYS+0x1c>)
 8004aae:	f043 7380 	orr.w	r3, r3, #16777216	; 0x1000000
 8004ab2:	60d3      	str	r3, [r2, #12]
}
 8004ab4:	bf00      	nop
 8004ab6:	46bd      	mov	sp, r7
 8004ab8:	f85d 7b04 	ldr.w	r7, [sp], #4
 8004abc:	4770      	bx	lr
 8004abe:	bf00      	nop
 8004ac0:	40021000 	.word	0x40021000

08004ac4 <LL_APB1_GRP1_EnableClock>:
{
 8004ac4:	b480      	push	{r7}
 8004ac6:	b085      	sub	sp, #20
 8004ac8:	af00      	add	r7, sp, #0
 8004aca:	6078      	str	r0, [r7, #4]
  SET_BIT(RCC->APB1ENR1, Periphs);
 8004acc:	4b08      	ldr	r3, [pc, #32]	; (8004af0 <LL_APB1_GRP1_EnableClock+0x2c>)
 8004ace:	6d9a      	ldr	r2, [r3, #88]	; 0x58
 8004ad0:	4907      	ldr	r1, [pc, #28]	; (8004af0 <LL_APB1_GRP1_EnableClock+0x2c>)
 8004ad2:	687b      	ldr	r3, [r7, #4]
 8004ad4:	4313      	orrs	r3, r2
 8004ad6:	658b      	str	r3, [r1, #88]	; 0x58
  tmpreg = READ_BIT(RCC->APB1ENR1, Periphs);
 8004ad8:	4b05      	ldr	r3, [pc, #20]	; (8004af0 <LL_APB1_GRP1_EnableClock+0x2c>)
 8004ada:	6d9a      	ldr	r2, [r3, #88]	; 0x58
 8004adc:	687b      	ldr	r3, [r7, #4]
 8004ade:	4013      	ands	r3, r2
 8004ae0:	60fb      	str	r3, [r7, #12]
  (void)tmpreg;
 8004ae2:	68fb      	ldr	r3, [r7, #12]
}
 8004ae4:	bf00      	nop
 8004ae6:	3714      	adds	r7, #20
 8004ae8:	46bd      	mov	sp, r7
 8004aea:	f85d 7b04 	ldr.w	r7, [sp], #4
 8004aee:	4770      	bx	lr
 8004af0:	40021000 	.word	0x40021000

08004af4 <LL_APB2_GRP1_EnableClock>:
{
 8004af4:	b480      	push	{r7}
 8004af6:	b085      	sub	sp, #20
 8004af8:	af00      	add	r7, sp, #0
 8004afa:	6078      	str	r0, [r7, #4]
  SET_BIT(RCC->APB2ENR, Periphs);
 8004afc:	4b08      	ldr	r3, [pc, #32]	; (8004b20 <LL_APB2_GRP1_EnableClock+0x2c>)
 8004afe:	6e1a      	ldr	r2, [r3, #96]	; 0x60
 8004b00:	4907      	ldr	r1, [pc, #28]	; (8004b20 <LL_APB2_GRP1_EnableClock+0x2c>)
 8004b02:	687b      	ldr	r3, [r7, #4]
 8004b04:	4313      	orrs	r3, r2
 8004b06:	660b      	str	r3, [r1, #96]	; 0x60
  tmpreg = READ_BIT(RCC->APB2ENR, Periphs);
 8004b08:	4b05      	ldr	r3, [pc, #20]	; (8004b20 <LL_APB2_GRP1_EnableClock+0x2c>)
 8004b0a:	6e1a      	ldr	r2, [r3, #96]	; 0x60
 8004b0c:	687b      	ldr	r3, [r7, #4]
 8004b0e:	4013      	ands	r3, r2
 8004b10:	60fb      	str	r3, [r7, #12]
  (void)tmpreg;
 8004b12:	68fb      	ldr	r3, [r7, #12]
}
 8004b14:	bf00      	nop
 8004b16:	3714      	adds	r7, #20
 8004b18:	46bd      	mov	sp, r7
 8004b1a:	f85d 7b04 	ldr.w	r7, [sp], #4
 8004b1e:	4770      	bx	lr
 8004b20:	40021000 	.word	0x40021000

08004b24 <LL_PWR_SetRegulVoltageScaling>:
{
 8004b24:	b480      	push	{r7}
 8004b26:	b083      	sub	sp, #12
 8004b28:	af00      	add	r7, sp, #0
 8004b2a:	6078      	str	r0, [r7, #4]
  MODIFY_REG(PWR->CR1, PWR_CR1_VOS, VoltageScaling);
 8004b2c:	4b06      	ldr	r3, [pc, #24]	; (8004b48 <LL_PWR_SetRegulVoltageScaling+0x24>)
 8004b2e:	681b      	ldr	r3, [r3, #0]
 8004b30:	f423 62c0 	bic.w	r2, r3, #1536	; 0x600
 8004b34:	4904      	ldr	r1, [pc, #16]	; (8004b48 <LL_PWR_SetRegulVoltageScaling+0x24>)
 8004b36:	687b      	ldr	r3, [r7, #4]
 8004b38:	4313      	orrs	r3, r2
 8004b3a:	600b      	str	r3, [r1, #0]
}
 8004b3c:	bf00      	nop
 8004b3e:	370c      	adds	r7, #12
 8004b40:	46bd      	mov	sp, r7
 8004b42:	f85d 7b04 	ldr.w	r7, [sp], #4
 8004b46:	4770      	bx	lr
 8004b48:	40007000 	.word	0x40007000

08004b4c <LL_PWR_EnableRange1BoostMode>:
  * @brief  Enable main regulator voltage range 1 boost mode
  * @rmtoll CR5          R1MODE        LL_PWR_EnableRange1BoostMode
  * @retval None
  */
__STATIC_INLINE void LL_PWR_EnableRange1BoostMode(void)
{
 8004b4c:	b480      	push	{r7}
 8004b4e:	af00      	add	r7, sp, #0
  CLEAR_BIT(PWR->CR5, PWR_CR5_R1MODE);
 8004b50:	4b06      	ldr	r3, [pc, #24]	; (8004b6c <LL_PWR_EnableRange1BoostMode+0x20>)
 8004b52:	f8d3 3080 	ldr.w	r3, [r3, #128]	; 0x80
 8004b56:	4a05      	ldr	r2, [pc, #20]	; (8004b6c <LL_PWR_EnableRange1BoostMode+0x20>)
 8004b58:	f423 7380 	bic.w	r3, r3, #256	; 0x100
 8004b5c:	f8c2 3080 	str.w	r3, [r2, #128]	; 0x80
}
 8004b60:	bf00      	nop
 8004b62:	46bd      	mov	sp, r7
 8004b64:	f85d 7b04 	ldr.w	r7, [sp], #4
 8004b68:	4770      	bx	lr
 8004b6a:	bf00      	nop
 8004b6c:	40007000 	.word	0x40007000

08004b70 <LL_PWR_DisableRange1BoostMode>:
  * @brief  Disable main regulator voltage range 1 boost mode
  * @rmtoll CR5          R1MODE        LL_PWR_DisableRange1BoostMode
  * @retval None
  */
__STATIC_INLINE void LL_PWR_DisableRange1BoostMode(void)
{
 8004b70:	b480      	push	{r7}
 8004b72:	af00      	add	r7, sp, #0
  SET_BIT(PWR->CR5, PWR_CR5_R1MODE);
 8004b74:	4b06      	ldr	r3, [pc, #24]	; (8004b90 <LL_PWR_DisableRange1BoostMode+0x20>)
 8004b76:	f8d3 3080 	ldr.w	r3, [r3, #128]	; 0x80
 8004b7a:	4a05      	ldr	r2, [pc, #20]	; (8004b90 <LL_PWR_DisableRange1BoostMode+0x20>)
 8004b7c:	f443 7380 	orr.w	r3, r3, #256	; 0x100
 8004b80:	f8c2 3080 	str.w	r3, [r2, #128]	; 0x80
}
 8004b84:	bf00      	nop
 8004b86:	46bd      	mov	sp, r7
 8004b88:	f85d 7b04 	ldr.w	r7, [sp], #4
 8004b8c:	4770      	bx	lr
 8004b8e:	bf00      	nop
 8004b90:	40007000 	.word	0x40007000

08004b94 <LL_FLASH_SetLatency>:
{
 8004b94:	b480      	push	{r7}
 8004b96:	b083      	sub	sp, #12
 8004b98:	af00      	add	r7, sp, #0
 8004b9a:	6078      	str	r0, [r7, #4]
  MODIFY_REG(FLASH->ACR, FLASH_ACR_LATENCY, Latency);
 8004b9c:	4b06      	ldr	r3, [pc, #24]	; (8004bb8 <LL_FLASH_SetLatency+0x24>)
 8004b9e:	681b      	ldr	r3, [r3, #0]
 8004ba0:	f023 020f 	bic.w	r2, r3, #15
 8004ba4:	4904      	ldr	r1, [pc, #16]	; (8004bb8 <LL_FLASH_SetLatency+0x24>)
 8004ba6:	687b      	ldr	r3, [r7, #4]
 8004ba8:	4313      	orrs	r3, r2
 8004baa:	600b      	str	r3, [r1, #0]
}
 8004bac:	bf00      	nop
 8004bae:	370c      	adds	r7, #12
 8004bb0:	46bd      	mov	sp, r7
 8004bb2:	f85d 7b04 	ldr.w	r7, [sp], #4
 8004bb6:	4770      	bx	lr
 8004bb8:	40022000 	.word	0x40022000

08004bbc <LL_FLASH_GetLatency>:
{
 8004bbc:	b480      	push	{r7}
 8004bbe:	af00      	add	r7, sp, #0
  return (uint32_t)(READ_BIT(FLASH->ACR, FLASH_ACR_LATENCY));
 8004bc0:	4b04      	ldr	r3, [pc, #16]	; (8004bd4 <LL_FLASH_GetLatency+0x18>)
 8004bc2:	681b      	ldr	r3, [r3, #0]
 8004bc4:	f003 030f 	and.w	r3, r3, #15
}
 8004bc8:	4618      	mov	r0, r3
 8004bca:	46bd      	mov	sp, r7
 8004bcc:	f85d 7b04 	ldr.w	r7, [sp], #4
 8004bd0:	4770      	bx	lr
 8004bd2:	bf00      	nop
 8004bd4:	40022000 	.word	0x40022000

08004bd8 <STRHAL_Init>:

static inline STRHAL_SysClk_Src_t _SysClk_Init(STRHAL_SysClk_Src_t src, uint32_t freq);
static inline STRHAL_SysClk_Src_t _SysClk_Backup();

STRHAL_Oof_t STRHAL_Init(STRHAL_SysClk_Src_t src, uint32_t freq)
{
 8004bd8:	b580      	push	{r7, lr}
 8004bda:	b082      	sub	sp, #8
 8004bdc:	af00      	add	r7, sp, #0
 8004bde:	4603      	mov	r3, r0
 8004be0:	6039      	str	r1, [r7, #0]
 8004be2:	71fb      	strb	r3, [r7, #7]
	if (_INITIALIZED)
 8004be4:	4b21      	ldr	r3, [pc, #132]	; (8004c6c <STRHAL_Init+0x94>)
 8004be6:	681b      	ldr	r3, [r3, #0]
 8004be8:	2b00      	cmp	r3, #0
 8004bea:	d002      	beq.n	8004bf2 <STRHAL_Init+0x1a>
		return _status;
 8004bec:	4b20      	ldr	r3, [pc, #128]	; (8004c70 <STRHAL_Init+0x98>)
 8004bee:	781b      	ldrb	r3, [r3, #0]
 8004bf0:	e037      	b.n	8004c62 <STRHAL_Init+0x8a>

	_status = STRHAL_NOICE;
 8004bf2:	4b1f      	ldr	r3, [pc, #124]	; (8004c70 <STRHAL_Init+0x98>)
 8004bf4:	2200      	movs	r2, #0
 8004bf6:	701a      	strb	r2, [r3, #0]

	NVIC_SetPriorityGrouping(0x03);
 8004bf8:	2003      	movs	r0, #3
 8004bfa:	f7ff fdff 	bl	80047fc <__NVIC_SetPriorityGrouping>
	if (_SysClk_Init(src, freq) != src)
 8004bfe:	79fb      	ldrb	r3, [r7, #7]
 8004c00:	6839      	ldr	r1, [r7, #0]
 8004c02:	4618      	mov	r0, r3
 8004c04:	f000 f836 	bl	8004c74 <_SysClk_Init>
 8004c08:	4603      	mov	r3, r0
 8004c0a:	461a      	mov	r2, r3
 8004c0c:	79fb      	ldrb	r3, [r7, #7]
 8004c0e:	4293      	cmp	r3, r2
 8004c10:	d006      	beq.n	8004c20 <STRHAL_Init+0x48>
		_status |= STRHAL_OOF_SYSCLK;
 8004c12:	4b17      	ldr	r3, [pc, #92]	; (8004c70 <STRHAL_Init+0x98>)
 8004c14:	781b      	ldrb	r3, [r3, #0]
 8004c16:	f043 0301 	orr.w	r3, r3, #1
 8004c1a:	b2da      	uxtb	r2, r3
 8004c1c:	4b14      	ldr	r3, [pc, #80]	; (8004c70 <STRHAL_Init+0x98>)
 8004c1e:	701a      	strb	r2, [r3, #0]

	STRHAL_Clock_Init();
 8004c20:	f001 fd38 	bl	8006694 <STRHAL_Clock_Init>
	STRHAL_SysTick_Init();
 8004c24:	f002 fad8 	bl	80071d8 <STRHAL_SysTick_Init>
	STRHAL_GPIO_Init();
 8004c28:	f001 fd7c 	bl	8006724 <STRHAL_GPIO_Init>
	STRHAL_OPAMP_Init();
 8004c2c:	f001 ff08 	bl	8006a40 <STRHAL_OPAMP_Init>
	STRHAL_UART_Init();
 8004c30:	f003 fbe2 	bl	80083f8 <STRHAL_UART_Init>
	STRHAL_ADC_Init();
 8004c34:	f000 fc84 	bl	8005540 <STRHAL_ADC_Init>
	STRHAL_TIM_Init();
 8004c38:	f002 fd25 	bl	8007686 <STRHAL_TIM_Init>
	STRHAL_SPI_Init();
 8004c3c:	f002 fa76 	bl	800712c <STRHAL_SPI_Init>
	_status |= STRHAL_CAN_Init();
 8004c40:	f001 fa62 	bl	8006108 <STRHAL_CAN_Init>
 8004c44:	4603      	mov	r3, r0
 8004c46:	461a      	mov	r2, r3
 8004c48:	4b09      	ldr	r3, [pc, #36]	; (8004c70 <STRHAL_Init+0x98>)
 8004c4a:	781b      	ldrb	r3, [r3, #0]
 8004c4c:	4313      	orrs	r3, r2
 8004c4e:	b2da      	uxtb	r2, r3
 8004c50:	4b07      	ldr	r3, [pc, #28]	; (8004c70 <STRHAL_Init+0x98>)
 8004c52:	701a      	strb	r2, [r3, #0]
	STRHAL_QSPI_Init();
 8004c54:	f001 ffa0 	bl	8006b98 <STRHAL_QSPI_Init>

	_INITIALIZED = 1;
 8004c58:	4b04      	ldr	r3, [pc, #16]	; (8004c6c <STRHAL_Init+0x94>)
 8004c5a:	2201      	movs	r2, #1
 8004c5c:	601a      	str	r2, [r3, #0]

	return _status;
 8004c5e:	4b04      	ldr	r3, [pc, #16]	; (8004c70 <STRHAL_Init+0x98>)
 8004c60:	781b      	ldrb	r3, [r3, #0]
}
 8004c62:	4618      	mov	r0, r3
 8004c64:	3708      	adds	r7, #8
 8004c66:	46bd      	mov	sp, r7
 8004c68:	bd80      	pop	{r7, pc}
 8004c6a:	bf00      	nop
 8004c6c:	20000a60 	.word	0x20000a60
 8004c70:	20000a64 	.word	0x20000a64

08004c74 <_SysClk_Init>:

inline STRHAL_SysClk_Src_t _SysClk_Init(STRHAL_SysClk_Src_t src, uint32_t freq)
{
 8004c74:	b580      	push	{r7, lr}
 8004c76:	b084      	sub	sp, #16
 8004c78:	af00      	add	r7, sp, #0
 8004c7a:	4603      	mov	r3, r0
 8004c7c:	6039      	str	r1, [r7, #0]
 8004c7e:	71fb      	strb	r3, [r7, #7]
	uint32_t tot;
	if (src == STRHAL_SYSCLK_SRC_INT)
 8004c80:	79fb      	ldrb	r3, [r7, #7]
 8004c82:	2b01      	cmp	r3, #1
 8004c84:	d164      	bne.n	8004d50 <_SysClk_Init+0xdc>
	{
		if (LL_SetFlashLatency(STRHAL_SYSCLK_FREQ) != SUCCESS)
 8004c86:	487c      	ldr	r0, [pc, #496]	; (8004e78 <_SysClk_Init+0x204>)
 8004c88:	f7ff fd24 	bl	80046d4 <LL_SetFlashLatency>
 8004c8c:	4603      	mov	r3, r0
 8004c8e:	2b00      	cmp	r3, #0
 8004c90:	d003      	beq.n	8004c9a <_SysClk_Init+0x26>
			return _SysClk_Backup();
 8004c92:	f000 f8f9 	bl	8004e88 <_SysClk_Backup>
 8004c96:	4603      	mov	r3, r0
 8004c98:	e0ea      	b.n	8004e70 <_SysClk_Init+0x1fc>

		LL_PWR_EnableRange1BoostMode();
 8004c9a:	f7ff ff57 	bl	8004b4c <LL_PWR_EnableRange1BoostMode>

		LL_RCC_PLL_Disable();
 8004c9e:	f7ff febd 	bl	8004a1c <LL_RCC_PLL_Disable>
		LL_RCC_HSI_Enable();
 8004ca2:	f7ff fe13 	bl	80048cc <LL_RCC_HSI_Enable>

		for (tot = 0; LL_RCC_PLL_IsReady() && !LL_RCC_HSI_IsReady(); ++tot)
 8004ca6:	2300      	movs	r3, #0
 8004ca8:	60fb      	str	r3, [r7, #12]
 8004caa:	e00a      	b.n	8004cc2 <_SysClk_Init+0x4e>
		{
			if (tot > STRHAL_SYSCLK_START_TOT)
 8004cac:	68fb      	ldr	r3, [r7, #12]
 8004cae:	4a73      	ldr	r2, [pc, #460]	; (8004e7c <_SysClk_Init+0x208>)
 8004cb0:	4293      	cmp	r3, r2
 8004cb2:	d903      	bls.n	8004cbc <_SysClk_Init+0x48>
				return _SysClk_Backup();
 8004cb4:	f000 f8e8 	bl	8004e88 <_SysClk_Backup>
 8004cb8:	4603      	mov	r3, r0
 8004cba:	e0d9      	b.n	8004e70 <_SysClk_Init+0x1fc>
		for (tot = 0; LL_RCC_PLL_IsReady() && !LL_RCC_HSI_IsReady(); ++tot)
 8004cbc:	68fb      	ldr	r3, [r7, #12]
 8004cbe:	3301      	adds	r3, #1
 8004cc0:	60fb      	str	r3, [r7, #12]
 8004cc2:	f7ff febb 	bl	8004a3c <LL_RCC_PLL_IsReady>
 8004cc6:	4603      	mov	r3, r0
 8004cc8:	2b00      	cmp	r3, #0
 8004cca:	d004      	beq.n	8004cd6 <_SysClk_Init+0x62>
 8004ccc:	f7ff fe0e 	bl	80048ec <LL_RCC_HSI_IsReady>
 8004cd0:	4603      	mov	r3, r0
 8004cd2:	2b00      	cmp	r3, #0
 8004cd4:	d0ea      	beq.n	8004cac <_SysClk_Init+0x38>
		}

		LL_RCC_PLL_ConfigDomain_SYS(LL_RCC_PLLSOURCE_HSI,
 8004cd6:	2300      	movs	r3, #0
 8004cd8:	2228      	movs	r2, #40	; 0x28
 8004cda:	2110      	movs	r1, #16
 8004cdc:	2002      	movs	r0, #2
 8004cde:	f7ff fec1 	bl	8004a64 <LL_RCC_PLL_ConfigDomain_SYS>
		STRHAL_SYSCLK_INT_PLL_M, 4 * STRHAL_SYSCLK_FREQ / HSI_VALUE,
		STRHAL_SYSCLK_INT_PLL_R);

		LL_RCC_PLL_EnableDomain_SYS();
 8004ce2:	f7ff fedf 	bl	8004aa4 <LL_RCC_PLL_EnableDomain_SYS>
		LL_RCC_PLL_Enable();
 8004ce6:	f7ff fe89 	bl	80049fc <LL_RCC_PLL_Enable>

		for (tot = 0; !LL_RCC_PLL_IsReady(); ++tot)
 8004cea:	2300      	movs	r3, #0
 8004cec:	60fb      	str	r3, [r7, #12]
 8004cee:	e00a      	b.n	8004d06 <_SysClk_Init+0x92>
		{
			if (tot > STRHAL_SYSCLK_START_TOT)
 8004cf0:	68fb      	ldr	r3, [r7, #12]
 8004cf2:	4a62      	ldr	r2, [pc, #392]	; (8004e7c <_SysClk_Init+0x208>)
 8004cf4:	4293      	cmp	r3, r2
 8004cf6:	d903      	bls.n	8004d00 <_SysClk_Init+0x8c>
				return _SysClk_Backup();
 8004cf8:	f000 f8c6 	bl	8004e88 <_SysClk_Backup>
 8004cfc:	4603      	mov	r3, r0
 8004cfe:	e0b7      	b.n	8004e70 <_SysClk_Init+0x1fc>
		for (tot = 0; !LL_RCC_PLL_IsReady(); ++tot)
 8004d00:	68fb      	ldr	r3, [r7, #12]
 8004d02:	3301      	adds	r3, #1
 8004d04:	60fb      	str	r3, [r7, #12]
 8004d06:	f7ff fe99 	bl	8004a3c <LL_RCC_PLL_IsReady>
 8004d0a:	4603      	mov	r3, r0
 8004d0c:	2b00      	cmp	r3, #0
 8004d0e:	d0ef      	beq.n	8004cf0 <_SysClk_Init+0x7c>
		}
		LL_RCC_SetSysClkSource(LL_RCC_SYS_CLKSOURCE_PLL);
 8004d10:	2003      	movs	r0, #3
 8004d12:	f7ff fe15 	bl	8004940 <LL_RCC_SetSysClkSource>

		for (tot = 0; LL_RCC_GetSysClkSource() != LL_RCC_SYS_CLKSOURCE_STATUS_PLL; ++tot)
 8004d16:	2300      	movs	r3, #0
 8004d18:	60fb      	str	r3, [r7, #12]
 8004d1a:	e00a      	b.n	8004d32 <_SysClk_Init+0xbe>
		{
			if (tot > STRHAL_SYSCLK_START_TOT)
 8004d1c:	68fb      	ldr	r3, [r7, #12]
 8004d1e:	4a57      	ldr	r2, [pc, #348]	; (8004e7c <_SysClk_Init+0x208>)
 8004d20:	4293      	cmp	r3, r2
 8004d22:	d903      	bls.n	8004d2c <_SysClk_Init+0xb8>
				return _SysClk_Backup();
 8004d24:	f000 f8b0 	bl	8004e88 <_SysClk_Backup>
 8004d28:	4603      	mov	r3, r0
 8004d2a:	e0a1      	b.n	8004e70 <_SysClk_Init+0x1fc>
		for (tot = 0; LL_RCC_GetSysClkSource() != LL_RCC_SYS_CLKSOURCE_STATUS_PLL; ++tot)
 8004d2c:	68fb      	ldr	r3, [r7, #12]
 8004d2e:	3301      	adds	r3, #1
 8004d30:	60fb      	str	r3, [r7, #12]
 8004d32:	f7ff fe19 	bl	8004968 <LL_RCC_GetSysClkSource>
 8004d36:	4603      	mov	r3, r0
 8004d38:	2b0c      	cmp	r3, #12
 8004d3a:	d1ef      	bne.n	8004d1c <_SysClk_Init+0xa8>
		}

		LL_Init1msTick(STRHAL_SYSCLK_FREQ);
 8004d3c:	484e      	ldr	r0, [pc, #312]	; (8004e78 <_SysClk_Init+0x204>)
 8004d3e:	f7ff fc83 	bl	8004648 <LL_Init1msTick>
		LL_SetSystemCoreClock(STRHAL_SYSCLK_FREQ);
 8004d42:	484d      	ldr	r0, [pc, #308]	; (8004e78 <_SysClk_Init+0x204>)
 8004d44:	f7ff fcb6 	bl	80046b4 <LL_SetSystemCoreClock>
		_SysClk_Src = STRHAL_SYSCLK_SRC_INT;
 8004d48:	4b4d      	ldr	r3, [pc, #308]	; (8004e80 <_SysClk_Init+0x20c>)
 8004d4a:	2201      	movs	r2, #1
 8004d4c:	701a      	strb	r2, [r3, #0]
 8004d4e:	e084      	b.n	8004e5a <_SysClk_Init+0x1e6>
	}
	else if (src == STRHAL_SYSCLK_SRC_EXT)
 8004d50:	79fb      	ldrb	r3, [r7, #7]
 8004d52:	2b02      	cmp	r3, #2
 8004d54:	f040 8081 	bne.w	8004e5a <_SysClk_Init+0x1e6>
	{
		if (LL_SetFlashLatency(STRHAL_SYSCLK_FREQ) != SUCCESS)
 8004d58:	4847      	ldr	r0, [pc, #284]	; (8004e78 <_SysClk_Init+0x204>)
 8004d5a:	f7ff fcbb 	bl	80046d4 <LL_SetFlashLatency>
 8004d5e:	4603      	mov	r3, r0
 8004d60:	2b00      	cmp	r3, #0
 8004d62:	d003      	beq.n	8004d6c <_SysClk_Init+0xf8>
			return _SysClk_Backup();
 8004d64:	f000 f890 	bl	8004e88 <_SysClk_Backup>
 8004d68:	4603      	mov	r3, r0
 8004d6a:	e081      	b.n	8004e70 <_SysClk_Init+0x1fc>

		LL_RCC_PLL_Disable();
 8004d6c:	f7ff fe56 	bl	8004a1c <LL_RCC_PLL_Disable>
		if (LL_RCC_HSE_IsReady())
 8004d70:	f7ff fd98 	bl	80048a4 <LL_RCC_HSE_IsReady>
 8004d74:	4603      	mov	r3, r0
 8004d76:	2b00      	cmp	r3, #0
 8004d78:	d014      	beq.n	8004da4 <_SysClk_Init+0x130>
		{
			LL_RCC_HSE_Disable();
 8004d7a:	f7ff fd83 	bl	8004884 <LL_RCC_HSE_Disable>

			for (tot = 0; LL_RCC_HSE_IsReady(); ++tot)
 8004d7e:	2300      	movs	r3, #0
 8004d80:	60fb      	str	r3, [r7, #12]
 8004d82:	e00a      	b.n	8004d9a <_SysClk_Init+0x126>
			{
				if (tot > STRHAL_SYSCLK_START_TOT)
 8004d84:	68fb      	ldr	r3, [r7, #12]
 8004d86:	4a3d      	ldr	r2, [pc, #244]	; (8004e7c <_SysClk_Init+0x208>)
 8004d88:	4293      	cmp	r3, r2
 8004d8a:	d903      	bls.n	8004d94 <_SysClk_Init+0x120>
					return _SysClk_Backup();
 8004d8c:	f000 f87c 	bl	8004e88 <_SysClk_Backup>
 8004d90:	4603      	mov	r3, r0
 8004d92:	e06d      	b.n	8004e70 <_SysClk_Init+0x1fc>
			for (tot = 0; LL_RCC_HSE_IsReady(); ++tot)
 8004d94:	68fb      	ldr	r3, [r7, #12]
 8004d96:	3301      	adds	r3, #1
 8004d98:	60fb      	str	r3, [r7, #12]
 8004d9a:	f7ff fd83 	bl	80048a4 <LL_RCC_HSE_IsReady>
 8004d9e:	4603      	mov	r3, r0
 8004da0:	2b00      	cmp	r3, #0
 8004da2:	d1ef      	bne.n	8004d84 <_SysClk_Init+0x110>
			}
		}

		LL_RCC_HSE_EnableBypass();
 8004da4:	f7ff fd4e 	bl	8004844 <LL_RCC_HSE_EnableBypass>
		LL_RCC_HSE_Enable();
 8004da8:	f7ff fd5c 	bl	8004864 <LL_RCC_HSE_Enable>

		for (tot = 0; LL_RCC_PLL_IsReady() && !LL_RCC_HSE_IsReady(); ++tot)
 8004dac:	2300      	movs	r3, #0
 8004dae:	60fb      	str	r3, [r7, #12]
 8004db0:	e00a      	b.n	8004dc8 <_SysClk_Init+0x154>
		{
			if (tot > STRHAL_SYSCLK_START_TOT)
 8004db2:	68fb      	ldr	r3, [r7, #12]
 8004db4:	4a31      	ldr	r2, [pc, #196]	; (8004e7c <_SysClk_Init+0x208>)
 8004db6:	4293      	cmp	r3, r2
 8004db8:	d903      	bls.n	8004dc2 <_SysClk_Init+0x14e>
				return _SysClk_Backup();
 8004dba:	f000 f865 	bl	8004e88 <_SysClk_Backup>
 8004dbe:	4603      	mov	r3, r0
 8004dc0:	e056      	b.n	8004e70 <_SysClk_Init+0x1fc>
		for (tot = 0; LL_RCC_PLL_IsReady() && !LL_RCC_HSE_IsReady(); ++tot)
 8004dc2:	68fb      	ldr	r3, [r7, #12]
 8004dc4:	3301      	adds	r3, #1
 8004dc6:	60fb      	str	r3, [r7, #12]
 8004dc8:	f7ff fe38 	bl	8004a3c <LL_RCC_PLL_IsReady>
 8004dcc:	4603      	mov	r3, r0
 8004dce:	2b00      	cmp	r3, #0
 8004dd0:	d004      	beq.n	8004ddc <_SysClk_Init+0x168>
 8004dd2:	f7ff fd67 	bl	80048a4 <LL_RCC_HSE_IsReady>
 8004dd6:	4603      	mov	r3, r0
 8004dd8:	2b00      	cmp	r3, #0
 8004dda:	d0ea      	beq.n	8004db2 <_SysClk_Init+0x13e>
		}

		LL_RCC_PLL_ConfigDomain_SYS(LL_RCC_PLLSOURCE_HSE,
 8004ddc:	4a29      	ldr	r2, [pc, #164]	; (8004e84 <_SysClk_Init+0x210>)
 8004dde:	683b      	ldr	r3, [r7, #0]
 8004de0:	fbb2 f2f3 	udiv	r2, r2, r3
 8004de4:	2300      	movs	r3, #0
 8004de6:	2100      	movs	r1, #0
 8004de8:	2003      	movs	r0, #3
 8004dea:	f7ff fe3b 	bl	8004a64 <LL_RCC_PLL_ConfigDomain_SYS>
		STRHAL_SYSCLK_EXT_PLL_M, 2 * STRHAL_SYSCLK_FREQ / freq,
		STRHAL_SYSCLK_EXT_PLL_R);

		LL_RCC_PLL_EnableDomain_SYS();
 8004dee:	f7ff fe59 	bl	8004aa4 <LL_RCC_PLL_EnableDomain_SYS>
		LL_RCC_PLL_Enable();
 8004df2:	f7ff fe03 	bl	80049fc <LL_RCC_PLL_Enable>

		for (tot = 0; !LL_RCC_PLL_IsReady(); ++tot)
 8004df6:	2300      	movs	r3, #0
 8004df8:	60fb      	str	r3, [r7, #12]
 8004dfa:	e00a      	b.n	8004e12 <_SysClk_Init+0x19e>
		{
			if (tot > STRHAL_SYSCLK_START_TOT)
 8004dfc:	68fb      	ldr	r3, [r7, #12]
 8004dfe:	4a1f      	ldr	r2, [pc, #124]	; (8004e7c <_SysClk_Init+0x208>)
 8004e00:	4293      	cmp	r3, r2
 8004e02:	d903      	bls.n	8004e0c <_SysClk_Init+0x198>
				return _SysClk_Backup();
 8004e04:	f000 f840 	bl	8004e88 <_SysClk_Backup>
 8004e08:	4603      	mov	r3, r0
 8004e0a:	e031      	b.n	8004e70 <_SysClk_Init+0x1fc>
		for (tot = 0; !LL_RCC_PLL_IsReady(); ++tot)
 8004e0c:	68fb      	ldr	r3, [r7, #12]
 8004e0e:	3301      	adds	r3, #1
 8004e10:	60fb      	str	r3, [r7, #12]
 8004e12:	f7ff fe13 	bl	8004a3c <LL_RCC_PLL_IsReady>
 8004e16:	4603      	mov	r3, r0
 8004e18:	2b00      	cmp	r3, #0
 8004e1a:	d0ef      	beq.n	8004dfc <_SysClk_Init+0x188>
		}
		LL_RCC_SetSysClkSource(LL_RCC_SYS_CLKSOURCE_PLL);
 8004e1c:	2003      	movs	r0, #3
 8004e1e:	f7ff fd8f 	bl	8004940 <LL_RCC_SetSysClkSource>

		for (tot = 0; LL_RCC_GetSysClkSource() != LL_RCC_SYS_CLKSOURCE_STATUS_PLL; ++tot)
 8004e22:	2300      	movs	r3, #0
 8004e24:	60fb      	str	r3, [r7, #12]
 8004e26:	e00a      	b.n	8004e3e <_SysClk_Init+0x1ca>
		{
			if (tot > STRHAL_SYSCLK_START_TOT)
 8004e28:	68fb      	ldr	r3, [r7, #12]
 8004e2a:	4a14      	ldr	r2, [pc, #80]	; (8004e7c <_SysClk_Init+0x208>)
 8004e2c:	4293      	cmp	r3, r2
 8004e2e:	d903      	bls.n	8004e38 <_SysClk_Init+0x1c4>
				return _SysClk_Backup();
 8004e30:	f000 f82a 	bl	8004e88 <_SysClk_Backup>
 8004e34:	4603      	mov	r3, r0
 8004e36:	e01b      	b.n	8004e70 <_SysClk_Init+0x1fc>
		for (tot = 0; LL_RCC_GetSysClkSource() != LL_RCC_SYS_CLKSOURCE_STATUS_PLL; ++tot)
 8004e38:	68fb      	ldr	r3, [r7, #12]
 8004e3a:	3301      	adds	r3, #1
 8004e3c:	60fb      	str	r3, [r7, #12]
 8004e3e:	f7ff fd93 	bl	8004968 <LL_RCC_GetSysClkSource>
 8004e42:	4603      	mov	r3, r0
 8004e44:	2b0c      	cmp	r3, #12
 8004e46:	d1ef      	bne.n	8004e28 <_SysClk_Init+0x1b4>
		}

		LL_Init1msTick(STRHAL_SYSCLK_FREQ);
 8004e48:	480b      	ldr	r0, [pc, #44]	; (8004e78 <_SysClk_Init+0x204>)
 8004e4a:	f7ff fbfd 	bl	8004648 <LL_Init1msTick>
		LL_SetSystemCoreClock(STRHAL_SYSCLK_FREQ);
 8004e4e:	480a      	ldr	r0, [pc, #40]	; (8004e78 <_SysClk_Init+0x204>)
 8004e50:	f7ff fc30 	bl	80046b4 <LL_SetSystemCoreClock>
		_SysClk_Src = STRHAL_SYSCLK_SRC_EXT;
 8004e54:	4b0a      	ldr	r3, [pc, #40]	; (8004e80 <_SysClk_Init+0x20c>)
 8004e56:	2202      	movs	r2, #2
 8004e58:	701a      	strb	r2, [r3, #0]
	}

	LL_RCC_SetAHBPrescaler(LL_RCC_SYSCLK_DIV_1);
 8004e5a:	2000      	movs	r0, #0
 8004e5c:	f7ff fd92 	bl	8004984 <LL_RCC_SetAHBPrescaler>
	LL_RCC_SetAPB1Prescaler(LL_RCC_APB1_DIV_1);
 8004e60:	2000      	movs	r0, #0
 8004e62:	f7ff fda3 	bl	80049ac <LL_RCC_SetAPB1Prescaler>
	LL_RCC_SetAPB2Prescaler(LL_RCC_APB2_DIV_1);
 8004e66:	2000      	movs	r0, #0
 8004e68:	f7ff fdb4 	bl	80049d4 <LL_RCC_SetAPB2Prescaler>
	return _SysClk_Src;
 8004e6c:	4b04      	ldr	r3, [pc, #16]	; (8004e80 <_SysClk_Init+0x20c>)
 8004e6e:	781b      	ldrb	r3, [r3, #0]
}
 8004e70:	4618      	mov	r0, r3
 8004e72:	3710      	adds	r7, #16
 8004e74:	46bd      	mov	sp, r7
 8004e76:	bd80      	pop	{r7, pc}
 8004e78:	09896800 	.word	0x09896800
 8004e7c:	00f42400 	.word	0x00f42400
 8004e80:	20000a5c 	.word	0x20000a5c
 8004e84:	1312d000 	.word	0x1312d000

08004e88 <_SysClk_Backup>:

inline STRHAL_SysClk_Src_t _SysClk_Backup()
{
 8004e88:	b580      	push	{r7, lr}
 8004e8a:	af00      	add	r7, sp, #0
	LL_APB2_GRP1_EnableClock(LL_APB2_GRP1_PERIPH_SYSCFG);
 8004e8c:	2001      	movs	r0, #1
 8004e8e:	f7ff fe31 	bl	8004af4 <LL_APB2_GRP1_EnableClock>
	LL_APB1_GRP1_EnableClock(LL_APB1_GRP1_PERIPH_PWR);
 8004e92:	f04f 5080 	mov.w	r0, #268435456	; 0x10000000
 8004e96:	f7ff fe15 	bl	8004ac4 <LL_APB1_GRP1_EnableClock>

	LL_FLASH_SetLatency(LL_FLASH_LATENCY_0);
 8004e9a:	2000      	movs	r0, #0
 8004e9c:	f7ff fe7a 	bl	8004b94 <LL_FLASH_SetLatency>
	while (LL_FLASH_GetLatency() != LL_FLASH_LATENCY_0);
 8004ea0:	bf00      	nop
 8004ea2:	f7ff fe8b 	bl	8004bbc <LL_FLASH_GetLatency>
 8004ea6:	4603      	mov	r3, r0
 8004ea8:	2b00      	cmp	r3, #0
 8004eaa:	d1fa      	bne.n	8004ea2 <_SysClk_Backup+0x1a>

	LL_PWR_SetRegulVoltageScaling(LL_PWR_REGU_VOLTAGE_SCALE1);
 8004eac:	f44f 7000 	mov.w	r0, #512	; 0x200
 8004eb0:	f7ff fe38 	bl	8004b24 <LL_PWR_SetRegulVoltageScaling>
	LL_PWR_DisableRange1BoostMode();
 8004eb4:	f7ff fe5c 	bl	8004b70 <LL_PWR_DisableRange1BoostMode>

	LL_RCC_HSI_Enable();
 8004eb8:	f7ff fd08 	bl	80048cc <LL_RCC_HSI_Enable>
	while (!LL_RCC_HSI_IsReady());
 8004ebc:	bf00      	nop
 8004ebe:	f7ff fd15 	bl	80048ec <LL_RCC_HSI_IsReady>
 8004ec2:	4603      	mov	r3, r0
 8004ec4:	2b00      	cmp	r3, #0
 8004ec6:	d0fa      	beq.n	8004ebe <_SysClk_Backup+0x36>

	LL_RCC_HSI_SetCalibTrimming(64);
 8004ec8:	2040      	movs	r0, #64	; 0x40
 8004eca:	f7ff fd23 	bl	8004914 <LL_RCC_HSI_SetCalibTrimming>

	LL_RCC_SetSysClkSource(LL_RCC_SYS_CLKSOURCE_HSI);
 8004ece:	2001      	movs	r0, #1
 8004ed0:	f7ff fd36 	bl	8004940 <LL_RCC_SetSysClkSource>
	while (LL_RCC_GetSysClkSource() != LL_RCC_SYS_CLKSOURCE_STATUS_HSI);
 8004ed4:	bf00      	nop
 8004ed6:	f7ff fd47 	bl	8004968 <LL_RCC_GetSysClkSource>
 8004eda:	4603      	mov	r3, r0
 8004edc:	2b04      	cmp	r3, #4
 8004ede:	d1fa      	bne.n	8004ed6 <_SysClk_Backup+0x4e>

	/* Set AHB prescaler*/
	LL_RCC_SetAHBPrescaler(LL_RCC_SYSCLK_DIV_1);
 8004ee0:	2000      	movs	r0, #0
 8004ee2:	f7ff fd4f 	bl	8004984 <LL_RCC_SetAHBPrescaler>
	LL_RCC_SetAPB1Prescaler(LL_RCC_APB1_DIV_1);
 8004ee6:	2000      	movs	r0, #0
 8004ee8:	f7ff fd60 	bl	80049ac <LL_RCC_SetAPB1Prescaler>
	LL_RCC_SetAPB2Prescaler(LL_RCC_APB2_DIV_1);
 8004eec:	2000      	movs	r0, #0
 8004eee:	f7ff fd71 	bl	80049d4 <LL_RCC_SetAPB2Prescaler>

	LL_Init1msTick(HSI_VALUE);
 8004ef2:	4806      	ldr	r0, [pc, #24]	; (8004f0c <_SysClk_Backup+0x84>)
 8004ef4:	f7ff fba8 	bl	8004648 <LL_Init1msTick>
	LL_SetSystemCoreClock(HSI_VALUE);
 8004ef8:	4804      	ldr	r0, [pc, #16]	; (8004f0c <_SysClk_Backup+0x84>)
 8004efa:	f7ff fbdb 	bl	80046b4 <LL_SetSystemCoreClock>

	_SysClk_Src = STRHAL_SYSCLK_SRC_BKP;
 8004efe:	4b04      	ldr	r3, [pc, #16]	; (8004f10 <_SysClk_Backup+0x88>)
 8004f00:	2200      	movs	r2, #0
 8004f02:	701a      	strb	r2, [r3, #0]

	return _SysClk_Src;
 8004f04:	4b02      	ldr	r3, [pc, #8]	; (8004f10 <_SysClk_Backup+0x88>)
 8004f06:	781b      	ldrb	r3, [r3, #0]
}
 8004f08:	4618      	mov	r0, r3
 8004f0a:	bd80      	pop	{r7, pc}
 8004f0c:	00f42400 	.word	0x00f42400
 8004f10:	20000a5c 	.word	0x20000a5c

08004f14 <LL_ADC_DMA_GetRegAddr>:
{
 8004f14:	b480      	push	{r7}
 8004f16:	b085      	sub	sp, #20
 8004f18:	af00      	add	r7, sp, #0
 8004f1a:	6078      	str	r0, [r7, #4]
 8004f1c:	6039      	str	r1, [r7, #0]
  if (Register == LL_ADC_DMA_REG_REGULAR_DATA)
 8004f1e:	683b      	ldr	r3, [r7, #0]
 8004f20:	2b00      	cmp	r3, #0
 8004f22:	d103      	bne.n	8004f2c <LL_ADC_DMA_GetRegAddr+0x18>
    data_reg_addr = (uint32_t) &(ADCx->DR);
 8004f24:	687b      	ldr	r3, [r7, #4]
 8004f26:	3340      	adds	r3, #64	; 0x40
 8004f28:	60fb      	str	r3, [r7, #12]
 8004f2a:	e00c      	b.n	8004f46 <LL_ADC_DMA_GetRegAddr+0x32>
    data_reg_addr = (uint32_t) &((__LL_ADC_COMMON_INSTANCE(ADCx))->CDR);
 8004f2c:	687b      	ldr	r3, [r7, #4]
 8004f2e:	f1b3 4fa0 	cmp.w	r3, #1342177280	; 0x50000000
 8004f32:	d003      	beq.n	8004f3c <LL_ADC_DMA_GetRegAddr+0x28>
 8004f34:	687b      	ldr	r3, [r7, #4]
 8004f36:	4a07      	ldr	r2, [pc, #28]	; (8004f54 <LL_ADC_DMA_GetRegAddr+0x40>)
 8004f38:	4293      	cmp	r3, r2
 8004f3a:	d101      	bne.n	8004f40 <LL_ADC_DMA_GetRegAddr+0x2c>
 8004f3c:	4b06      	ldr	r3, [pc, #24]	; (8004f58 <LL_ADC_DMA_GetRegAddr+0x44>)
 8004f3e:	e000      	b.n	8004f42 <LL_ADC_DMA_GetRegAddr+0x2e>
 8004f40:	4b06      	ldr	r3, [pc, #24]	; (8004f5c <LL_ADC_DMA_GetRegAddr+0x48>)
 8004f42:	330c      	adds	r3, #12
 8004f44:	60fb      	str	r3, [r7, #12]
  return data_reg_addr;
 8004f46:	68fb      	ldr	r3, [r7, #12]
}
 8004f48:	4618      	mov	r0, r3
 8004f4a:	3714      	adds	r7, #20
 8004f4c:	46bd      	mov	sp, r7
 8004f4e:	f85d 7b04 	ldr.w	r7, [sp], #4
 8004f52:	4770      	bx	lr
 8004f54:	50000100 	.word	0x50000100
 8004f58:	50000300 	.word	0x50000300
 8004f5c:	50000700 	.word	0x50000700

08004f60 <LL_ADC_SetGainCompensation>:
{
 8004f60:	b480      	push	{r7}
 8004f62:	b083      	sub	sp, #12
 8004f64:	af00      	add	r7, sp, #0
 8004f66:	6078      	str	r0, [r7, #4]
 8004f68:	6039      	str	r1, [r7, #0]
  MODIFY_REG(ADCx->GCOMP, ADC_GCOMP_GCOMPCOEFF, GainCompensation);
 8004f6a:	687b      	ldr	r3, [r7, #4]
 8004f6c:	f8d3 30c0 	ldr.w	r3, [r3, #192]	; 0xc0
 8004f70:	f423 537f 	bic.w	r3, r3, #16320	; 0x3fc0
 8004f74:	f023 033f 	bic.w	r3, r3, #63	; 0x3f
 8004f78:	683a      	ldr	r2, [r7, #0]
 8004f7a:	431a      	orrs	r2, r3
 8004f7c:	687b      	ldr	r3, [r7, #4]
 8004f7e:	f8c3 20c0 	str.w	r2, [r3, #192]	; 0xc0
  MODIFY_REG(ADCx->CFGR2, ADC_CFGR2_GCOMP, ((GainCompensation == 0UL) ? 0UL : 1UL) << ADC_CFGR2_GCOMP_Pos);
 8004f82:	687b      	ldr	r3, [r7, #4]
 8004f84:	691b      	ldr	r3, [r3, #16]
 8004f86:	f423 3380 	bic.w	r3, r3, #65536	; 0x10000
 8004f8a:	683a      	ldr	r2, [r7, #0]
 8004f8c:	2a00      	cmp	r2, #0
 8004f8e:	d002      	beq.n	8004f96 <LL_ADC_SetGainCompensation+0x36>
 8004f90:	f44f 3280 	mov.w	r2, #65536	; 0x10000
 8004f94:	e000      	b.n	8004f98 <LL_ADC_SetGainCompensation+0x38>
 8004f96:	2200      	movs	r2, #0
 8004f98:	431a      	orrs	r2, r3
 8004f9a:	687b      	ldr	r3, [r7, #4]
 8004f9c:	611a      	str	r2, [r3, #16]
}
 8004f9e:	bf00      	nop
 8004fa0:	370c      	adds	r7, #12
 8004fa2:	46bd      	mov	sp, r7
 8004fa4:	f85d 7b04 	ldr.w	r7, [sp], #4
 8004fa8:	4770      	bx	lr

08004faa <LL_ADC_REG_SetSequencerLength>:
{
 8004faa:	b480      	push	{r7}
 8004fac:	b083      	sub	sp, #12
 8004fae:	af00      	add	r7, sp, #0
 8004fb0:	6078      	str	r0, [r7, #4]
 8004fb2:	6039      	str	r1, [r7, #0]
  MODIFY_REG(ADCx->SQR1, ADC_SQR1_L, SequencerNbRanks);
 8004fb4:	687b      	ldr	r3, [r7, #4]
 8004fb6:	6b1b      	ldr	r3, [r3, #48]	; 0x30
 8004fb8:	f023 020f 	bic.w	r2, r3, #15
 8004fbc:	683b      	ldr	r3, [r7, #0]
 8004fbe:	431a      	orrs	r2, r3
 8004fc0:	687b      	ldr	r3, [r7, #4]
 8004fc2:	631a      	str	r2, [r3, #48]	; 0x30
}
 8004fc4:	bf00      	nop
 8004fc6:	370c      	adds	r7, #12
 8004fc8:	46bd      	mov	sp, r7
 8004fca:	f85d 7b04 	ldr.w	r7, [sp], #4
 8004fce:	4770      	bx	lr

08004fd0 <LL_ADC_REG_SetSequencerRanks>:
{
 8004fd0:	b480      	push	{r7}
 8004fd2:	b087      	sub	sp, #28
 8004fd4:	af00      	add	r7, sp, #0
 8004fd6:	60f8      	str	r0, [r7, #12]
 8004fd8:	60b9      	str	r1, [r7, #8]
 8004fda:	607a      	str	r2, [r7, #4]
  __IO uint32_t *preg = __ADC_PTR_REG_OFFSET(ADCx->SQR1, ((Rank & ADC_REG_SQRX_REGOFFSET_MASK) >> ADC_SQRX_REGOFFSET_POS));
 8004fdc:	68fb      	ldr	r3, [r7, #12]
 8004fde:	3330      	adds	r3, #48	; 0x30
 8004fe0:	461a      	mov	r2, r3
 8004fe2:	68bb      	ldr	r3, [r7, #8]
 8004fe4:	0a1b      	lsrs	r3, r3, #8
 8004fe6:	009b      	lsls	r3, r3, #2
 8004fe8:	f003 030c 	and.w	r3, r3, #12
 8004fec:	4413      	add	r3, r2
 8004fee:	617b      	str	r3, [r7, #20]
  MODIFY_REG(*preg,
 8004ff0:	697b      	ldr	r3, [r7, #20]
 8004ff2:	681a      	ldr	r2, [r3, #0]
 8004ff4:	68bb      	ldr	r3, [r7, #8]
 8004ff6:	f003 031f 	and.w	r3, r3, #31
 8004ffa:	211f      	movs	r1, #31
 8004ffc:	fa01 f303 	lsl.w	r3, r1, r3
 8005000:	43db      	mvns	r3, r3
 8005002:	401a      	ands	r2, r3
 8005004:	687b      	ldr	r3, [r7, #4]
 8005006:	0e9b      	lsrs	r3, r3, #26
 8005008:	f003 011f 	and.w	r1, r3, #31
 800500c:	68bb      	ldr	r3, [r7, #8]
 800500e:	f003 031f 	and.w	r3, r3, #31
 8005012:	fa01 f303 	lsl.w	r3, r1, r3
 8005016:	431a      	orrs	r2, r3
 8005018:	697b      	ldr	r3, [r7, #20]
 800501a:	601a      	str	r2, [r3, #0]
}
 800501c:	bf00      	nop
 800501e:	371c      	adds	r7, #28
 8005020:	46bd      	mov	sp, r7
 8005022:	f85d 7b04 	ldr.w	r7, [sp], #4
 8005026:	4770      	bx	lr

08005028 <LL_ADC_SetChannelSamplingTime>:
{
 8005028:	b480      	push	{r7}
 800502a:	b087      	sub	sp, #28
 800502c:	af00      	add	r7, sp, #0
 800502e:	60f8      	str	r0, [r7, #12]
 8005030:	60b9      	str	r1, [r7, #8]
 8005032:	607a      	str	r2, [r7, #4]
  __IO uint32_t *preg = __ADC_PTR_REG_OFFSET(ADCx->SMPR1, ((Channel & ADC_CHANNEL_SMPRX_REGOFFSET_MASK) >> ADC_SMPRX_REGOFFSET_POS));
 8005034:	68fb      	ldr	r3, [r7, #12]
 8005036:	3314      	adds	r3, #20
 8005038:	461a      	mov	r2, r3
 800503a:	68bb      	ldr	r3, [r7, #8]
 800503c:	0e5b      	lsrs	r3, r3, #25
 800503e:	009b      	lsls	r3, r3, #2
 8005040:	f003 0304 	and.w	r3, r3, #4
 8005044:	4413      	add	r3, r2
 8005046:	617b      	str	r3, [r7, #20]
  MODIFY_REG(*preg,
 8005048:	697b      	ldr	r3, [r7, #20]
 800504a:	681a      	ldr	r2, [r3, #0]
 800504c:	68bb      	ldr	r3, [r7, #8]
 800504e:	0d1b      	lsrs	r3, r3, #20
 8005050:	f003 031f 	and.w	r3, r3, #31
 8005054:	2107      	movs	r1, #7
 8005056:	fa01 f303 	lsl.w	r3, r1, r3
 800505a:	43db      	mvns	r3, r3
 800505c:	401a      	ands	r2, r3
 800505e:	68bb      	ldr	r3, [r7, #8]
 8005060:	0d1b      	lsrs	r3, r3, #20
 8005062:	f003 031f 	and.w	r3, r3, #31
 8005066:	6879      	ldr	r1, [r7, #4]
 8005068:	fa01 f303 	lsl.w	r3, r1, r3
 800506c:	431a      	orrs	r2, r3
 800506e:	697b      	ldr	r3, [r7, #20]
 8005070:	601a      	str	r2, [r3, #0]
}
 8005072:	bf00      	nop
 8005074:	371c      	adds	r7, #28
 8005076:	46bd      	mov	sp, r7
 8005078:	f85d 7b04 	ldr.w	r7, [sp], #4
 800507c:	4770      	bx	lr
	...

08005080 <LL_ADC_SetChannelSingleDiff>:
{
 8005080:	b480      	push	{r7}
 8005082:	b085      	sub	sp, #20
 8005084:	af00      	add	r7, sp, #0
 8005086:	60f8      	str	r0, [r7, #12]
 8005088:	60b9      	str	r1, [r7, #8]
 800508a:	607a      	str	r2, [r7, #4]
  if (SingleDiff == LL_ADC_DIFFERENTIAL_ENDED)
 800508c:	687b      	ldr	r3, [r7, #4]
 800508e:	4a0f      	ldr	r2, [pc, #60]	; (80050cc <LL_ADC_SetChannelSingleDiff+0x4c>)
 8005090:	4293      	cmp	r3, r2
 8005092:	d10a      	bne.n	80050aa <LL_ADC_SetChannelSingleDiff+0x2a>
    SET_BIT(ADCx->DIFSEL,
 8005094:	68fb      	ldr	r3, [r7, #12]
 8005096:	f8d3 20b0 	ldr.w	r2, [r3, #176]	; 0xb0
 800509a:	68bb      	ldr	r3, [r7, #8]
 800509c:	f3c3 0312 	ubfx	r3, r3, #0, #19
 80050a0:	431a      	orrs	r2, r3
 80050a2:	68fb      	ldr	r3, [r7, #12]
 80050a4:	f8c3 20b0 	str.w	r2, [r3, #176]	; 0xb0
}
 80050a8:	e00a      	b.n	80050c0 <LL_ADC_SetChannelSingleDiff+0x40>
    CLEAR_BIT(ADCx->DIFSEL,
 80050aa:	68fb      	ldr	r3, [r7, #12]
 80050ac:	f8d3 20b0 	ldr.w	r2, [r3, #176]	; 0xb0
 80050b0:	68bb      	ldr	r3, [r7, #8]
 80050b2:	f3c3 0312 	ubfx	r3, r3, #0, #19
 80050b6:	43db      	mvns	r3, r3
 80050b8:	401a      	ands	r2, r3
 80050ba:	68fb      	ldr	r3, [r7, #12]
 80050bc:	f8c3 20b0 	str.w	r2, [r3, #176]	; 0xb0
}
 80050c0:	bf00      	nop
 80050c2:	3714      	adds	r7, #20
 80050c4:	46bd      	mov	sp, r7
 80050c6:	f85d 7b04 	ldr.w	r7, [sp], #4
 80050ca:	4770      	bx	lr
 80050cc:	407f0000 	.word	0x407f0000

080050d0 <LL_ADC_SetOverSamplingScope>:
{
 80050d0:	b480      	push	{r7}
 80050d2:	b083      	sub	sp, #12
 80050d4:	af00      	add	r7, sp, #0
 80050d6:	6078      	str	r0, [r7, #4]
 80050d8:	6039      	str	r1, [r7, #0]
  MODIFY_REG(ADCx->CFGR2, ADC_CFGR2_ROVSE | ADC_CFGR2_JOVSE | ADC_CFGR2_ROVSM, OvsScope);
 80050da:	687b      	ldr	r3, [r7, #4]
 80050dc:	691b      	ldr	r3, [r3, #16]
 80050de:	f423 6380 	bic.w	r3, r3, #1024	; 0x400
 80050e2:	f023 0303 	bic.w	r3, r3, #3
 80050e6:	683a      	ldr	r2, [r7, #0]
 80050e8:	431a      	orrs	r2, r3
 80050ea:	687b      	ldr	r3, [r7, #4]
 80050ec:	611a      	str	r2, [r3, #16]
}
 80050ee:	bf00      	nop
 80050f0:	370c      	adds	r7, #12
 80050f2:	46bd      	mov	sp, r7
 80050f4:	f85d 7b04 	ldr.w	r7, [sp], #4
 80050f8:	4770      	bx	lr

080050fa <LL_ADC_DisableDeepPowerDown>:
{
 80050fa:	b480      	push	{r7}
 80050fc:	b083      	sub	sp, #12
 80050fe:	af00      	add	r7, sp, #0
 8005100:	6078      	str	r0, [r7, #4]
  CLEAR_BIT(ADCx->CR, (ADC_CR_DEEPPWD | ADC_CR_BITS_PROPERTY_RS));
 8005102:	687b      	ldr	r3, [r7, #4]
 8005104:	689b      	ldr	r3, [r3, #8]
 8005106:	f023 4320 	bic.w	r3, r3, #2684354560	; 0xa0000000
 800510a:	f023 033f 	bic.w	r3, r3, #63	; 0x3f
 800510e:	687a      	ldr	r2, [r7, #4]
 8005110:	6093      	str	r3, [r2, #8]
}
 8005112:	bf00      	nop
 8005114:	370c      	adds	r7, #12
 8005116:	46bd      	mov	sp, r7
 8005118:	f85d 7b04 	ldr.w	r7, [sp], #4
 800511c:	4770      	bx	lr

0800511e <LL_ADC_EnableInternalRegulator>:
{
 800511e:	b480      	push	{r7}
 8005120:	b083      	sub	sp, #12
 8005122:	af00      	add	r7, sp, #0
 8005124:	6078      	str	r0, [r7, #4]
  MODIFY_REG(ADCx->CR,
 8005126:	687b      	ldr	r3, [r7, #4]
 8005128:	689b      	ldr	r3, [r3, #8]
 800512a:	f023 4310 	bic.w	r3, r3, #2415919104	; 0x90000000
 800512e:	f023 033f 	bic.w	r3, r3, #63	; 0x3f
 8005132:	f043 5280 	orr.w	r2, r3, #268435456	; 0x10000000
 8005136:	687b      	ldr	r3, [r7, #4]
 8005138:	609a      	str	r2, [r3, #8]
}
 800513a:	bf00      	nop
 800513c:	370c      	adds	r7, #12
 800513e:	46bd      	mov	sp, r7
 8005140:	f85d 7b04 	ldr.w	r7, [sp], #4
 8005144:	4770      	bx	lr

08005146 <LL_ADC_Enable>:
{
 8005146:	b480      	push	{r7}
 8005148:	b083      	sub	sp, #12
 800514a:	af00      	add	r7, sp, #0
 800514c:	6078      	str	r0, [r7, #4]
  MODIFY_REG(ADCx->CR,
 800514e:	687b      	ldr	r3, [r7, #4]
 8005150:	689b      	ldr	r3, [r3, #8]
 8005152:	f023 4300 	bic.w	r3, r3, #2147483648	; 0x80000000
 8005156:	f023 033f 	bic.w	r3, r3, #63	; 0x3f
 800515a:	f043 0201 	orr.w	r2, r3, #1
 800515e:	687b      	ldr	r3, [r7, #4]
 8005160:	609a      	str	r2, [r3, #8]
}
 8005162:	bf00      	nop
 8005164:	370c      	adds	r7, #12
 8005166:	46bd      	mov	sp, r7
 8005168:	f85d 7b04 	ldr.w	r7, [sp], #4
 800516c:	4770      	bx	lr

0800516e <LL_ADC_StartCalibration>:
  *         @arg @ref LL_ADC_SINGLE_ENDED
  *         @arg @ref LL_ADC_DIFFERENTIAL_ENDED
  * @retval None
  */
__STATIC_INLINE void LL_ADC_StartCalibration(ADC_TypeDef *ADCx, uint32_t SingleDiff)
{
 800516e:	b480      	push	{r7}
 8005170:	b083      	sub	sp, #12
 8005172:	af00      	add	r7, sp, #0
 8005174:	6078      	str	r0, [r7, #4]
 8005176:	6039      	str	r1, [r7, #0]
  /* Note: Write register with some additional bits forced to state reset     */
  /*       instead of modifying only the selected bit for this function,      */
  /*       to not interfere with bits with HW property "rs".                  */
  MODIFY_REG(ADCx->CR,
 8005178:	687b      	ldr	r3, [r7, #4]
 800517a:	689b      	ldr	r3, [r3, #8]
 800517c:	f023 4340 	bic.w	r3, r3, #3221225472	; 0xc0000000
 8005180:	f023 033f 	bic.w	r3, r3, #63	; 0x3f
 8005184:	683a      	ldr	r2, [r7, #0]
 8005186:	f002 4280 	and.w	r2, r2, #1073741824	; 0x40000000
 800518a:	4313      	orrs	r3, r2
 800518c:	f043 4200 	orr.w	r2, r3, #2147483648	; 0x80000000
 8005190:	687b      	ldr	r3, [r7, #4]
 8005192:	609a      	str	r2, [r3, #8]
             ADC_CR_ADCALDIF | ADC_CR_BITS_PROPERTY_RS,
             ADC_CR_ADCAL | (SingleDiff & ADC_SINGLEDIFF_CALIB_START_MASK));
}
 8005194:	bf00      	nop
 8005196:	370c      	adds	r7, #12
 8005198:	46bd      	mov	sp, r7
 800519a:	f85d 7b04 	ldr.w	r7, [sp], #4
 800519e:	4770      	bx	lr

080051a0 <LL_ADC_IsCalibrationOnGoing>:
  * @rmtoll CR       ADCAL          LL_ADC_IsCalibrationOnGoing
  * @param  ADCx ADC instance
  * @retval 0: calibration complete, 1: calibration in progress.
  */
__STATIC_INLINE uint32_t LL_ADC_IsCalibrationOnGoing(ADC_TypeDef *ADCx)
{
 80051a0:	b480      	push	{r7}
 80051a2:	b083      	sub	sp, #12
 80051a4:	af00      	add	r7, sp, #0
 80051a6:	6078      	str	r0, [r7, #4]
  return ((READ_BIT(ADCx->CR, ADC_CR_ADCAL) == (ADC_CR_ADCAL)) ? 1UL : 0UL);
 80051a8:	687b      	ldr	r3, [r7, #4]
 80051aa:	689b      	ldr	r3, [r3, #8]
 80051ac:	f003 4300 	and.w	r3, r3, #2147483648	; 0x80000000
 80051b0:	f1b3 4f00 	cmp.w	r3, #2147483648	; 0x80000000
 80051b4:	d101      	bne.n	80051ba <LL_ADC_IsCalibrationOnGoing+0x1a>
 80051b6:	2301      	movs	r3, #1
 80051b8:	e000      	b.n	80051bc <LL_ADC_IsCalibrationOnGoing+0x1c>
 80051ba:	2300      	movs	r3, #0
}
 80051bc:	4618      	mov	r0, r3
 80051be:	370c      	adds	r7, #12
 80051c0:	46bd      	mov	sp, r7
 80051c2:	f85d 7b04 	ldr.w	r7, [sp], #4
 80051c6:	4770      	bx	lr

080051c8 <LL_ADC_REG_StartConversion>:
  * @rmtoll CR       ADSTART        LL_ADC_REG_StartConversion
  * @param  ADCx ADC instance
  * @retval None
  */
__STATIC_INLINE void LL_ADC_REG_StartConversion(ADC_TypeDef *ADCx)
{
 80051c8:	b480      	push	{r7}
 80051ca:	b083      	sub	sp, #12
 80051cc:	af00      	add	r7, sp, #0
 80051ce:	6078      	str	r0, [r7, #4]
  /* Note: Write register with some additional bits forced to state reset     */
  /*       instead of modifying only the selected bit for this function,      */
  /*       to not interfere with bits with HW property "rs".                  */
  MODIFY_REG(ADCx->CR,
 80051d0:	687b      	ldr	r3, [r7, #4]
 80051d2:	689b      	ldr	r3, [r3, #8]
 80051d4:	f023 4300 	bic.w	r3, r3, #2147483648	; 0x80000000
 80051d8:	f023 033f 	bic.w	r3, r3, #63	; 0x3f
 80051dc:	f043 0204 	orr.w	r2, r3, #4
 80051e0:	687b      	ldr	r3, [r7, #4]
 80051e2:	609a      	str	r2, [r3, #8]
             ADC_CR_BITS_PROPERTY_RS,
             ADC_CR_ADSTART);
}
 80051e4:	bf00      	nop
 80051e6:	370c      	adds	r7, #12
 80051e8:	46bd      	mov	sp, r7
 80051ea:	f85d 7b04 	ldr.w	r7, [sp], #4
 80051ee:	4770      	bx	lr

080051f0 <LL_ADC_IsActiveFlag_ADRDY>:
  * @rmtoll ISR      ADRDY          LL_ADC_IsActiveFlag_ADRDY
  * @param  ADCx ADC instance
  * @retval State of bit (1 or 0).
  */
__STATIC_INLINE uint32_t LL_ADC_IsActiveFlag_ADRDY(ADC_TypeDef *ADCx)
{
 80051f0:	b480      	push	{r7}
 80051f2:	b083      	sub	sp, #12
 80051f4:	af00      	add	r7, sp, #0
 80051f6:	6078      	str	r0, [r7, #4]
  return ((READ_BIT(ADCx->ISR, LL_ADC_FLAG_ADRDY) == (LL_ADC_FLAG_ADRDY)) ? 1UL : 0UL);
 80051f8:	687b      	ldr	r3, [r7, #4]
 80051fa:	681b      	ldr	r3, [r3, #0]
 80051fc:	f003 0301 	and.w	r3, r3, #1
 8005200:	2b01      	cmp	r3, #1
 8005202:	d101      	bne.n	8005208 <LL_ADC_IsActiveFlag_ADRDY+0x18>
 8005204:	2301      	movs	r3, #1
 8005206:	e000      	b.n	800520a <LL_ADC_IsActiveFlag_ADRDY+0x1a>
 8005208:	2300      	movs	r3, #0
}
 800520a:	4618      	mov	r0, r3
 800520c:	370c      	adds	r7, #12
 800520e:	46bd      	mov	sp, r7
 8005210:	f85d 7b04 	ldr.w	r7, [sp], #4
 8005214:	4770      	bx	lr
	...

08005218 <LL_AHB1_GRP1_EnableClock>:
{
 8005218:	b480      	push	{r7}
 800521a:	b085      	sub	sp, #20
 800521c:	af00      	add	r7, sp, #0
 800521e:	6078      	str	r0, [r7, #4]
  SET_BIT(RCC->AHB1ENR, Periphs);
 8005220:	4b08      	ldr	r3, [pc, #32]	; (8005244 <LL_AHB1_GRP1_EnableClock+0x2c>)
 8005222:	6c9a      	ldr	r2, [r3, #72]	; 0x48
 8005224:	4907      	ldr	r1, [pc, #28]	; (8005244 <LL_AHB1_GRP1_EnableClock+0x2c>)
 8005226:	687b      	ldr	r3, [r7, #4]
 8005228:	4313      	orrs	r3, r2
 800522a:	648b      	str	r3, [r1, #72]	; 0x48
  tmpreg = READ_BIT(RCC->AHB1ENR, Periphs);
 800522c:	4b05      	ldr	r3, [pc, #20]	; (8005244 <LL_AHB1_GRP1_EnableClock+0x2c>)
 800522e:	6c9a      	ldr	r2, [r3, #72]	; 0x48
 8005230:	687b      	ldr	r3, [r7, #4]
 8005232:	4013      	ands	r3, r2
 8005234:	60fb      	str	r3, [r7, #12]
  (void)tmpreg;
 8005236:	68fb      	ldr	r3, [r7, #12]
}
 8005238:	bf00      	nop
 800523a:	3714      	adds	r7, #20
 800523c:	46bd      	mov	sp, r7
 800523e:	f85d 7b04 	ldr.w	r7, [sp], #4
 8005242:	4770      	bx	lr
 8005244:	40021000 	.word	0x40021000

08005248 <LL_AHB2_GRP1_EnableClock>:
{
 8005248:	b480      	push	{r7}
 800524a:	b085      	sub	sp, #20
 800524c:	af00      	add	r7, sp, #0
 800524e:	6078      	str	r0, [r7, #4]
  SET_BIT(RCC->AHB2ENR, Periphs);
 8005250:	4b08      	ldr	r3, [pc, #32]	; (8005274 <LL_AHB2_GRP1_EnableClock+0x2c>)
 8005252:	6cda      	ldr	r2, [r3, #76]	; 0x4c
 8005254:	4907      	ldr	r1, [pc, #28]	; (8005274 <LL_AHB2_GRP1_EnableClock+0x2c>)
 8005256:	687b      	ldr	r3, [r7, #4]
 8005258:	4313      	orrs	r3, r2
 800525a:	64cb      	str	r3, [r1, #76]	; 0x4c
  tmpreg = READ_BIT(RCC->AHB2ENR, Periphs);
 800525c:	4b05      	ldr	r3, [pc, #20]	; (8005274 <LL_AHB2_GRP1_EnableClock+0x2c>)
 800525e:	6cda      	ldr	r2, [r3, #76]	; 0x4c
 8005260:	687b      	ldr	r3, [r7, #4]
 8005262:	4013      	ands	r3, r2
 8005264:	60fb      	str	r3, [r7, #12]
  (void)tmpreg;
 8005266:	68fb      	ldr	r3, [r7, #12]
}
 8005268:	bf00      	nop
 800526a:	3714      	adds	r7, #20
 800526c:	46bd      	mov	sp, r7
 800526e:	f85d 7b04 	ldr.w	r7, [sp], #4
 8005272:	4770      	bx	lr
 8005274:	40021000 	.word	0x40021000

08005278 <LL_DMA_EnableChannel>:
{
 8005278:	b480      	push	{r7}
 800527a:	b085      	sub	sp, #20
 800527c:	af00      	add	r7, sp, #0
 800527e:	6078      	str	r0, [r7, #4]
 8005280:	6039      	str	r1, [r7, #0]
  uint32_t dma_base_addr = (uint32_t)DMAx;
 8005282:	687b      	ldr	r3, [r7, #4]
 8005284:	60fb      	str	r3, [r7, #12]
  SET_BIT(((DMA_Channel_TypeDef *)((uint32_t)(dma_base_addr + CHANNEL_OFFSET_TAB[Channel])))->CCR, DMA_CCR_EN);
 8005286:	4a0c      	ldr	r2, [pc, #48]	; (80052b8 <LL_DMA_EnableChannel+0x40>)
 8005288:	683b      	ldr	r3, [r7, #0]
 800528a:	4413      	add	r3, r2
 800528c:	781b      	ldrb	r3, [r3, #0]
 800528e:	461a      	mov	r2, r3
 8005290:	68fb      	ldr	r3, [r7, #12]
 8005292:	4413      	add	r3, r2
 8005294:	681b      	ldr	r3, [r3, #0]
 8005296:	4908      	ldr	r1, [pc, #32]	; (80052b8 <LL_DMA_EnableChannel+0x40>)
 8005298:	683a      	ldr	r2, [r7, #0]
 800529a:	440a      	add	r2, r1
 800529c:	7812      	ldrb	r2, [r2, #0]
 800529e:	4611      	mov	r1, r2
 80052a0:	68fa      	ldr	r2, [r7, #12]
 80052a2:	440a      	add	r2, r1
 80052a4:	f043 0301 	orr.w	r3, r3, #1
 80052a8:	6013      	str	r3, [r2, #0]
}
 80052aa:	bf00      	nop
 80052ac:	3714      	adds	r7, #20
 80052ae:	46bd      	mov	sp, r7
 80052b0:	f85d 7b04 	ldr.w	r7, [sp], #4
 80052b4:	4770      	bx	lr
 80052b6:	bf00      	nop
 80052b8:	0800903c 	.word	0x0800903c

080052bc <LL_DMA_IsEnabledChannel>:
{
 80052bc:	b480      	push	{r7}
 80052be:	b085      	sub	sp, #20
 80052c0:	af00      	add	r7, sp, #0
 80052c2:	6078      	str	r0, [r7, #4]
 80052c4:	6039      	str	r1, [r7, #0]
  uint32_t dma_base_addr = (uint32_t)DMAx;
 80052c6:	687b      	ldr	r3, [r7, #4]
 80052c8:	60fb      	str	r3, [r7, #12]
  return ((READ_BIT(((DMA_Channel_TypeDef *)((uint32_t)(dma_base_addr + CHANNEL_OFFSET_TAB[Channel])))->CCR,
 80052ca:	4a0a      	ldr	r2, [pc, #40]	; (80052f4 <LL_DMA_IsEnabledChannel+0x38>)
 80052cc:	683b      	ldr	r3, [r7, #0]
 80052ce:	4413      	add	r3, r2
 80052d0:	781b      	ldrb	r3, [r3, #0]
 80052d2:	461a      	mov	r2, r3
 80052d4:	68fb      	ldr	r3, [r7, #12]
 80052d6:	4413      	add	r3, r2
 80052d8:	681b      	ldr	r3, [r3, #0]
 80052da:	f003 0301 	and.w	r3, r3, #1
                    DMA_CCR_EN) == (DMA_CCR_EN)) ? 1UL : 0UL);
 80052de:	2b01      	cmp	r3, #1
 80052e0:	d101      	bne.n	80052e6 <LL_DMA_IsEnabledChannel+0x2a>
 80052e2:	2301      	movs	r3, #1
 80052e4:	e000      	b.n	80052e8 <LL_DMA_IsEnabledChannel+0x2c>
 80052e6:	2300      	movs	r3, #0
}
 80052e8:	4618      	mov	r0, r3
 80052ea:	3714      	adds	r7, #20
 80052ec:	46bd      	mov	sp, r7
 80052ee:	f85d 7b04 	ldr.w	r7, [sp], #4
 80052f2:	4770      	bx	lr
 80052f4:	0800903c 	.word	0x0800903c

080052f8 <LL_DMA_SetDataLength>:
{
 80052f8:	b480      	push	{r7}
 80052fa:	b087      	sub	sp, #28
 80052fc:	af00      	add	r7, sp, #0
 80052fe:	60f8      	str	r0, [r7, #12]
 8005300:	60b9      	str	r1, [r7, #8]
 8005302:	607a      	str	r2, [r7, #4]
  uint32_t dma_base_addr = (uint32_t)DMAx;
 8005304:	68fb      	ldr	r3, [r7, #12]
 8005306:	617b      	str	r3, [r7, #20]
  MODIFY_REG(((DMA_Channel_TypeDef *)((uint32_t)(dma_base_addr + CHANNEL_OFFSET_TAB[Channel])))->CNDTR,
 8005308:	4a0d      	ldr	r2, [pc, #52]	; (8005340 <LL_DMA_SetDataLength+0x48>)
 800530a:	68bb      	ldr	r3, [r7, #8]
 800530c:	4413      	add	r3, r2
 800530e:	781b      	ldrb	r3, [r3, #0]
 8005310:	461a      	mov	r2, r3
 8005312:	697b      	ldr	r3, [r7, #20]
 8005314:	4413      	add	r3, r2
 8005316:	685b      	ldr	r3, [r3, #4]
 8005318:	0c1b      	lsrs	r3, r3, #16
 800531a:	041b      	lsls	r3, r3, #16
 800531c:	4908      	ldr	r1, [pc, #32]	; (8005340 <LL_DMA_SetDataLength+0x48>)
 800531e:	68ba      	ldr	r2, [r7, #8]
 8005320:	440a      	add	r2, r1
 8005322:	7812      	ldrb	r2, [r2, #0]
 8005324:	4611      	mov	r1, r2
 8005326:	697a      	ldr	r2, [r7, #20]
 8005328:	440a      	add	r2, r1
 800532a:	4611      	mov	r1, r2
 800532c:	687a      	ldr	r2, [r7, #4]
 800532e:	4313      	orrs	r3, r2
 8005330:	604b      	str	r3, [r1, #4]
}
 8005332:	bf00      	nop
 8005334:	371c      	adds	r7, #28
 8005336:	46bd      	mov	sp, r7
 8005338:	f85d 7b04 	ldr.w	r7, [sp], #4
 800533c:	4770      	bx	lr
 800533e:	bf00      	nop
 8005340:	0800903c 	.word	0x0800903c

08005344 <LL_RCC_SetADCClockSource>:
{
 8005344:	b480      	push	{r7}
 8005346:	b083      	sub	sp, #12
 8005348:	af00      	add	r7, sp, #0
 800534a:	6078      	str	r0, [r7, #4]
  MODIFY_REG(RCC->CCIPR, 3U << ((ADCxSource & 0x001F0000U) >> 16U), ((ADCxSource & 0x000000FFU) << ((ADCxSource & 0x001F0000U) >> 16U)));
 800534c:	4b0e      	ldr	r3, [pc, #56]	; (8005388 <LL_RCC_SetADCClockSource+0x44>)
 800534e:	f8d3 2088 	ldr.w	r2, [r3, #136]	; 0x88
 8005352:	687b      	ldr	r3, [r7, #4]
 8005354:	0c1b      	lsrs	r3, r3, #16
 8005356:	f003 031f 	and.w	r3, r3, #31
 800535a:	2103      	movs	r1, #3
 800535c:	fa01 f303 	lsl.w	r3, r1, r3
 8005360:	43db      	mvns	r3, r3
 8005362:	401a      	ands	r2, r3
 8005364:	687b      	ldr	r3, [r7, #4]
 8005366:	b2d9      	uxtb	r1, r3
 8005368:	687b      	ldr	r3, [r7, #4]
 800536a:	0c1b      	lsrs	r3, r3, #16
 800536c:	f003 031f 	and.w	r3, r3, #31
 8005370:	fa01 f303 	lsl.w	r3, r1, r3
 8005374:	4904      	ldr	r1, [pc, #16]	; (8005388 <LL_RCC_SetADCClockSource+0x44>)
 8005376:	4313      	orrs	r3, r2
 8005378:	f8c1 3088 	str.w	r3, [r1, #136]	; 0x88
}
 800537c:	bf00      	nop
 800537e:	370c      	adds	r7, #12
 8005380:	46bd      	mov	sp, r7
 8005382:	f85d 7b04 	ldr.w	r7, [sp], #4
 8005386:	4770      	bx	lr
 8005388:	40021000 	.word	0x40021000

0800538c <STRHAL_ADC_RegInit>:
} adc1_buf, adc2_buf, adc3_buf, adc4_buf, adc5_buf;

static volatile uint64_t STRHAL_ADC_ChannelState[2] = { 0, 0 };

static void STRHAL_ADC_RegInit(ADC_TypeDef *ADCx)
{
 800538c:	b580      	push	{r7, lr}
 800538e:	b08c      	sub	sp, #48	; 0x30
 8005390:	af00      	add	r7, sp, #0
 8005392:	6078      	str	r0, [r7, #4]
	LL_ADC_InitTypeDef ADC_InitStruct =
 8005394:	f107 0324 	add.w	r3, r7, #36	; 0x24
 8005398:	2200      	movs	r2, #0
 800539a:	601a      	str	r2, [r3, #0]
 800539c:	605a      	str	r2, [r3, #4]
 800539e:	609a      	str	r2, [r3, #8]
	{ 0 };
	LL_ADC_REG_InitTypeDef ADC_REG_InitStruct =
 80053a0:	f107 030c 	add.w	r3, r7, #12
 80053a4:	2200      	movs	r2, #0
 80053a6:	601a      	str	r2, [r3, #0]
 80053a8:	605a      	str	r2, [r3, #4]
 80053aa:	609a      	str	r2, [r3, #8]
 80053ac:	60da      	str	r2, [r3, #12]
 80053ae:	611a      	str	r2, [r3, #16]
 80053b0:	615a      	str	r2, [r3, #20]
	{ 0 };
	ADC_InitStruct.Resolution = STRHAL_ADC_RESOLUTION;
 80053b2:	2300      	movs	r3, #0
 80053b4:	627b      	str	r3, [r7, #36]	; 0x24
	ADC_InitStruct.DataAlignment = LL_ADC_DATA_ALIGN_RIGHT;
 80053b6:	2300      	movs	r3, #0
 80053b8:	62bb      	str	r3, [r7, #40]	; 0x28
	ADC_InitStruct.LowPowerMode = LL_ADC_LP_MODE_NONE;
 80053ba:	2300      	movs	r3, #0
 80053bc:	62fb      	str	r3, [r7, #44]	; 0x2c
	LL_ADC_Init(ADCx, &ADC_InitStruct);
 80053be:	f107 0324 	add.w	r3, r7, #36	; 0x24
 80053c2:	4619      	mov	r1, r3
 80053c4:	6878      	ldr	r0, [r7, #4]
 80053c6:	f7fd fceb 	bl	8002da0 <LL_ADC_Init>
	ADC_REG_InitStruct.TriggerSource = LL_ADC_REG_TRIG_SOFTWARE;
 80053ca:	2300      	movs	r3, #0
 80053cc:	60fb      	str	r3, [r7, #12]
	ADC_REG_InitStruct.SequencerLength = LL_ADC_REG_SEQ_SCAN_DISABLE;
 80053ce:	2300      	movs	r3, #0
 80053d0:	613b      	str	r3, [r7, #16]
	ADC_REG_InitStruct.SequencerDiscont = LL_ADC_REG_SEQ_DISCONT_DISABLE;
 80053d2:	2300      	movs	r3, #0
 80053d4:	617b      	str	r3, [r7, #20]
	ADC_REG_InitStruct.ContinuousMode = LL_ADC_REG_CONV_CONTINUOUS;
 80053d6:	f44f 5300 	mov.w	r3, #8192	; 0x2000
 80053da:	61bb      	str	r3, [r7, #24]
	//ADC_REG_InitStruct.ContinuousMode = LL_ADC_REG_CONV_SINGLE;
	ADC_REG_InitStruct.Overrun = LL_ADC_REG_OVR_DATA_OVERWRITTEN;
 80053dc:	f44f 5380 	mov.w	r3, #4096	; 0x1000
 80053e0:	623b      	str	r3, [r7, #32]
	ADC_REG_InitStruct.DMATransfer = LL_ADC_REG_DMA_TRANSFER_UNLIMITED;
 80053e2:	2303      	movs	r3, #3
 80053e4:	61fb      	str	r3, [r7, #28]
	LL_ADC_REG_Init(ADCx, &ADC_REG_InitStruct);
 80053e6:	f107 030c 	add.w	r3, r7, #12
 80053ea:	4619      	mov	r1, r3
 80053ec:	6878      	ldr	r0, [r7, #4]
 80053ee:	f7fd fcfd 	bl	8002dec <LL_ADC_REG_Init>
	LL_ADC_SetGainCompensation(ADCx, 0);
 80053f2:	2100      	movs	r1, #0
 80053f4:	6878      	ldr	r0, [r7, #4]
 80053f6:	f7ff fdb3 	bl	8004f60 <LL_ADC_SetGainCompensation>
	LL_ADC_SetOverSamplingScope(ADCx, LL_ADC_OVS_DISABLE);
 80053fa:	2100      	movs	r1, #0
 80053fc:	6878      	ldr	r0, [r7, #4]
 80053fe:	f7ff fe67 	bl	80050d0 <LL_ADC_SetOverSamplingScope>
	LL_ADC_DisableDeepPowerDown(ADCx);
 8005402:	6878      	ldr	r0, [r7, #4]
 8005404:	f7ff fe79 	bl	80050fa <LL_ADC_DisableDeepPowerDown>
}
 8005408:	bf00      	nop
 800540a:	3730      	adds	r7, #48	; 0x30
 800540c:	46bd      	mov	sp, r7
 800540e:	bd80      	pop	{r7, pc}

08005410 <STRHAL_ADC_DmaInit>:

static void STRHAL_ADC_DmaInit(DMA_TypeDef *DMAx, uint32_t dmaChannel, uint32_t dest, uint32_t src, uint32_t periph)
{
 8005410:	b580      	push	{r7, lr}
 8005412:	b090      	sub	sp, #64	; 0x40
 8005414:	af00      	add	r7, sp, #0
 8005416:	60f8      	str	r0, [r7, #12]
 8005418:	60b9      	str	r1, [r7, #8]
 800541a:	607a      	str	r2, [r7, #4]
 800541c:	603b      	str	r3, [r7, #0]
	LL_DMA_InitTypeDef DMA_InitStruct =
 800541e:	f107 0314 	add.w	r3, r7, #20
 8005422:	222c      	movs	r2, #44	; 0x2c
 8005424:	2100      	movs	r1, #0
 8005426:	4618      	mov	r0, r3
 8005428:	f003 fc20 	bl	8008c6c <memset>
	{ 0 };

	DMA_InitStruct.Direction = LL_DMA_DIRECTION_PERIPH_TO_MEMORY;
 800542c:	2300      	movs	r3, #0
 800542e:	61fb      	str	r3, [r7, #28]
	DMA_InitStruct.MemoryOrM2MDstAddress = dest;
 8005430:	687b      	ldr	r3, [r7, #4]
 8005432:	61bb      	str	r3, [r7, #24]
	DMA_InitStruct.MemoryOrM2MDstDataSize = LL_DMA_MDATAALIGN_HALFWORD;
 8005434:	f44f 6380 	mov.w	r3, #1024	; 0x400
 8005438:	633b      	str	r3, [r7, #48]	; 0x30
	DMA_InitStruct.MemoryOrM2MDstIncMode = LL_DMA_MEMORY_INCREMENT;
 800543a:	2380      	movs	r3, #128	; 0x80
 800543c:	62bb      	str	r3, [r7, #40]	; 0x28
	DMA_InitStruct.Mode = LL_DMA_MODE_CIRCULAR;
 800543e:	2320      	movs	r3, #32
 8005440:	623b      	str	r3, [r7, #32]
	DMA_InitStruct.NbData = 0;
 8005442:	2300      	movs	r3, #0
 8005444:	637b      	str	r3, [r7, #52]	; 0x34
	DMA_InitStruct.PeriphOrM2MSrcAddress = src;
 8005446:	683b      	ldr	r3, [r7, #0]
 8005448:	617b      	str	r3, [r7, #20]
	DMA_InitStruct.PeriphOrM2MSrcDataSize = LL_DMA_PDATAALIGN_HALFWORD;
 800544a:	f44f 7380 	mov.w	r3, #256	; 0x100
 800544e:	62fb      	str	r3, [r7, #44]	; 0x2c
	DMA_InitStruct.PeriphOrM2MSrcIncMode = LL_DMA_PERIPH_NOINCREMENT;
 8005450:	2300      	movs	r3, #0
 8005452:	627b      	str	r3, [r7, #36]	; 0x24
	DMA_InitStruct.PeriphRequest = periph;
 8005454:	6cbb      	ldr	r3, [r7, #72]	; 0x48
 8005456:	63bb      	str	r3, [r7, #56]	; 0x38
	DMA_InitStruct.Priority = STRHAL_ADC_DMA_PRIORITY;
 8005458:	f44f 5340 	mov.w	r3, #12288	; 0x3000
 800545c:	63fb      	str	r3, [r7, #60]	; 0x3c

	LL_DMA_Init(DMAx, dmaChannel, &DMA_InitStruct);
 800545e:	f107 0314 	add.w	r3, r7, #20
 8005462:	461a      	mov	r2, r3
 8005464:	68b9      	ldr	r1, [r7, #8]
 8005466:	68f8      	ldr	r0, [r7, #12]
 8005468:	f7fd fdb6 	bl	8002fd8 <LL_DMA_Init>
}
 800546c:	bf00      	nop
 800546e:	3740      	adds	r7, #64	; 0x40
 8005470:	46bd      	mov	sp, r7
 8005472:	bd80      	pop	{r7, pc}

08005474 <STRHAL_ADC_Calibrate>:

static void STRHAL_ADC_Calibrate()
{
 8005474:	b580      	push	{r7, lr}
 8005476:	af00      	add	r7, sp, #0
	LL_ADC_EnableInternalRegulator(ADC1);
 8005478:	f04f 40a0 	mov.w	r0, #1342177280	; 0x50000000
 800547c:	f7ff fe4f 	bl	800511e <LL_ADC_EnableInternalRegulator>
	LL_mDelay(100);
 8005480:	2064      	movs	r0, #100	; 0x64
 8005482:	f7ff f8ef 	bl	8004664 <LL_mDelay>
	LL_ADC_StartCalibration(ADC1, STRHAL_ADC_SINGLEDIFF);
 8005486:	217f      	movs	r1, #127	; 0x7f
 8005488:	f04f 40a0 	mov.w	r0, #1342177280	; 0x50000000
 800548c:	f7ff fe6f 	bl	800516e <LL_ADC_StartCalibration>
	while (LL_ADC_IsCalibrationOnGoing(ADC1));
 8005490:	bf00      	nop
 8005492:	f04f 40a0 	mov.w	r0, #1342177280	; 0x50000000
 8005496:	f7ff fe83 	bl	80051a0 <LL_ADC_IsCalibrationOnGoing>
 800549a:	4603      	mov	r3, r0
 800549c:	2b00      	cmp	r3, #0
 800549e:	d1f8      	bne.n	8005492 <STRHAL_ADC_Calibrate+0x1e>

	LL_ADC_EnableInternalRegulator(ADC2);
 80054a0:	4823      	ldr	r0, [pc, #140]	; (8005530 <STRHAL_ADC_Calibrate+0xbc>)
 80054a2:	f7ff fe3c 	bl	800511e <LL_ADC_EnableInternalRegulator>
	LL_mDelay(100);
 80054a6:	2064      	movs	r0, #100	; 0x64
 80054a8:	f7ff f8dc 	bl	8004664 <LL_mDelay>
	LL_ADC_StartCalibration(ADC2, STRHAL_ADC_SINGLEDIFF);
 80054ac:	217f      	movs	r1, #127	; 0x7f
 80054ae:	4820      	ldr	r0, [pc, #128]	; (8005530 <STRHAL_ADC_Calibrate+0xbc>)
 80054b0:	f7ff fe5d 	bl	800516e <LL_ADC_StartCalibration>
	while (LL_ADC_IsCalibrationOnGoing(ADC2));
 80054b4:	bf00      	nop
 80054b6:	481e      	ldr	r0, [pc, #120]	; (8005530 <STRHAL_ADC_Calibrate+0xbc>)
 80054b8:	f7ff fe72 	bl	80051a0 <LL_ADC_IsCalibrationOnGoing>
 80054bc:	4603      	mov	r3, r0
 80054be:	2b00      	cmp	r3, #0
 80054c0:	d1f9      	bne.n	80054b6 <STRHAL_ADC_Calibrate+0x42>

	LL_ADC_EnableInternalRegulator(ADC3);
 80054c2:	481c      	ldr	r0, [pc, #112]	; (8005534 <STRHAL_ADC_Calibrate+0xc0>)
 80054c4:	f7ff fe2b 	bl	800511e <LL_ADC_EnableInternalRegulator>
	LL_mDelay(100);
 80054c8:	2064      	movs	r0, #100	; 0x64
 80054ca:	f7ff f8cb 	bl	8004664 <LL_mDelay>
	LL_ADC_StartCalibration(ADC3, STRHAL_ADC_SINGLEDIFF);
 80054ce:	217f      	movs	r1, #127	; 0x7f
 80054d0:	4818      	ldr	r0, [pc, #96]	; (8005534 <STRHAL_ADC_Calibrate+0xc0>)
 80054d2:	f7ff fe4c 	bl	800516e <LL_ADC_StartCalibration>
	while (LL_ADC_IsCalibrationOnGoing(ADC3));
 80054d6:	bf00      	nop
 80054d8:	4816      	ldr	r0, [pc, #88]	; (8005534 <STRHAL_ADC_Calibrate+0xc0>)
 80054da:	f7ff fe61 	bl	80051a0 <LL_ADC_IsCalibrationOnGoing>
 80054de:	4603      	mov	r3, r0
 80054e0:	2b00      	cmp	r3, #0
 80054e2:	d1f9      	bne.n	80054d8 <STRHAL_ADC_Calibrate+0x64>

	LL_ADC_EnableInternalRegulator(ADC4);
 80054e4:	4814      	ldr	r0, [pc, #80]	; (8005538 <STRHAL_ADC_Calibrate+0xc4>)
 80054e6:	f7ff fe1a 	bl	800511e <LL_ADC_EnableInternalRegulator>
	LL_mDelay(100);
 80054ea:	2064      	movs	r0, #100	; 0x64
 80054ec:	f7ff f8ba 	bl	8004664 <LL_mDelay>
	LL_ADC_StartCalibration(ADC4, STRHAL_ADC_SINGLEDIFF);
 80054f0:	217f      	movs	r1, #127	; 0x7f
 80054f2:	4811      	ldr	r0, [pc, #68]	; (8005538 <STRHAL_ADC_Calibrate+0xc4>)
 80054f4:	f7ff fe3b 	bl	800516e <LL_ADC_StartCalibration>
	while (LL_ADC_IsCalibrationOnGoing(ADC4));
 80054f8:	bf00      	nop
 80054fa:	480f      	ldr	r0, [pc, #60]	; (8005538 <STRHAL_ADC_Calibrate+0xc4>)
 80054fc:	f7ff fe50 	bl	80051a0 <LL_ADC_IsCalibrationOnGoing>
 8005500:	4603      	mov	r3, r0
 8005502:	2b00      	cmp	r3, #0
 8005504:	d1f9      	bne.n	80054fa <STRHAL_ADC_Calibrate+0x86>

	LL_ADC_EnableInternalRegulator(ADC5);
 8005506:	480d      	ldr	r0, [pc, #52]	; (800553c <STRHAL_ADC_Calibrate+0xc8>)
 8005508:	f7ff fe09 	bl	800511e <LL_ADC_EnableInternalRegulator>
	LL_mDelay(100);
 800550c:	2064      	movs	r0, #100	; 0x64
 800550e:	f7ff f8a9 	bl	8004664 <LL_mDelay>
	LL_ADC_StartCalibration(ADC5, STRHAL_ADC_SINGLEDIFF);
 8005512:	217f      	movs	r1, #127	; 0x7f
 8005514:	4809      	ldr	r0, [pc, #36]	; (800553c <STRHAL_ADC_Calibrate+0xc8>)
 8005516:	f7ff fe2a 	bl	800516e <LL_ADC_StartCalibration>
	while (LL_ADC_IsCalibrationOnGoing(ADC5));
 800551a:	bf00      	nop
 800551c:	4807      	ldr	r0, [pc, #28]	; (800553c <STRHAL_ADC_Calibrate+0xc8>)
 800551e:	f7ff fe3f 	bl	80051a0 <LL_ADC_IsCalibrationOnGoing>
 8005522:	4603      	mov	r3, r0
 8005524:	2b00      	cmp	r3, #0
 8005526:	d1f9      	bne.n	800551c <STRHAL_ADC_Calibrate+0xa8>
}
 8005528:	bf00      	nop
 800552a:	bf00      	nop
 800552c:	bd80      	pop	{r7, pc}
 800552e:	bf00      	nop
 8005530:	50000100 	.word	0x50000100
 8005534:	50000400 	.word	0x50000400
 8005538:	50000500 	.word	0x50000500
 800553c:	50000600 	.word	0x50000600

08005540 <STRHAL_ADC_Init>:

void STRHAL_ADC_Init()
{
 8005540:	b590      	push	{r4, r7, lr}
 8005542:	b087      	sub	sp, #28
 8005544:	af02      	add	r7, sp, #8
	{
		LL_AHB1_GRP1_EnableClock(LL_AHB1_GRP1_PERIPH_DMA1);
	}
	else if (STRHAL_ADC_DMA == DMA2)
	{
		LL_AHB1_GRP1_EnableClock(LL_AHB1_GRP1_PERIPH_DMA2);
 8005546:	2002      	movs	r0, #2
 8005548:	f7ff fe66 	bl	8005218 <LL_AHB1_GRP1_EnableClock>
	}

	LL_RCC_SetADCClockSource(LL_RCC_ADC12_CLKSOURCE_SYSCLK);
 800554c:	4846      	ldr	r0, [pc, #280]	; (8005668 <STRHAL_ADC_Init+0x128>)
 800554e:	f7ff fef9 	bl	8005344 <LL_RCC_SetADCClockSource>
	LL_RCC_SetADCClockSource(LL_RCC_ADC345_CLKSOURCE_SYSCLK);
 8005552:	4846      	ldr	r0, [pc, #280]	; (800566c <STRHAL_ADC_Init+0x12c>)
 8005554:	f7ff fef6 	bl	8005344 <LL_RCC_SetADCClockSource>

	LL_AHB1_GRP1_EnableClock(LL_AHB1_GRP1_PERIPH_DMAMUX1);
 8005558:	2004      	movs	r0, #4
 800555a:	f7ff fe5d 	bl	8005218 <LL_AHB1_GRP1_EnableClock>
	LL_AHB2_GRP1_EnableClock(LL_AHB2_GRP1_PERIPH_ADC12);
 800555e:	f44f 5000 	mov.w	r0, #8192	; 0x2000
 8005562:	f7ff fe71 	bl	8005248 <LL_AHB2_GRP1_EnableClock>
	LL_AHB2_GRP1_EnableClock(LL_AHB2_GRP1_PERIPH_ADC345);
 8005566:	f44f 4080 	mov.w	r0, #16384	; 0x4000
 800556a:	f7ff fe6d 	bl	8005248 <LL_AHB2_GRP1_EnableClock>

	//Init DMA for ADC123
	STRHAL_ADC_DmaInit(STRHAL_ADC_DMA, STRHAL_ADC_DMA_CHANNEL, (uint32_t) adc1_buf.data, LL_ADC_DMA_GetRegAddr(ADC1, LL_ADC_DMA_REG_REGULAR_DATA), LL_DMAMUX_REQ_ADC1);
 800556e:	4c40      	ldr	r4, [pc, #256]	; (8005670 <STRHAL_ADC_Init+0x130>)
 8005570:	2100      	movs	r1, #0
 8005572:	f04f 40a0 	mov.w	r0, #1342177280	; 0x50000000
 8005576:	f7ff fccd 	bl	8004f14 <LL_ADC_DMA_GetRegAddr>
 800557a:	4603      	mov	r3, r0
 800557c:	2205      	movs	r2, #5
 800557e:	9200      	str	r2, [sp, #0]
 8005580:	4622      	mov	r2, r4
 8005582:	2100      	movs	r1, #0
 8005584:	483b      	ldr	r0, [pc, #236]	; (8005674 <STRHAL_ADC_Init+0x134>)
 8005586:	f7ff ff43 	bl	8005410 <STRHAL_ADC_DmaInit>
	STRHAL_ADC_DmaInit(STRHAL_ADC_DMA, STRHAL_ADC_DMA_CHANNEL + 1, (uint32_t) adc2_buf.data, LL_ADC_DMA_GetRegAddr(ADC2, LL_ADC_DMA_REG_REGULAR_DATA), LL_DMAMUX_REQ_ADC2);
 800558a:	4c3b      	ldr	r4, [pc, #236]	; (8005678 <STRHAL_ADC_Init+0x138>)
 800558c:	2100      	movs	r1, #0
 800558e:	483b      	ldr	r0, [pc, #236]	; (800567c <STRHAL_ADC_Init+0x13c>)
 8005590:	f7ff fcc0 	bl	8004f14 <LL_ADC_DMA_GetRegAddr>
 8005594:	4603      	mov	r3, r0
 8005596:	2224      	movs	r2, #36	; 0x24
 8005598:	9200      	str	r2, [sp, #0]
 800559a:	4622      	mov	r2, r4
 800559c:	2101      	movs	r1, #1
 800559e:	4835      	ldr	r0, [pc, #212]	; (8005674 <STRHAL_ADC_Init+0x134>)
 80055a0:	f7ff ff36 	bl	8005410 <STRHAL_ADC_DmaInit>
	STRHAL_ADC_DmaInit(STRHAL_ADC_DMA, STRHAL_ADC_DMA_CHANNEL + 2, (uint32_t) adc3_buf.data, LL_ADC_DMA_GetRegAddr(ADC3, LL_ADC_DMA_REG_REGULAR_DATA), LL_DMAMUX_REQ_ADC3);
 80055a4:	4c36      	ldr	r4, [pc, #216]	; (8005680 <STRHAL_ADC_Init+0x140>)
 80055a6:	2100      	movs	r1, #0
 80055a8:	4836      	ldr	r0, [pc, #216]	; (8005684 <STRHAL_ADC_Init+0x144>)
 80055aa:	f7ff fcb3 	bl	8004f14 <LL_ADC_DMA_GetRegAddr>
 80055ae:	4603      	mov	r3, r0
 80055b0:	2225      	movs	r2, #37	; 0x25
 80055b2:	9200      	str	r2, [sp, #0]
 80055b4:	4622      	mov	r2, r4
 80055b6:	2102      	movs	r1, #2
 80055b8:	482e      	ldr	r0, [pc, #184]	; (8005674 <STRHAL_ADC_Init+0x134>)
 80055ba:	f7ff ff29 	bl	8005410 <STRHAL_ADC_DmaInit>
	STRHAL_ADC_DmaInit(STRHAL_ADC_DMA, STRHAL_ADC_DMA_CHANNEL + 3, (uint32_t) adc4_buf.data, LL_ADC_DMA_GetRegAddr(ADC4, LL_ADC_DMA_REG_REGULAR_DATA), LL_DMAMUX_REQ_ADC4);
 80055be:	4c32      	ldr	r4, [pc, #200]	; (8005688 <STRHAL_ADC_Init+0x148>)
 80055c0:	2100      	movs	r1, #0
 80055c2:	4832      	ldr	r0, [pc, #200]	; (800568c <STRHAL_ADC_Init+0x14c>)
 80055c4:	f7ff fca6 	bl	8004f14 <LL_ADC_DMA_GetRegAddr>
 80055c8:	4603      	mov	r3, r0
 80055ca:	2226      	movs	r2, #38	; 0x26
 80055cc:	9200      	str	r2, [sp, #0]
 80055ce:	4622      	mov	r2, r4
 80055d0:	2103      	movs	r1, #3
 80055d2:	4828      	ldr	r0, [pc, #160]	; (8005674 <STRHAL_ADC_Init+0x134>)
 80055d4:	f7ff ff1c 	bl	8005410 <STRHAL_ADC_DmaInit>
	STRHAL_ADC_DmaInit(STRHAL_ADC_DMA, STRHAL_ADC_DMA_CHANNEL + 4, (uint32_t) adc5_buf.data, LL_ADC_DMA_GetRegAddr(ADC5, LL_ADC_DMA_REG_REGULAR_DATA), LL_DMAMUX_REQ_ADC5);
 80055d8:	4c2d      	ldr	r4, [pc, #180]	; (8005690 <STRHAL_ADC_Init+0x150>)
 80055da:	2100      	movs	r1, #0
 80055dc:	482d      	ldr	r0, [pc, #180]	; (8005694 <STRHAL_ADC_Init+0x154>)
 80055de:	f7ff fc99 	bl	8004f14 <LL_ADC_DMA_GetRegAddr>
 80055e2:	4603      	mov	r3, r0
 80055e4:	2227      	movs	r2, #39	; 0x27
 80055e6:	9200      	str	r2, [sp, #0]
 80055e8:	4622      	mov	r2, r4
 80055ea:	2104      	movs	r1, #4
 80055ec:	4821      	ldr	r0, [pc, #132]	; (8005674 <STRHAL_ADC_Init+0x134>)
 80055ee:	f7ff ff0f 	bl	8005410 <STRHAL_ADC_DmaInit>

	LL_ADC_CommonInitTypeDef ADC_CommonInitStruct =
 80055f2:	463b      	mov	r3, r7
 80055f4:	2200      	movs	r2, #0
 80055f6:	601a      	str	r2, [r3, #0]
 80055f8:	605a      	str	r2, [r3, #4]
 80055fa:	609a      	str	r2, [r3, #8]
 80055fc:	60da      	str	r2, [r3, #12]
	{ 0 };

	ADC_CommonInitStruct.CommonClock = STRHAL_ADC_COMMONCLOCK;
 80055fe:	f44f 3340 	mov.w	r3, #196608	; 0x30000
 8005602:	603b      	str	r3, [r7, #0]
	ADC_CommonInitStruct.Multimode = LL_ADC_MULTI_INDEPENDENT;
 8005604:	2300      	movs	r3, #0
 8005606:	607b      	str	r3, [r7, #4]
	LL_ADC_CommonInit(__LL_ADC_COMMON_INSTANCE(ADC1), &ADC_CommonInitStruct);
 8005608:	463b      	mov	r3, r7
 800560a:	4619      	mov	r1, r3
 800560c:	4822      	ldr	r0, [pc, #136]	; (8005698 <STRHAL_ADC_Init+0x158>)
 800560e:	f7fd fb63 	bl	8002cd8 <LL_ADC_CommonInit>
	LL_ADC_CommonInit(__LL_ADC_COMMON_INSTANCE(ADC2), &ADC_CommonInitStruct);
 8005612:	463b      	mov	r3, r7
 8005614:	4619      	mov	r1, r3
 8005616:	4820      	ldr	r0, [pc, #128]	; (8005698 <STRHAL_ADC_Init+0x158>)
 8005618:	f7fd fb5e 	bl	8002cd8 <LL_ADC_CommonInit>
	LL_ADC_CommonInit(__LL_ADC_COMMON_INSTANCE(ADC3), &ADC_CommonInitStruct);
 800561c:	463b      	mov	r3, r7
 800561e:	4619      	mov	r1, r3
 8005620:	481e      	ldr	r0, [pc, #120]	; (800569c <STRHAL_ADC_Init+0x15c>)
 8005622:	f7fd fb59 	bl	8002cd8 <LL_ADC_CommonInit>
	LL_ADC_CommonInit(__LL_ADC_COMMON_INSTANCE(ADC4), &ADC_CommonInitStruct);
 8005626:	463b      	mov	r3, r7
 8005628:	4619      	mov	r1, r3
 800562a:	481c      	ldr	r0, [pc, #112]	; (800569c <STRHAL_ADC_Init+0x15c>)
 800562c:	f7fd fb54 	bl	8002cd8 <LL_ADC_CommonInit>
	LL_ADC_CommonInit(__LL_ADC_COMMON_INSTANCE(ADC5), &ADC_CommonInitStruct);
 8005630:	463b      	mov	r3, r7
 8005632:	4619      	mov	r1, r3
 8005634:	4819      	ldr	r0, [pc, #100]	; (800569c <STRHAL_ADC_Init+0x15c>)
 8005636:	f7fd fb4f 	bl	8002cd8 <LL_ADC_CommonInit>

	STRHAL_ADC_RegInit(ADC1);
 800563a:	f04f 40a0 	mov.w	r0, #1342177280	; 0x50000000
 800563e:	f7ff fea5 	bl	800538c <STRHAL_ADC_RegInit>
	STRHAL_ADC_RegInit(ADC2);
 8005642:	480e      	ldr	r0, [pc, #56]	; (800567c <STRHAL_ADC_Init+0x13c>)
 8005644:	f7ff fea2 	bl	800538c <STRHAL_ADC_RegInit>
	STRHAL_ADC_RegInit(ADC3);
 8005648:	480e      	ldr	r0, [pc, #56]	; (8005684 <STRHAL_ADC_Init+0x144>)
 800564a:	f7ff fe9f 	bl	800538c <STRHAL_ADC_RegInit>
	STRHAL_ADC_RegInit(ADC4);
 800564e:	480f      	ldr	r0, [pc, #60]	; (800568c <STRHAL_ADC_Init+0x14c>)
 8005650:	f7ff fe9c 	bl	800538c <STRHAL_ADC_RegInit>
	STRHAL_ADC_RegInit(ADC5);
 8005654:	480f      	ldr	r0, [pc, #60]	; (8005694 <STRHAL_ADC_Init+0x154>)
 8005656:	f7ff fe99 	bl	800538c <STRHAL_ADC_RegInit>

	STRHAL_ADC_Calibrate();
 800565a:	f7ff ff0b 	bl	8005474 <STRHAL_ADC_Calibrate>
}
 800565e:	bf00      	nop
 8005660:	3714      	adds	r7, #20
 8005662:	46bd      	mov	sp, r7
 8005664:	bd90      	pop	{r4, r7, pc}
 8005666:	bf00      	nop
 8005668:	001c0002 	.word	0x001c0002
 800566c:	001e0002 	.word	0x001e0002
 8005670:	20000a68 	.word	0x20000a68
 8005674:	40020400 	.word	0x40020400
 8005678:	20000a94 	.word	0x20000a94
 800567c:	50000100 	.word	0x50000100
 8005680:	20000ac0 	.word	0x20000ac0
 8005684:	50000400 	.word	0x50000400
 8005688:	20000aec 	.word	0x20000aec
 800568c:	50000500 	.word	0x50000500
 8005690:	20000b18 	.word	0x20000b18
 8005694:	50000600 	.word	0x50000600
 8005698:	50000300 	.word	0x50000300
 800569c:	50000700 	.word	0x50000700

080056a0 <STRHAL_ADC_SubscribeChannel>:

STRHAL_ADC_Data_t* STRHAL_ADC_SubscribeChannel(STRHAL_ADC_Channel_t *channel, STRHAL_ADC_InType_t type)
{
 80056a0:	e92d 4ff0 	stmdb	sp!, {r4, r5, r6, r7, r8, r9, sl, fp, lr}
 80056a4:	b097      	sub	sp, #92	; 0x5c
 80056a6:	af00      	add	r7, sp, #0
 80056a8:	60f8      	str	r0, [r7, #12]
 80056aa:	460b      	mov	r3, r1
 80056ac:	72fb      	strb	r3, [r7, #11]

	STRHAL_ADC_AnalogPin_t analogPin;
	STRHAL_ADC_Data_t *data_ptr = NULL;
 80056ae:	2300      	movs	r3, #0
 80056b0:	657b      	str	r3, [r7, #84]	; 0x54
	uint32_t *length_ptr = NULL;
 80056b2:	2300      	movs	r3, #0
 80056b4:	653b      	str	r3, [r7, #80]	; 0x50
	uint32_t dmaChannel = 0;
 80056b6:	2300      	movs	r3, #0
 80056b8:	64fb      	str	r3, [r7, #76]	; 0x4c
	uint64_t adcChannelMsk[2] = { 0, 0 };
 80056ba:	f04f 0200 	mov.w	r2, #0
 80056be:	f04f 0300 	mov.w	r3, #0
 80056c2:	e9c7 230a 	strd	r2, r3, [r7, #40]	; 0x28
 80056c6:	f04f 0200 	mov.w	r2, #0
 80056ca:	f04f 0300 	mov.w	r3, #0
 80056ce:	e9c7 230c 	strd	r2, r3, [r7, #48]	; 0x30
	if (channel->ADCx == ADC1)
 80056d2:	68fb      	ldr	r3, [r7, #12]
 80056d4:	681b      	ldr	r3, [r3, #0]
 80056d6:	f1b3 4fa0 	cmp.w	r3, #1342177280	; 0x50000000
 80056da:	d11a      	bne.n	8005712 <STRHAL_ADC_SubscribeChannel+0x72>
	{
		analogPin = gpioMapping[0][channel->channelId];
 80056dc:	68fb      	ldr	r3, [r7, #12]
 80056de:	791b      	ldrb	r3, [r3, #4]
 80056e0:	4a9c      	ldr	r2, [pc, #624]	; (8005954 <STRHAL_ADC_SubscribeChannel+0x2b4>)
 80056e2:	011b      	lsls	r3, r3, #4
 80056e4:	4413      	add	r3, r2
 80056e6:	f107 0638 	add.w	r6, r7, #56	; 0x38
 80056ea:	cb0f      	ldmia	r3, {r0, r1, r2, r3}
 80056ec:	e886 000f 	stmia.w	r6, {r0, r1, r2, r3}
		data_ptr = adc1_buf.data;
 80056f0:	4b99      	ldr	r3, [pc, #612]	; (8005958 <STRHAL_ADC_SubscribeChannel+0x2b8>)
 80056f2:	657b      	str	r3, [r7, #84]	; 0x54
		length_ptr = &adc1_buf.length;
 80056f4:	4b99      	ldr	r3, [pc, #612]	; (800595c <STRHAL_ADC_SubscribeChannel+0x2bc>)
 80056f6:	653b      	str	r3, [r7, #80]	; 0x50
		dmaChannel = STRHAL_ADC_DMA_CHANNEL;
 80056f8:	2300      	movs	r3, #0
 80056fa:	64fb      	str	r3, [r7, #76]	; 0x4c
		adcChannelMsk[0] = (1U) << (channel->channelId);
 80056fc:	68fb      	ldr	r3, [r7, #12]
 80056fe:	791b      	ldrb	r3, [r3, #4]
 8005700:	461a      	mov	r2, r3
 8005702:	2301      	movs	r3, #1
 8005704:	4093      	lsls	r3, r2
 8005706:	461a      	mov	r2, r3
 8005708:	f04f 0300 	mov.w	r3, #0
 800570c:	e9c7 230a 	strd	r2, r3, [r7, #40]	; 0x28
 8005710:	e089      	b.n	8005826 <STRHAL_ADC_SubscribeChannel+0x186>
	}
	else if (channel->ADCx == ADC2)
 8005712:	68fb      	ldr	r3, [r7, #12]
 8005714:	681b      	ldr	r3, [r3, #0]
 8005716:	4a92      	ldr	r2, [pc, #584]	; (8005960 <STRHAL_ADC_SubscribeChannel+0x2c0>)
 8005718:	4293      	cmp	r3, r2
 800571a:	d11c      	bne.n	8005756 <STRHAL_ADC_SubscribeChannel+0xb6>
	{
		analogPin = gpioMapping[1][channel->channelId];
 800571c:	68fb      	ldr	r3, [r7, #12]
 800571e:	791b      	ldrb	r3, [r3, #4]
 8005720:	4a8c      	ldr	r2, [pc, #560]	; (8005954 <STRHAL_ADC_SubscribeChannel+0x2b4>)
 8005722:	3313      	adds	r3, #19
 8005724:	011b      	lsls	r3, r3, #4
 8005726:	4413      	add	r3, r2
 8005728:	f107 0638 	add.w	r6, r7, #56	; 0x38
 800572c:	cb0f      	ldmia	r3, {r0, r1, r2, r3}
 800572e:	e886 000f 	stmia.w	r6, {r0, r1, r2, r3}
		data_ptr = adc2_buf.data;
 8005732:	4b8c      	ldr	r3, [pc, #560]	; (8005964 <STRHAL_ADC_SubscribeChannel+0x2c4>)
 8005734:	657b      	str	r3, [r7, #84]	; 0x54
		length_ptr = &adc2_buf.length;
 8005736:	4b8c      	ldr	r3, [pc, #560]	; (8005968 <STRHAL_ADC_SubscribeChannel+0x2c8>)
 8005738:	653b      	str	r3, [r7, #80]	; 0x50
		dmaChannel = STRHAL_ADC_DMA_CHANNEL + 1;
 800573a:	2301      	movs	r3, #1
 800573c:	64fb      	str	r3, [r7, #76]	; 0x4c
		adcChannelMsk[0] = (1U) << (STRHAL_ADC_CHANNEL_LAST + channel->channelId);
 800573e:	68fb      	ldr	r3, [r7, #12]
 8005740:	791b      	ldrb	r3, [r3, #4]
 8005742:	3313      	adds	r3, #19
 8005744:	2201      	movs	r2, #1
 8005746:	fa02 f303 	lsl.w	r3, r2, r3
 800574a:	461a      	mov	r2, r3
 800574c:	f04f 0300 	mov.w	r3, #0
 8005750:	e9c7 230a 	strd	r2, r3, [r7, #40]	; 0x28
 8005754:	e067      	b.n	8005826 <STRHAL_ADC_SubscribeChannel+0x186>
	}
	else if (channel->ADCx == ADC3)
 8005756:	68fb      	ldr	r3, [r7, #12]
 8005758:	681b      	ldr	r3, [r3, #0]
 800575a:	4a84      	ldr	r2, [pc, #528]	; (800596c <STRHAL_ADC_SubscribeChannel+0x2cc>)
 800575c:	4293      	cmp	r3, r2
 800575e:	d11c      	bne.n	800579a <STRHAL_ADC_SubscribeChannel+0xfa>
	{
		analogPin = gpioMapping[2][channel->channelId];
 8005760:	68fb      	ldr	r3, [r7, #12]
 8005762:	791b      	ldrb	r3, [r3, #4]
 8005764:	4a7b      	ldr	r2, [pc, #492]	; (8005954 <STRHAL_ADC_SubscribeChannel+0x2b4>)
 8005766:	3326      	adds	r3, #38	; 0x26
 8005768:	011b      	lsls	r3, r3, #4
 800576a:	4413      	add	r3, r2
 800576c:	f107 0638 	add.w	r6, r7, #56	; 0x38
 8005770:	cb0f      	ldmia	r3, {r0, r1, r2, r3}
 8005772:	e886 000f 	stmia.w	r6, {r0, r1, r2, r3}
		data_ptr = adc3_buf.data;
 8005776:	4b7e      	ldr	r3, [pc, #504]	; (8005970 <STRHAL_ADC_SubscribeChannel+0x2d0>)
 8005778:	657b      	str	r3, [r7, #84]	; 0x54
		length_ptr = &adc3_buf.length;
 800577a:	4b7e      	ldr	r3, [pc, #504]	; (8005974 <STRHAL_ADC_SubscribeChannel+0x2d4>)
 800577c:	653b      	str	r3, [r7, #80]	; 0x50
		dmaChannel = STRHAL_ADC_DMA_CHANNEL + 2;
 800577e:	2302      	movs	r3, #2
 8005780:	64fb      	str	r3, [r7, #76]	; 0x4c
		adcChannelMsk[0] = (1U) << (2 * STRHAL_ADC_CHANNEL_LAST + channel->channelId);
 8005782:	68fb      	ldr	r3, [r7, #12]
 8005784:	791b      	ldrb	r3, [r3, #4]
 8005786:	3326      	adds	r3, #38	; 0x26
 8005788:	2201      	movs	r2, #1
 800578a:	fa02 f303 	lsl.w	r3, r2, r3
 800578e:	461a      	mov	r2, r3
 8005790:	f04f 0300 	mov.w	r3, #0
 8005794:	e9c7 230a 	strd	r2, r3, [r7, #40]	; 0x28
 8005798:	e045      	b.n	8005826 <STRHAL_ADC_SubscribeChannel+0x186>
	}
	else if (channel->ADCx == ADC4)
 800579a:	68fb      	ldr	r3, [r7, #12]
 800579c:	681b      	ldr	r3, [r3, #0]
 800579e:	4a76      	ldr	r2, [pc, #472]	; (8005978 <STRHAL_ADC_SubscribeChannel+0x2d8>)
 80057a0:	4293      	cmp	r3, r2
 80057a2:	d11c      	bne.n	80057de <STRHAL_ADC_SubscribeChannel+0x13e>
	{
		analogPin = gpioMapping[3][channel->channelId];
 80057a4:	68fb      	ldr	r3, [r7, #12]
 80057a6:	791b      	ldrb	r3, [r3, #4]
 80057a8:	4a6a      	ldr	r2, [pc, #424]	; (8005954 <STRHAL_ADC_SubscribeChannel+0x2b4>)
 80057aa:	3339      	adds	r3, #57	; 0x39
 80057ac:	011b      	lsls	r3, r3, #4
 80057ae:	4413      	add	r3, r2
 80057b0:	f107 0638 	add.w	r6, r7, #56	; 0x38
 80057b4:	cb0f      	ldmia	r3, {r0, r1, r2, r3}
 80057b6:	e886 000f 	stmia.w	r6, {r0, r1, r2, r3}
		data_ptr = adc3_buf.data;
 80057ba:	4b6d      	ldr	r3, [pc, #436]	; (8005970 <STRHAL_ADC_SubscribeChannel+0x2d0>)
 80057bc:	657b      	str	r3, [r7, #84]	; 0x54
		length_ptr = &adc3_buf.length;
 80057be:	4b6d      	ldr	r3, [pc, #436]	; (8005974 <STRHAL_ADC_SubscribeChannel+0x2d4>)
 80057c0:	653b      	str	r3, [r7, #80]	; 0x50
		dmaChannel = STRHAL_ADC_DMA_CHANNEL + 3;
 80057c2:	2303      	movs	r3, #3
 80057c4:	64fb      	str	r3, [r7, #76]	; 0x4c
		adcChannelMsk[1] = (1U) << (2 * STRHAL_ADC_CHANNEL_LAST + channel->channelId);
 80057c6:	68fb      	ldr	r3, [r7, #12]
 80057c8:	791b      	ldrb	r3, [r3, #4]
 80057ca:	3326      	adds	r3, #38	; 0x26
 80057cc:	2201      	movs	r2, #1
 80057ce:	fa02 f303 	lsl.w	r3, r2, r3
 80057d2:	461a      	mov	r2, r3
 80057d4:	f04f 0300 	mov.w	r3, #0
 80057d8:	e9c7 230c 	strd	r2, r3, [r7, #48]	; 0x30
 80057dc:	e023      	b.n	8005826 <STRHAL_ADC_SubscribeChannel+0x186>
	}
	else if (channel->ADCx == ADC5)
 80057de:	68fb      	ldr	r3, [r7, #12]
 80057e0:	681b      	ldr	r3, [r3, #0]
 80057e2:	4a66      	ldr	r2, [pc, #408]	; (800597c <STRHAL_ADC_SubscribeChannel+0x2dc>)
 80057e4:	4293      	cmp	r3, r2
 80057e6:	d11c      	bne.n	8005822 <STRHAL_ADC_SubscribeChannel+0x182>
	{
		analogPin = gpioMapping[4][channel->channelId];
 80057e8:	68fb      	ldr	r3, [r7, #12]
 80057ea:	791b      	ldrb	r3, [r3, #4]
 80057ec:	4a59      	ldr	r2, [pc, #356]	; (8005954 <STRHAL_ADC_SubscribeChannel+0x2b4>)
 80057ee:	334c      	adds	r3, #76	; 0x4c
 80057f0:	011b      	lsls	r3, r3, #4
 80057f2:	4413      	add	r3, r2
 80057f4:	f107 0638 	add.w	r6, r7, #56	; 0x38
 80057f8:	cb0f      	ldmia	r3, {r0, r1, r2, r3}
 80057fa:	e886 000f 	stmia.w	r6, {r0, r1, r2, r3}
		data_ptr = adc3_buf.data;
 80057fe:	4b5c      	ldr	r3, [pc, #368]	; (8005970 <STRHAL_ADC_SubscribeChannel+0x2d0>)
 8005800:	657b      	str	r3, [r7, #84]	; 0x54
		length_ptr = &adc3_buf.length;
 8005802:	4b5c      	ldr	r3, [pc, #368]	; (8005974 <STRHAL_ADC_SubscribeChannel+0x2d4>)
 8005804:	653b      	str	r3, [r7, #80]	; 0x50
		dmaChannel = STRHAL_ADC_DMA_CHANNEL + 4;
 8005806:	2304      	movs	r3, #4
 8005808:	64fb      	str	r3, [r7, #76]	; 0x4c
		adcChannelMsk[1] = (1U) << (2 * STRHAL_ADC_CHANNEL_LAST + channel->channelId);
 800580a:	68fb      	ldr	r3, [r7, #12]
 800580c:	791b      	ldrb	r3, [r3, #4]
 800580e:	3326      	adds	r3, #38	; 0x26
 8005810:	2201      	movs	r2, #1
 8005812:	fa02 f303 	lsl.w	r3, r2, r3
 8005816:	461a      	mov	r2, r3
 8005818:	f04f 0300 	mov.w	r3, #0
 800581c:	e9c7 230c 	strd	r2, r3, [r7, #48]	; 0x30
 8005820:	e001      	b.n	8005826 <STRHAL_ADC_SubscribeChannel+0x186>
	}
	else
	{
		return NULL;
 8005822:	2300      	movs	r3, #0
 8005824:	e091      	b.n	800594a <STRHAL_ADC_SubscribeChannel+0x2aa>
	}

	// wrong input type passed
	if (analogPin.type != type)
 8005826:	f897 3040 	ldrb.w	r3, [r7, #64]	; 0x40
 800582a:	7afa      	ldrb	r2, [r7, #11]
 800582c:	429a      	cmp	r2, r3
 800582e:	d001      	beq.n	8005834 <STRHAL_ADC_SubscribeChannel+0x194>
	{
		return NULL;
 8005830:	2300      	movs	r3, #0
 8005832:	e08a      	b.n	800594a <STRHAL_ADC_SubscribeChannel+0x2aa>
	}

	// channel already initialized
	if ((STRHAL_ADC_ChannelState[0] & adcChannelMsk[0]) && (STRHAL_ADC_ChannelState[1] & adcChannelMsk[1]))
 8005834:	4b52      	ldr	r3, [pc, #328]	; (8005980 <STRHAL_ADC_SubscribeChannel+0x2e0>)
 8005836:	e9d3 0100 	ldrd	r0, r1, [r3]
 800583a:	e9d7 230a 	ldrd	r2, r3, [r7, #40]	; 0x28
 800583e:	ea00 0602 	and.w	r6, r0, r2
 8005842:	603e      	str	r6, [r7, #0]
 8005844:	400b      	ands	r3, r1
 8005846:	607b      	str	r3, [r7, #4]
 8005848:	e9d7 2300 	ldrd	r2, r3, [r7]
 800584c:	4313      	orrs	r3, r2
 800584e:	d00d      	beq.n	800586c <STRHAL_ADC_SubscribeChannel+0x1cc>
 8005850:	4b4b      	ldr	r3, [pc, #300]	; (8005980 <STRHAL_ADC_SubscribeChannel+0x2e0>)
 8005852:	e9d3 0102 	ldrd	r0, r1, [r3, #8]
 8005856:	e9d7 230c 	ldrd	r2, r3, [r7, #48]	; 0x30
 800585a:	ea00 0a02 	and.w	sl, r0, r2
 800585e:	ea01 0b03 	and.w	fp, r1, r3
 8005862:	ea5a 030b 	orrs.w	r3, sl, fp
 8005866:	d001      	beq.n	800586c <STRHAL_ADC_SubscribeChannel+0x1cc>
	{
		return NULL;
 8005868:	2300      	movs	r3, #0
 800586a:	e06e      	b.n	800594a <STRHAL_ADC_SubscribeChannel+0x2aa>
	}

	STRHAL_ADC_ChannelState[0] |= adcChannelMsk[0];
 800586c:	4b44      	ldr	r3, [pc, #272]	; (8005980 <STRHAL_ADC_SubscribeChannel+0x2e0>)
 800586e:	e9d3 0100 	ldrd	r0, r1, [r3]
 8005872:	e9d7 230a 	ldrd	r2, r3, [r7, #40]	; 0x28
 8005876:	ea40 0802 	orr.w	r8, r0, r2
 800587a:	ea41 0903 	orr.w	r9, r1, r3
 800587e:	4b40      	ldr	r3, [pc, #256]	; (8005980 <STRHAL_ADC_SubscribeChannel+0x2e0>)
 8005880:	e9c3 8900 	strd	r8, r9, [r3]
	STRHAL_ADC_ChannelState[1] |= adcChannelMsk[1];
 8005884:	4b3e      	ldr	r3, [pc, #248]	; (8005980 <STRHAL_ADC_SubscribeChannel+0x2e0>)
 8005886:	e9d3 0102 	ldrd	r0, r1, [r3, #8]
 800588a:	e9d7 230c 	ldrd	r2, r3, [r7, #48]	; 0x30
 800588e:	ea40 0402 	orr.w	r4, r0, r2
 8005892:	ea41 0503 	orr.w	r5, r1, r3
 8005896:	4b3a      	ldr	r3, [pc, #232]	; (8005980 <STRHAL_ADC_SubscribeChannel+0x2e0>)
 8005898:	e9c3 4502 	strd	r4, r5, [r3, #8]

	LL_AHB2_GRP1_EnableClock(LL_AHB2_GRP1_PERIPH_GPIOC);
 800589c:	2004      	movs	r0, #4
 800589e:	f7ff fcd3 	bl	8005248 <LL_AHB2_GRP1_EnableClock>
	LL_AHB2_GRP1_EnableClock(LL_AHB2_GRP1_PERIPH_GPIOF);
 80058a2:	2020      	movs	r0, #32
 80058a4:	f7ff fcd0 	bl	8005248 <LL_AHB2_GRP1_EnableClock>
	LL_AHB2_GRP1_EnableClock(LL_AHB2_GRP1_PERIPH_GPIOA);
 80058a8:	2001      	movs	r0, #1
 80058aa:	f7ff fccd 	bl	8005248 <LL_AHB2_GRP1_EnableClock>
	LL_AHB2_GRP1_EnableClock(LL_AHB2_GRP1_PERIPH_GPIOB);
 80058ae:	2002      	movs	r0, #2
 80058b0:	f7ff fcca 	bl	8005248 <LL_AHB2_GRP1_EnableClock>
	LL_AHB2_GRP1_EnableClock(LL_AHB2_GRP1_PERIPH_GPIOE);
 80058b4:	2010      	movs	r0, #16
 80058b6:	f7ff fcc7 	bl	8005248 <LL_AHB2_GRP1_EnableClock>
	LL_AHB2_GRP1_EnableClock(LL_AHB2_GRP1_PERIPH_GPIOD);
 80058ba:	2008      	movs	r0, #8
 80058bc:	f7ff fcc4 	bl	8005248 <LL_AHB2_GRP1_EnableClock>

	if (type == STRHAL_ADC_INTYPE_REGULAR)
 80058c0:	7afb      	ldrb	r3, [r7, #11]
 80058c2:	2b00      	cmp	r3, #0
 80058c4:	d115      	bne.n	80058f2 <STRHAL_ADC_SubscribeChannel+0x252>
	{
		LL_GPIO_InitTypeDef GPIO_InitStruct =
 80058c6:	f107 0310 	add.w	r3, r7, #16
 80058ca:	2200      	movs	r2, #0
 80058cc:	601a      	str	r2, [r3, #0]
 80058ce:	605a      	str	r2, [r3, #4]
 80058d0:	609a      	str	r2, [r3, #8]
 80058d2:	60da      	str	r2, [r3, #12]
 80058d4:	611a      	str	r2, [r3, #16]
 80058d6:	615a      	str	r2, [r3, #20]
		{ 0 };

		GPIO_InitStruct.Pin = analogPin.pin;
 80058d8:	6bfb      	ldr	r3, [r7, #60]	; 0x3c
 80058da:	613b      	str	r3, [r7, #16]
		GPIO_InitStruct.Mode = LL_GPIO_MODE_ANALOG;
 80058dc:	2303      	movs	r3, #3
 80058de:	617b      	str	r3, [r7, #20]
		GPIO_InitStruct.Pull = LL_GPIO_PULL_NO;
 80058e0:	2300      	movs	r3, #0
 80058e2:	623b      	str	r3, [r7, #32]
		LL_GPIO_Init(analogPin.port, &GPIO_InitStruct);
 80058e4:	6bbb      	ldr	r3, [r7, #56]	; 0x38
 80058e6:	f107 0210 	add.w	r2, r7, #16
 80058ea:	4611      	mov	r1, r2
 80058ec:	4618      	mov	r0, r3
 80058ee:	f7fd fcfe 	bl	80032ee <LL_GPIO_Init>
	}

	LL_ADC_SetChannelSamplingTime(channel->ADCx, analogPin.channel, STRHAL_ADC_CHANNEL_SAMPLINGTIME);
 80058f2:	68fb      	ldr	r3, [r7, #12]
 80058f4:	681b      	ldr	r3, [r3, #0]
 80058f6:	6c79      	ldr	r1, [r7, #68]	; 0x44
 80058f8:	2206      	movs	r2, #6
 80058fa:	4618      	mov	r0, r3
 80058fc:	f7ff fb94 	bl	8005028 <LL_ADC_SetChannelSamplingTime>
	LL_ADC_SetChannelSingleDiff(channel->ADCx, analogPin.channel, STRHAL_ADC_SINGLEDIFF);
 8005900:	68fb      	ldr	r3, [r7, #12]
 8005902:	681b      	ldr	r3, [r3, #0]
 8005904:	6c79      	ldr	r1, [r7, #68]	; 0x44
 8005906:	227f      	movs	r2, #127	; 0x7f
 8005908:	4618      	mov	r0, r3
 800590a:	f7ff fbb9 	bl	8005080 <LL_ADC_SetChannelSingleDiff>

	LL_ADC_REG_SetSequencerRanks(channel->ADCx, adcRanks[*length_ptr], analogPin.channel);
 800590e:	68fb      	ldr	r3, [r7, #12]
 8005910:	6818      	ldr	r0, [r3, #0]
 8005912:	6d3b      	ldr	r3, [r7, #80]	; 0x50
 8005914:	681b      	ldr	r3, [r3, #0]
 8005916:	4a1b      	ldr	r2, [pc, #108]	; (8005984 <STRHAL_ADC_SubscribeChannel+0x2e4>)
 8005918:	f852 3023 	ldr.w	r3, [r2, r3, lsl #2]
 800591c:	6c7a      	ldr	r2, [r7, #68]	; 0x44
 800591e:	4619      	mov	r1, r3
 8005920:	f7ff fb56 	bl	8004fd0 <LL_ADC_REG_SetSequencerRanks>
	uint32_t length = *length_ptr;
 8005924:	6d3b      	ldr	r3, [r7, #80]	; 0x50
 8005926:	681b      	ldr	r3, [r3, #0]
 8005928:	64bb      	str	r3, [r7, #72]	; 0x48
	LL_DMA_SetDataLength(STRHAL_ADC_DMA, dmaChannel, length + 1);
 800592a:	6cbb      	ldr	r3, [r7, #72]	; 0x48
 800592c:	3301      	adds	r3, #1
 800592e:	461a      	mov	r2, r3
 8005930:	6cf9      	ldr	r1, [r7, #76]	; 0x4c
 8005932:	4815      	ldr	r0, [pc, #84]	; (8005988 <STRHAL_ADC_SubscribeChannel+0x2e8>)
 8005934:	f7ff fce0 	bl	80052f8 <LL_DMA_SetDataLength>
	(*length_ptr)++;
 8005938:	6d3b      	ldr	r3, [r7, #80]	; 0x50
 800593a:	681b      	ldr	r3, [r3, #0]
 800593c:	1c5a      	adds	r2, r3, #1
 800593e:	6d3b      	ldr	r3, [r7, #80]	; 0x50
 8005940:	601a      	str	r2, [r3, #0]
	return &data_ptr[length];
 8005942:	6cbb      	ldr	r3, [r7, #72]	; 0x48
 8005944:	005b      	lsls	r3, r3, #1
 8005946:	6d7a      	ldr	r2, [r7, #84]	; 0x54
 8005948:	4413      	add	r3, r2
}
 800594a:	4618      	mov	r0, r3
 800594c:	375c      	adds	r7, #92	; 0x5c
 800594e:	46bd      	mov	sp, r7
 8005950:	e8bd 8ff0 	ldmia.w	sp!, {r4, r5, r6, r7, r8, r9, sl, fp, pc}
 8005954:	080090c4 	.word	0x080090c4
 8005958:	20000a68 	.word	0x20000a68
 800595c:	20000a90 	.word	0x20000a90
 8005960:	50000100 	.word	0x50000100
 8005964:	20000a94 	.word	0x20000a94
 8005968:	20000abc 	.word	0x20000abc
 800596c:	50000400 	.word	0x50000400
 8005970:	20000ac0 	.word	0x20000ac0
 8005974:	20000ae8 	.word	0x20000ae8
 8005978:	50000500 	.word	0x50000500
 800597c:	50000600 	.word	0x50000600
 8005980:	20000b48 	.word	0x20000b48
 8005984:	08009044 	.word	0x08009044
 8005988:	40020400 	.word	0x40020400

0800598c <STRHAL_ADC_Run>:

void STRHAL_ADC_Run()
{
 800598c:	b580      	push	{r7, lr}
 800598e:	af00      	add	r7, sp, #0
	LL_ADC_REG_SetSequencerLength(ADC1, adcSeqRanks[adc1_buf.length - 1]);
 8005990:	4b5a      	ldr	r3, [pc, #360]	; (8005afc <STRHAL_ADC_Run+0x170>)
 8005992:	6a9b      	ldr	r3, [r3, #40]	; 0x28
 8005994:	3b01      	subs	r3, #1
 8005996:	4a5a      	ldr	r2, [pc, #360]	; (8005b00 <STRHAL_ADC_Run+0x174>)
 8005998:	f852 3023 	ldr.w	r3, [r2, r3, lsl #2]
 800599c:	4619      	mov	r1, r3
 800599e:	f04f 40a0 	mov.w	r0, #1342177280	; 0x50000000
 80059a2:	f7ff fb02 	bl	8004faa <LL_ADC_REG_SetSequencerLength>
	LL_ADC_REG_SetSequencerLength(ADC2, adcSeqRanks[adc2_buf.length - 1]);
 80059a6:	4b57      	ldr	r3, [pc, #348]	; (8005b04 <STRHAL_ADC_Run+0x178>)
 80059a8:	6a9b      	ldr	r3, [r3, #40]	; 0x28
 80059aa:	3b01      	subs	r3, #1
 80059ac:	4a54      	ldr	r2, [pc, #336]	; (8005b00 <STRHAL_ADC_Run+0x174>)
 80059ae:	f852 3023 	ldr.w	r3, [r2, r3, lsl #2]
 80059b2:	4619      	mov	r1, r3
 80059b4:	4854      	ldr	r0, [pc, #336]	; (8005b08 <STRHAL_ADC_Run+0x17c>)
 80059b6:	f7ff faf8 	bl	8004faa <LL_ADC_REG_SetSequencerLength>
	LL_ADC_REG_SetSequencerLength(ADC3, adcSeqRanks[adc3_buf.length - 1]);
 80059ba:	4b54      	ldr	r3, [pc, #336]	; (8005b0c <STRHAL_ADC_Run+0x180>)
 80059bc:	6a9b      	ldr	r3, [r3, #40]	; 0x28
 80059be:	3b01      	subs	r3, #1
 80059c0:	4a4f      	ldr	r2, [pc, #316]	; (8005b00 <STRHAL_ADC_Run+0x174>)
 80059c2:	f852 3023 	ldr.w	r3, [r2, r3, lsl #2]
 80059c6:	4619      	mov	r1, r3
 80059c8:	4851      	ldr	r0, [pc, #324]	; (8005b10 <STRHAL_ADC_Run+0x184>)
 80059ca:	f7ff faee 	bl	8004faa <LL_ADC_REG_SetSequencerLength>
	LL_ADC_REG_SetSequencerLength(ADC4, adcSeqRanks[adc4_buf.length - 1]);
 80059ce:	4b51      	ldr	r3, [pc, #324]	; (8005b14 <STRHAL_ADC_Run+0x188>)
 80059d0:	6a9b      	ldr	r3, [r3, #40]	; 0x28
 80059d2:	3b01      	subs	r3, #1
 80059d4:	4a4a      	ldr	r2, [pc, #296]	; (8005b00 <STRHAL_ADC_Run+0x174>)
 80059d6:	f852 3023 	ldr.w	r3, [r2, r3, lsl #2]
 80059da:	4619      	mov	r1, r3
 80059dc:	484e      	ldr	r0, [pc, #312]	; (8005b18 <STRHAL_ADC_Run+0x18c>)
 80059de:	f7ff fae4 	bl	8004faa <LL_ADC_REG_SetSequencerLength>
	LL_ADC_REG_SetSequencerLength(ADC5, adcSeqRanks[adc5_buf.length - 1]);
 80059e2:	4b4e      	ldr	r3, [pc, #312]	; (8005b1c <STRHAL_ADC_Run+0x190>)
 80059e4:	6a9b      	ldr	r3, [r3, #40]	; 0x28
 80059e6:	3b01      	subs	r3, #1
 80059e8:	4a45      	ldr	r2, [pc, #276]	; (8005b00 <STRHAL_ADC_Run+0x174>)
 80059ea:	f852 3023 	ldr.w	r3, [r2, r3, lsl #2]
 80059ee:	4619      	mov	r1, r3
 80059f0:	484b      	ldr	r0, [pc, #300]	; (8005b20 <STRHAL_ADC_Run+0x194>)
 80059f2:	f7ff fada 	bl	8004faa <LL_ADC_REG_SetSequencerLength>

	LL_DMA_EnableChannel(STRHAL_ADC_DMA, STRHAL_ADC_DMA_CHANNEL);
 80059f6:	2100      	movs	r1, #0
 80059f8:	484a      	ldr	r0, [pc, #296]	; (8005b24 <STRHAL_ADC_Run+0x198>)
 80059fa:	f7ff fc3d 	bl	8005278 <LL_DMA_EnableChannel>
	while (!LL_DMA_IsEnabledChannel(STRHAL_ADC_DMA, STRHAL_ADC_DMA_CHANNEL));
 80059fe:	bf00      	nop
 8005a00:	2100      	movs	r1, #0
 8005a02:	4848      	ldr	r0, [pc, #288]	; (8005b24 <STRHAL_ADC_Run+0x198>)
 8005a04:	f7ff fc5a 	bl	80052bc <LL_DMA_IsEnabledChannel>
 8005a08:	4603      	mov	r3, r0
 8005a0a:	2b00      	cmp	r3, #0
 8005a0c:	d0f8      	beq.n	8005a00 <STRHAL_ADC_Run+0x74>
	LL_DMA_EnableChannel(STRHAL_ADC_DMA, STRHAL_ADC_DMA_CHANNEL + 1);
 8005a0e:	2101      	movs	r1, #1
 8005a10:	4844      	ldr	r0, [pc, #272]	; (8005b24 <STRHAL_ADC_Run+0x198>)
 8005a12:	f7ff fc31 	bl	8005278 <LL_DMA_EnableChannel>
	while (!LL_DMA_IsEnabledChannel(STRHAL_ADC_DMA, STRHAL_ADC_DMA_CHANNEL + 1));
 8005a16:	bf00      	nop
 8005a18:	2101      	movs	r1, #1
 8005a1a:	4842      	ldr	r0, [pc, #264]	; (8005b24 <STRHAL_ADC_Run+0x198>)
 8005a1c:	f7ff fc4e 	bl	80052bc <LL_DMA_IsEnabledChannel>
 8005a20:	4603      	mov	r3, r0
 8005a22:	2b00      	cmp	r3, #0
 8005a24:	d0f8      	beq.n	8005a18 <STRHAL_ADC_Run+0x8c>
	LL_DMA_EnableChannel(STRHAL_ADC_DMA, STRHAL_ADC_DMA_CHANNEL + 2);
 8005a26:	2102      	movs	r1, #2
 8005a28:	483e      	ldr	r0, [pc, #248]	; (8005b24 <STRHAL_ADC_Run+0x198>)
 8005a2a:	f7ff fc25 	bl	8005278 <LL_DMA_EnableChannel>
	while (!LL_DMA_IsEnabledChannel(STRHAL_ADC_DMA, STRHAL_ADC_DMA_CHANNEL + 2));
 8005a2e:	bf00      	nop
 8005a30:	2102      	movs	r1, #2
 8005a32:	483c      	ldr	r0, [pc, #240]	; (8005b24 <STRHAL_ADC_Run+0x198>)
 8005a34:	f7ff fc42 	bl	80052bc <LL_DMA_IsEnabledChannel>
 8005a38:	4603      	mov	r3, r0
 8005a3a:	2b00      	cmp	r3, #0
 8005a3c:	d0f8      	beq.n	8005a30 <STRHAL_ADC_Run+0xa4>
	LL_DMA_EnableChannel(STRHAL_ADC_DMA, STRHAL_ADC_DMA_CHANNEL + 3);
 8005a3e:	2103      	movs	r1, #3
 8005a40:	4838      	ldr	r0, [pc, #224]	; (8005b24 <STRHAL_ADC_Run+0x198>)
 8005a42:	f7ff fc19 	bl	8005278 <LL_DMA_EnableChannel>
	while (!LL_DMA_IsEnabledChannel(STRHAL_ADC_DMA, STRHAL_ADC_DMA_CHANNEL + 3));
 8005a46:	bf00      	nop
 8005a48:	2103      	movs	r1, #3
 8005a4a:	4836      	ldr	r0, [pc, #216]	; (8005b24 <STRHAL_ADC_Run+0x198>)
 8005a4c:	f7ff fc36 	bl	80052bc <LL_DMA_IsEnabledChannel>
 8005a50:	4603      	mov	r3, r0
 8005a52:	2b00      	cmp	r3, #0
 8005a54:	d0f8      	beq.n	8005a48 <STRHAL_ADC_Run+0xbc>
	LL_DMA_EnableChannel(STRHAL_ADC_DMA, STRHAL_ADC_DMA_CHANNEL + 4);
 8005a56:	2104      	movs	r1, #4
 8005a58:	4832      	ldr	r0, [pc, #200]	; (8005b24 <STRHAL_ADC_Run+0x198>)
 8005a5a:	f7ff fc0d 	bl	8005278 <LL_DMA_EnableChannel>
	while (!LL_DMA_IsEnabledChannel(STRHAL_ADC_DMA, STRHAL_ADC_DMA_CHANNEL + 4));
 8005a5e:	bf00      	nop
 8005a60:	2104      	movs	r1, #4
 8005a62:	4830      	ldr	r0, [pc, #192]	; (8005b24 <STRHAL_ADC_Run+0x198>)
 8005a64:	f7ff fc2a 	bl	80052bc <LL_DMA_IsEnabledChannel>
 8005a68:	4603      	mov	r3, r0
 8005a6a:	2b00      	cmp	r3, #0
 8005a6c:	d0f8      	beq.n	8005a60 <STRHAL_ADC_Run+0xd4>

	LL_ADC_Enable(ADC1);
 8005a6e:	f04f 40a0 	mov.w	r0, #1342177280	; 0x50000000
 8005a72:	f7ff fb68 	bl	8005146 <LL_ADC_Enable>
	while (LL_ADC_IsActiveFlag_ADRDY(ADC1) == 0);
 8005a76:	bf00      	nop
 8005a78:	f04f 40a0 	mov.w	r0, #1342177280	; 0x50000000
 8005a7c:	f7ff fbb8 	bl	80051f0 <LL_ADC_IsActiveFlag_ADRDY>
 8005a80:	4603      	mov	r3, r0
 8005a82:	2b00      	cmp	r3, #0
 8005a84:	d0f8      	beq.n	8005a78 <STRHAL_ADC_Run+0xec>
	LL_ADC_Enable(ADC2);
 8005a86:	4820      	ldr	r0, [pc, #128]	; (8005b08 <STRHAL_ADC_Run+0x17c>)
 8005a88:	f7ff fb5d 	bl	8005146 <LL_ADC_Enable>
	while (LL_ADC_IsActiveFlag_ADRDY(ADC2) == 0);
 8005a8c:	bf00      	nop
 8005a8e:	481e      	ldr	r0, [pc, #120]	; (8005b08 <STRHAL_ADC_Run+0x17c>)
 8005a90:	f7ff fbae 	bl	80051f0 <LL_ADC_IsActiveFlag_ADRDY>
 8005a94:	4603      	mov	r3, r0
 8005a96:	2b00      	cmp	r3, #0
 8005a98:	d0f9      	beq.n	8005a8e <STRHAL_ADC_Run+0x102>
	LL_ADC_Enable(ADC3);
 8005a9a:	481d      	ldr	r0, [pc, #116]	; (8005b10 <STRHAL_ADC_Run+0x184>)
 8005a9c:	f7ff fb53 	bl	8005146 <LL_ADC_Enable>
	while (LL_ADC_IsActiveFlag_ADRDY(ADC3) == 0);
 8005aa0:	bf00      	nop
 8005aa2:	481b      	ldr	r0, [pc, #108]	; (8005b10 <STRHAL_ADC_Run+0x184>)
 8005aa4:	f7ff fba4 	bl	80051f0 <LL_ADC_IsActiveFlag_ADRDY>
 8005aa8:	4603      	mov	r3, r0
 8005aaa:	2b00      	cmp	r3, #0
 8005aac:	d0f9      	beq.n	8005aa2 <STRHAL_ADC_Run+0x116>
	LL_ADC_Enable(ADC4);
 8005aae:	481a      	ldr	r0, [pc, #104]	; (8005b18 <STRHAL_ADC_Run+0x18c>)
 8005ab0:	f7ff fb49 	bl	8005146 <LL_ADC_Enable>
	while (LL_ADC_IsActiveFlag_ADRDY(ADC4) == 0);
 8005ab4:	bf00      	nop
 8005ab6:	4818      	ldr	r0, [pc, #96]	; (8005b18 <STRHAL_ADC_Run+0x18c>)
 8005ab8:	f7ff fb9a 	bl	80051f0 <LL_ADC_IsActiveFlag_ADRDY>
 8005abc:	4603      	mov	r3, r0
 8005abe:	2b00      	cmp	r3, #0
 8005ac0:	d0f9      	beq.n	8005ab6 <STRHAL_ADC_Run+0x12a>
	LL_ADC_Enable(ADC5);
 8005ac2:	4817      	ldr	r0, [pc, #92]	; (8005b20 <STRHAL_ADC_Run+0x194>)
 8005ac4:	f7ff fb3f 	bl	8005146 <LL_ADC_Enable>
	while (LL_ADC_IsActiveFlag_ADRDY(ADC5) == 0);
 8005ac8:	bf00      	nop
 8005aca:	4815      	ldr	r0, [pc, #84]	; (8005b20 <STRHAL_ADC_Run+0x194>)
 8005acc:	f7ff fb90 	bl	80051f0 <LL_ADC_IsActiveFlag_ADRDY>
 8005ad0:	4603      	mov	r3, r0
 8005ad2:	2b00      	cmp	r3, #0
 8005ad4:	d0f9      	beq.n	8005aca <STRHAL_ADC_Run+0x13e>

	LL_ADC_REG_StartConversion(ADC1);
 8005ad6:	f04f 40a0 	mov.w	r0, #1342177280	; 0x50000000
 8005ada:	f7ff fb75 	bl	80051c8 <LL_ADC_REG_StartConversion>
	LL_ADC_REG_StartConversion(ADC2);
 8005ade:	480a      	ldr	r0, [pc, #40]	; (8005b08 <STRHAL_ADC_Run+0x17c>)
 8005ae0:	f7ff fb72 	bl	80051c8 <LL_ADC_REG_StartConversion>
	LL_ADC_REG_StartConversion(ADC3);
 8005ae4:	480a      	ldr	r0, [pc, #40]	; (8005b10 <STRHAL_ADC_Run+0x184>)
 8005ae6:	f7ff fb6f 	bl	80051c8 <LL_ADC_REG_StartConversion>
	LL_ADC_REG_StartConversion(ADC4);
 8005aea:	480b      	ldr	r0, [pc, #44]	; (8005b18 <STRHAL_ADC_Run+0x18c>)
 8005aec:	f7ff fb6c 	bl	80051c8 <LL_ADC_REG_StartConversion>
	LL_ADC_REG_StartConversion(ADC5);
 8005af0:	480b      	ldr	r0, [pc, #44]	; (8005b20 <STRHAL_ADC_Run+0x194>)
 8005af2:	f7ff fb69 	bl	80051c8 <LL_ADC_REG_StartConversion>
}
 8005af6:	bf00      	nop
 8005af8:	bd80      	pop	{r7, pc}
 8005afa:	bf00      	nop
 8005afc:	20000a68 	.word	0x20000a68
 8005b00:	08009084 	.word	0x08009084
 8005b04:	20000a94 	.word	0x20000a94
 8005b08:	50000100 	.word	0x50000100
 8005b0c:	20000ac0 	.word	0x20000ac0
 8005b10:	50000400 	.word	0x50000400
 8005b14:	20000aec 	.word	0x20000aec
 8005b18:	50000500 	.word	0x50000500
 8005b1c:	20000b18 	.word	0x20000b18
 8005b20:	50000600 	.word	0x50000600
 8005b24:	40020400 	.word	0x40020400

08005b28 <__NVIC_GetPriorityGrouping>:
  \brief   Get Priority Grouping
  \details Reads the priority grouping field from the NVIC Interrupt Controller.
  \return                Priority grouping field (SCB->AIRCR [10:8] PRIGROUP field).
 */
__STATIC_INLINE uint32_t __NVIC_GetPriorityGrouping(void)
{
 8005b28:	b480      	push	{r7}
 8005b2a:	af00      	add	r7, sp, #0
  return ((uint32_t)((SCB->AIRCR & SCB_AIRCR_PRIGROUP_Msk) >> SCB_AIRCR_PRIGROUP_Pos));
 8005b2c:	4b04      	ldr	r3, [pc, #16]	; (8005b40 <__NVIC_GetPriorityGrouping+0x18>)
 8005b2e:	68db      	ldr	r3, [r3, #12]
 8005b30:	0a1b      	lsrs	r3, r3, #8
 8005b32:	f003 0307 	and.w	r3, r3, #7
}
 8005b36:	4618      	mov	r0, r3
 8005b38:	46bd      	mov	sp, r7
 8005b3a:	f85d 7b04 	ldr.w	r7, [sp], #4
 8005b3e:	4770      	bx	lr
 8005b40:	e000ed00 	.word	0xe000ed00

08005b44 <__NVIC_EnableIRQ>:
  \details Enables a device specific interrupt in the NVIC interrupt controller.
  \param [in]      IRQn  Device specific interrupt number.
  \note    IRQn must not be negative.
 */
__STATIC_INLINE void __NVIC_EnableIRQ(IRQn_Type IRQn)
{
 8005b44:	b480      	push	{r7}
 8005b46:	b083      	sub	sp, #12
 8005b48:	af00      	add	r7, sp, #0
 8005b4a:	4603      	mov	r3, r0
 8005b4c:	71fb      	strb	r3, [r7, #7]
  if ((int32_t)(IRQn) >= 0)
 8005b4e:	f997 3007 	ldrsb.w	r3, [r7, #7]
 8005b52:	2b00      	cmp	r3, #0
 8005b54:	db0b      	blt.n	8005b6e <__NVIC_EnableIRQ+0x2a>
  {
    __COMPILER_BARRIER();
    NVIC->ISER[(((uint32_t)IRQn) >> 5UL)] = (uint32_t)(1UL << (((uint32_t)IRQn) & 0x1FUL));
 8005b56:	79fb      	ldrb	r3, [r7, #7]
 8005b58:	f003 021f 	and.w	r2, r3, #31
 8005b5c:	4907      	ldr	r1, [pc, #28]	; (8005b7c <__NVIC_EnableIRQ+0x38>)
 8005b5e:	f997 3007 	ldrsb.w	r3, [r7, #7]
 8005b62:	095b      	lsrs	r3, r3, #5
 8005b64:	2001      	movs	r0, #1
 8005b66:	fa00 f202 	lsl.w	r2, r0, r2
 8005b6a:	f841 2023 	str.w	r2, [r1, r3, lsl #2]
    __COMPILER_BARRIER();
  }
}
 8005b6e:	bf00      	nop
 8005b70:	370c      	adds	r7, #12
 8005b72:	46bd      	mov	sp, r7
 8005b74:	f85d 7b04 	ldr.w	r7, [sp], #4
 8005b78:	4770      	bx	lr
 8005b7a:	bf00      	nop
 8005b7c:	e000e100 	.word	0xe000e100

08005b80 <__NVIC_SetPriority>:
  \param [in]      IRQn  Interrupt number.
  \param [in]  priority  Priority to set.
  \note    The priority cannot be set for every processor exception.
 */
__STATIC_INLINE void __NVIC_SetPriority(IRQn_Type IRQn, uint32_t priority)
{
 8005b80:	b480      	push	{r7}
 8005b82:	b083      	sub	sp, #12
 8005b84:	af00      	add	r7, sp, #0
 8005b86:	4603      	mov	r3, r0
 8005b88:	6039      	str	r1, [r7, #0]
 8005b8a:	71fb      	strb	r3, [r7, #7]
  if ((int32_t)(IRQn) >= 0)
 8005b8c:	f997 3007 	ldrsb.w	r3, [r7, #7]
 8005b90:	2b00      	cmp	r3, #0
 8005b92:	db0a      	blt.n	8005baa <__NVIC_SetPriority+0x2a>
  {
    NVIC->IP[((uint32_t)IRQn)]               = (uint8_t)((priority << (8U - __NVIC_PRIO_BITS)) & (uint32_t)0xFFUL);
 8005b94:	683b      	ldr	r3, [r7, #0]
 8005b96:	b2da      	uxtb	r2, r3
 8005b98:	490c      	ldr	r1, [pc, #48]	; (8005bcc <__NVIC_SetPriority+0x4c>)
 8005b9a:	f997 3007 	ldrsb.w	r3, [r7, #7]
 8005b9e:	0112      	lsls	r2, r2, #4
 8005ba0:	b2d2      	uxtb	r2, r2
 8005ba2:	440b      	add	r3, r1
 8005ba4:	f883 2300 	strb.w	r2, [r3, #768]	; 0x300
  }
  else
  {
    SCB->SHP[(((uint32_t)IRQn) & 0xFUL)-4UL] = (uint8_t)((priority << (8U - __NVIC_PRIO_BITS)) & (uint32_t)0xFFUL);
  }
}
 8005ba8:	e00a      	b.n	8005bc0 <__NVIC_SetPriority+0x40>
    SCB->SHP[(((uint32_t)IRQn) & 0xFUL)-4UL] = (uint8_t)((priority << (8U - __NVIC_PRIO_BITS)) & (uint32_t)0xFFUL);
 8005baa:	683b      	ldr	r3, [r7, #0]
 8005bac:	b2da      	uxtb	r2, r3
 8005bae:	4908      	ldr	r1, [pc, #32]	; (8005bd0 <__NVIC_SetPriority+0x50>)
 8005bb0:	79fb      	ldrb	r3, [r7, #7]
 8005bb2:	f003 030f 	and.w	r3, r3, #15
 8005bb6:	3b04      	subs	r3, #4
 8005bb8:	0112      	lsls	r2, r2, #4
 8005bba:	b2d2      	uxtb	r2, r2
 8005bbc:	440b      	add	r3, r1
 8005bbe:	761a      	strb	r2, [r3, #24]
}
 8005bc0:	bf00      	nop
 8005bc2:	370c      	adds	r7, #12
 8005bc4:	46bd      	mov	sp, r7
 8005bc6:	f85d 7b04 	ldr.w	r7, [sp], #4
 8005bca:	4770      	bx	lr
 8005bcc:	e000e100 	.word	0xe000e100
 8005bd0:	e000ed00 	.word	0xe000ed00

08005bd4 <NVIC_EncodePriority>:
  \param [in]   PreemptPriority  Preemptive priority value (starting from 0).
  \param [in]       SubPriority  Subpriority value (starting from 0).
  \return                        Encoded priority. Value can be used in the function \ref NVIC_SetPriority().
 */
__STATIC_INLINE uint32_t NVIC_EncodePriority (uint32_t PriorityGroup, uint32_t PreemptPriority, uint32_t SubPriority)
{
 8005bd4:	b480      	push	{r7}
 8005bd6:	b089      	sub	sp, #36	; 0x24
 8005bd8:	af00      	add	r7, sp, #0
 8005bda:	60f8      	str	r0, [r7, #12]
 8005bdc:	60b9      	str	r1, [r7, #8]
 8005bde:	607a      	str	r2, [r7, #4]
  uint32_t PriorityGroupTmp = (PriorityGroup & (uint32_t)0x07UL);   /* only values 0..7 are used          */
 8005be0:	68fb      	ldr	r3, [r7, #12]
 8005be2:	f003 0307 	and.w	r3, r3, #7
 8005be6:	61fb      	str	r3, [r7, #28]
  uint32_t PreemptPriorityBits;
  uint32_t SubPriorityBits;

  PreemptPriorityBits = ((7UL - PriorityGroupTmp) > (uint32_t)(__NVIC_PRIO_BITS)) ? (uint32_t)(__NVIC_PRIO_BITS) : (uint32_t)(7UL - PriorityGroupTmp);
 8005be8:	69fb      	ldr	r3, [r7, #28]
 8005bea:	f1c3 0307 	rsb	r3, r3, #7
 8005bee:	2b04      	cmp	r3, #4
 8005bf0:	bf28      	it	cs
 8005bf2:	2304      	movcs	r3, #4
 8005bf4:	61bb      	str	r3, [r7, #24]
  SubPriorityBits     = ((PriorityGroupTmp + (uint32_t)(__NVIC_PRIO_BITS)) < (uint32_t)7UL) ? (uint32_t)0UL : (uint32_t)((PriorityGroupTmp - 7UL) + (uint32_t)(__NVIC_PRIO_BITS));
 8005bf6:	69fb      	ldr	r3, [r7, #28]
 8005bf8:	3304      	adds	r3, #4
 8005bfa:	2b06      	cmp	r3, #6
 8005bfc:	d902      	bls.n	8005c04 <NVIC_EncodePriority+0x30>
 8005bfe:	69fb      	ldr	r3, [r7, #28]
 8005c00:	3b03      	subs	r3, #3
 8005c02:	e000      	b.n	8005c06 <NVIC_EncodePriority+0x32>
 8005c04:	2300      	movs	r3, #0
 8005c06:	617b      	str	r3, [r7, #20]

  return (
           ((PreemptPriority & (uint32_t)((1UL << (PreemptPriorityBits)) - 1UL)) << SubPriorityBits) |
 8005c08:	f04f 32ff 	mov.w	r2, #4294967295	; 0xffffffff
 8005c0c:	69bb      	ldr	r3, [r7, #24]
 8005c0e:	fa02 f303 	lsl.w	r3, r2, r3
 8005c12:	43da      	mvns	r2, r3
 8005c14:	68bb      	ldr	r3, [r7, #8]
 8005c16:	401a      	ands	r2, r3
 8005c18:	697b      	ldr	r3, [r7, #20]
 8005c1a:	409a      	lsls	r2, r3
           ((SubPriority     & (uint32_t)((1UL << (SubPriorityBits    )) - 1UL)))
 8005c1c:	f04f 31ff 	mov.w	r1, #4294967295	; 0xffffffff
 8005c20:	697b      	ldr	r3, [r7, #20]
 8005c22:	fa01 f303 	lsl.w	r3, r1, r3
 8005c26:	43d9      	mvns	r1, r3
 8005c28:	687b      	ldr	r3, [r7, #4]
 8005c2a:	400b      	ands	r3, r1
           ((PreemptPriority & (uint32_t)((1UL << (PreemptPriorityBits)) - 1UL)) << SubPriorityBits) |
 8005c2c:	4313      	orrs	r3, r2
         );
}
 8005c2e:	4618      	mov	r0, r3
 8005c30:	3724      	adds	r7, #36	; 0x24
 8005c32:	46bd      	mov	sp, r7
 8005c34:	f85d 7b04 	ldr.w	r7, [sp], #4
 8005c38:	4770      	bx	lr
	...

08005c3c <LL_AHB2_GRP1_EnableClock>:
{
 8005c3c:	b480      	push	{r7}
 8005c3e:	b085      	sub	sp, #20
 8005c40:	af00      	add	r7, sp, #0
 8005c42:	6078      	str	r0, [r7, #4]
  SET_BIT(RCC->AHB2ENR, Periphs);
 8005c44:	4b08      	ldr	r3, [pc, #32]	; (8005c68 <LL_AHB2_GRP1_EnableClock+0x2c>)
 8005c46:	6cda      	ldr	r2, [r3, #76]	; 0x4c
 8005c48:	4907      	ldr	r1, [pc, #28]	; (8005c68 <LL_AHB2_GRP1_EnableClock+0x2c>)
 8005c4a:	687b      	ldr	r3, [r7, #4]
 8005c4c:	4313      	orrs	r3, r2
 8005c4e:	64cb      	str	r3, [r1, #76]	; 0x4c
  tmpreg = READ_BIT(RCC->AHB2ENR, Periphs);
 8005c50:	4b05      	ldr	r3, [pc, #20]	; (8005c68 <LL_AHB2_GRP1_EnableClock+0x2c>)
 8005c52:	6cda      	ldr	r2, [r3, #76]	; 0x4c
 8005c54:	687b      	ldr	r3, [r7, #4]
 8005c56:	4013      	ands	r3, r2
 8005c58:	60fb      	str	r3, [r7, #12]
  (void)tmpreg;
 8005c5a:	68fb      	ldr	r3, [r7, #12]
}
 8005c5c:	bf00      	nop
 8005c5e:	3714      	adds	r7, #20
 8005c60:	46bd      	mov	sp, r7
 8005c62:	f85d 7b04 	ldr.w	r7, [sp], #4
 8005c66:	4770      	bx	lr
 8005c68:	40021000 	.word	0x40021000

08005c6c <LL_APB1_GRP1_EnableClock>:
{
 8005c6c:	b480      	push	{r7}
 8005c6e:	b085      	sub	sp, #20
 8005c70:	af00      	add	r7, sp, #0
 8005c72:	6078      	str	r0, [r7, #4]
  SET_BIT(RCC->APB1ENR1, Periphs);
 8005c74:	4b08      	ldr	r3, [pc, #32]	; (8005c98 <LL_APB1_GRP1_EnableClock+0x2c>)
 8005c76:	6d9a      	ldr	r2, [r3, #88]	; 0x58
 8005c78:	4907      	ldr	r1, [pc, #28]	; (8005c98 <LL_APB1_GRP1_EnableClock+0x2c>)
 8005c7a:	687b      	ldr	r3, [r7, #4]
 8005c7c:	4313      	orrs	r3, r2
 8005c7e:	658b      	str	r3, [r1, #88]	; 0x58
  tmpreg = READ_BIT(RCC->APB1ENR1, Periphs);
 8005c80:	4b05      	ldr	r3, [pc, #20]	; (8005c98 <LL_APB1_GRP1_EnableClock+0x2c>)
 8005c82:	6d9a      	ldr	r2, [r3, #88]	; 0x58
 8005c84:	687b      	ldr	r3, [r7, #4]
 8005c86:	4013      	ands	r3, r2
 8005c88:	60fb      	str	r3, [r7, #12]
  (void)tmpreg;
 8005c8a:	68fb      	ldr	r3, [r7, #12]
}
 8005c8c:	bf00      	nop
 8005c8e:	3714      	adds	r7, #20
 8005c90:	46bd      	mov	sp, r7
 8005c92:	f85d 7b04 	ldr.w	r7, [sp], #4
 8005c96:	4770      	bx	lr
 8005c98:	40021000 	.word	0x40021000

08005c9c <LL_RCC_SetFDCANClockSource>:
{
 8005c9c:	b480      	push	{r7}
 8005c9e:	b083      	sub	sp, #12
 8005ca0:	af00      	add	r7, sp, #0
 8005ca2:	6078      	str	r0, [r7, #4]
  MODIFY_REG(RCC->CCIPR, RCC_CCIPR_FDCANSEL, FDCANxSource);
 8005ca4:	4b07      	ldr	r3, [pc, #28]	; (8005cc4 <LL_RCC_SetFDCANClockSource+0x28>)
 8005ca6:	f8d3 3088 	ldr.w	r3, [r3, #136]	; 0x88
 8005caa:	f023 7240 	bic.w	r2, r3, #50331648	; 0x3000000
 8005cae:	4905      	ldr	r1, [pc, #20]	; (8005cc4 <LL_RCC_SetFDCANClockSource+0x28>)
 8005cb0:	687b      	ldr	r3, [r7, #4]
 8005cb2:	4313      	orrs	r3, r2
 8005cb4:	f8c1 3088 	str.w	r3, [r1, #136]	; 0x88
}
 8005cb8:	bf00      	nop
 8005cba:	370c      	adds	r7, #12
 8005cbc:	46bd      	mov	sp, r7
 8005cbe:	f85d 7b04 	ldr.w	r7, [sp], #4
 8005cc2:	4770      	bx	lr
 8005cc4:	40021000 	.word	0x40021000

08005cc8 <STRHAL_CAN_Init_GPIO>:
{ [STRHAL_FDCAN1] =
{ .can = FDCAN1, .can_ram = FDCAN1_MESSAGE_RAM, .state = STRHAL_CAN_STATE_0, .filter_n = 0, .fifo_sub_state = 0 }, [STRHAL_FDCAN2] =
{ .can = FDCAN2, .can_ram = FDCAN2_MESSAGE_RAM, .state = STRHAL_CAN_STATE_0, .filter_n = 0, .fifo_sub_state = 0 } };

static void STRHAL_CAN_Init_GPIO(void)
{
 8005cc8:	b580      	push	{r7, lr}
 8005cca:	b086      	sub	sp, #24
 8005ccc:	af00      	add	r7, sp, #0

	LL_GPIO_InitTypeDef GPIO_InitStruct =
 8005cce:	463b      	mov	r3, r7
 8005cd0:	2200      	movs	r2, #0
 8005cd2:	601a      	str	r2, [r3, #0]
 8005cd4:	605a      	str	r2, [r3, #4]
 8005cd6:	609a      	str	r2, [r3, #8]
 8005cd8:	60da      	str	r2, [r3, #12]
 8005cda:	611a      	str	r2, [r3, #16]
 8005cdc:	615a      	str	r2, [r3, #20]
	{ 0 };

	LL_RCC_SetFDCANClockSource(LL_RCC_FDCAN_CLKSOURCE_PCLK1);
 8005cde:	f04f 7000 	mov.w	r0, #33554432	; 0x2000000
 8005ce2:	f7ff ffdb 	bl	8005c9c <LL_RCC_SetFDCANClockSource>

	LL_APB1_GRP1_EnableClock(LL_APB1_GRP1_PERIPH_FDCAN);
 8005ce6:	f04f 7000 	mov.w	r0, #33554432	; 0x2000000
 8005cea:	f7ff ffbf 	bl	8005c6c <LL_APB1_GRP1_EnableClock>
	LL_AHB2_GRP1_EnableClock(LL_AHB2_GRP1_PERIPH_GPIOA);
 8005cee:	2001      	movs	r0, #1
 8005cf0:	f7ff ffa4 	bl	8005c3c <LL_AHB2_GRP1_EnableClock>
	LL_AHB2_GRP1_EnableClock(LL_AHB2_GRP1_PERIPH_GPIOB);
 8005cf4:	2002      	movs	r0, #2
 8005cf6:	f7ff ffa1 	bl	8005c3c <LL_AHB2_GRP1_EnableClock>

	//FDCAN1 GPIO Configuration
	//PA11     ------> FDCAN1_RX
	//PA12     ------> FDCAN1_TX

	GPIO_InitStruct.Pin = LL_GPIO_PIN_11 | LL_GPIO_PIN_12;
 8005cfa:	f44f 53c0 	mov.w	r3, #6144	; 0x1800
 8005cfe:	603b      	str	r3, [r7, #0]
	GPIO_InitStruct.Mode = LL_GPIO_MODE_ALTERNATE;
 8005d00:	2302      	movs	r3, #2
 8005d02:	607b      	str	r3, [r7, #4]
	GPIO_InitStruct.OutputType = LL_GPIO_OUTPUT_PUSHPULL;
 8005d04:	2300      	movs	r3, #0
 8005d06:	60fb      	str	r3, [r7, #12]
	GPIO_InitStruct.Pull = LL_GPIO_PULL_NO;
 8005d08:	2300      	movs	r3, #0
 8005d0a:	613b      	str	r3, [r7, #16]
	GPIO_InitStruct.Speed = LL_GPIO_SPEED_FREQ_VERY_HIGH;
 8005d0c:	2303      	movs	r3, #3
 8005d0e:	60bb      	str	r3, [r7, #8]
	GPIO_InitStruct.Alternate = LL_GPIO_AF_9;
 8005d10:	2309      	movs	r3, #9
 8005d12:	617b      	str	r3, [r7, #20]

	LL_GPIO_Init(GPIOA, &GPIO_InitStruct);
 8005d14:	463b      	mov	r3, r7
 8005d16:	4619      	mov	r1, r3
 8005d18:	f04f 4090 	mov.w	r0, #1207959552	; 0x48000000
 8005d1c:	f7fd fae7 	bl	80032ee <LL_GPIO_Init>

	//FDCAN2 GPIO Configuration
	//PB5     ------> FDCAN2_RX
	//PB6     ------> FDCAN2_TX

	GPIO_InitStruct.Pin = LL_GPIO_PIN_5 | LL_GPIO_PIN_6;
 8005d20:	2360      	movs	r3, #96	; 0x60
 8005d22:	603b      	str	r3, [r7, #0]
	GPIO_InitStruct.Mode = LL_GPIO_MODE_ALTERNATE;
 8005d24:	2302      	movs	r3, #2
 8005d26:	607b      	str	r3, [r7, #4]
	GPIO_InitStruct.OutputType = LL_GPIO_OUTPUT_PUSHPULL;
 8005d28:	2300      	movs	r3, #0
 8005d2a:	60fb      	str	r3, [r7, #12]
	GPIO_InitStruct.Pull = LL_GPIO_PULL_NO;
 8005d2c:	2300      	movs	r3, #0
 8005d2e:	613b      	str	r3, [r7, #16]
	GPIO_InitStruct.Speed = LL_GPIO_SPEED_FREQ_VERY_HIGH;
 8005d30:	2303      	movs	r3, #3
 8005d32:	60bb      	str	r3, [r7, #8]
	GPIO_InitStruct.Alternate = LL_GPIO_AF_9;
 8005d34:	2309      	movs	r3, #9
 8005d36:	617b      	str	r3, [r7, #20]
	LL_GPIO_Init(GPIOB, &GPIO_InitStruct);
 8005d38:	463b      	mov	r3, r7
 8005d3a:	4619      	mov	r1, r3
 8005d3c:	4803      	ldr	r0, [pc, #12]	; (8005d4c <STRHAL_CAN_Init_GPIO+0x84>)
 8005d3e:	f7fd fad6 	bl	80032ee <LL_GPIO_Init>

}
 8005d42:	bf00      	nop
 8005d44:	3718      	adds	r7, #24
 8005d46:	46bd      	mov	sp, r7
 8005d48:	bd80      	pop	{r7, pc}
 8005d4a:	bf00      	nop
 8005d4c:	48000400 	.word	0x48000400

08005d50 <STRHAL_CAN_Instance_Init>:

int STRHAL_CAN_Instance_Init(STRHAL_FDCAN_Id_t fdcan_id)
{
 8005d50:	b580      	push	{r7, lr}
 8005d52:	b084      	sub	sp, #16
 8005d54:	af00      	add	r7, sp, #0
 8005d56:	4603      	mov	r3, r0
 8005d58:	71fb      	strb	r3, [r7, #7]
	if (fdcan_id < 0 || fdcan_id >= STRHAL_N_FDCAN)
 8005d5a:	79fb      	ldrb	r3, [r7, #7]
 8005d5c:	2b01      	cmp	r3, #1
 8005d5e:	d902      	bls.n	8005d66 <STRHAL_CAN_Instance_Init+0x16>
		return -1;
 8005d60:	f04f 33ff 	mov.w	r3, #4294967295	; 0xffffffff
 8005d64:	e0e9      	b.n	8005f3a <STRHAL_CAN_Instance_Init+0x1ea>

	_fdcans[fdcan_id].state = STRHAL_CAN_STATE_INITIALISING;
 8005d66:	79fa      	ldrb	r2, [r7, #7]
 8005d68:	4976      	ldr	r1, [pc, #472]	; (8005f44 <STRHAL_CAN_Instance_Init+0x1f4>)
 8005d6a:	4613      	mov	r3, r2
 8005d6c:	005b      	lsls	r3, r3, #1
 8005d6e:	4413      	add	r3, r2
 8005d70:	00db      	lsls	r3, r3, #3
 8005d72:	440b      	add	r3, r1
 8005d74:	3308      	adds	r3, #8
 8005d76:	2201      	movs	r2, #1
 8005d78:	701a      	strb	r2, [r3, #0]

	FDCAN_GlobalTypeDef *can = _fdcans[fdcan_id].can;
 8005d7a:	79fa      	ldrb	r2, [r7, #7]
 8005d7c:	4971      	ldr	r1, [pc, #452]	; (8005f44 <STRHAL_CAN_Instance_Init+0x1f4>)
 8005d7e:	4613      	mov	r3, r2
 8005d80:	005b      	lsls	r3, r3, #1
 8005d82:	4413      	add	r3, r2
 8005d84:	00db      	lsls	r3, r3, #3
 8005d86:	440b      	add	r3, r1
 8005d88:	681b      	ldr	r3, [r3, #0]
 8005d8a:	60bb      	str	r3, [r7, #8]
	//Can_Message_RAM *can_ram = handles[can_handle_index].can_ram;
	LL_RCC_SetFDCANClockSource(LL_RCC_FDCAN_CLKSOURCE_PCLK1);
 8005d8c:	f04f 7000 	mov.w	r0, #33554432	; 0x2000000
 8005d90:	f7ff ff84 	bl	8005c9c <LL_RCC_SetFDCANClockSource>

	CLEAR_BIT(can->CCCR, FDCAN_CCCR_CSR);
 8005d94:	68bb      	ldr	r3, [r7, #8]
 8005d96:	699b      	ldr	r3, [r3, #24]
 8005d98:	f023 0210 	bic.w	r2, r3, #16
 8005d9c:	68bb      	ldr	r3, [r7, #8]
 8005d9e:	619a      	str	r2, [r3, #24]

	uint32_t tot = 0;
 8005da0:	2300      	movs	r3, #0
 8005da2:	60fb      	str	r3, [r7, #12]

	// Check Sleep mode acknowledge
	while ((can->CCCR & FDCAN_CCCR_CSA) == FDCAN_CCCR_CSA)
 8005da4:	e009      	b.n	8005dba <STRHAL_CAN_Instance_Init+0x6a>
	{
		tot++;
 8005da6:	68fb      	ldr	r3, [r7, #12]
 8005da8:	3301      	adds	r3, #1
 8005daa:	60fb      	str	r3, [r7, #12]
		if (tot > STRHAL_CAN_START_TOT)
 8005dac:	68fb      	ldr	r3, [r7, #12]
 8005dae:	4a66      	ldr	r2, [pc, #408]	; (8005f48 <STRHAL_CAN_Instance_Init+0x1f8>)
 8005db0:	4293      	cmp	r3, r2
 8005db2:	d902      	bls.n	8005dba <STRHAL_CAN_Instance_Init+0x6a>
			return -1;
 8005db4:	f04f 33ff 	mov.w	r3, #4294967295	; 0xffffffff
 8005db8:	e0bf      	b.n	8005f3a <STRHAL_CAN_Instance_Init+0x1ea>
	while ((can->CCCR & FDCAN_CCCR_CSA) == FDCAN_CCCR_CSA)
 8005dba:	68bb      	ldr	r3, [r7, #8]
 8005dbc:	699b      	ldr	r3, [r3, #24]
 8005dbe:	f003 0308 	and.w	r3, r3, #8
 8005dc2:	2b08      	cmp	r3, #8
 8005dc4:	d0ef      	beq.n	8005da6 <STRHAL_CAN_Instance_Init+0x56>
	}

	SET_BIT(can->CCCR, FDCAN_CCCR_INIT);
 8005dc6:	68bb      	ldr	r3, [r7, #8]
 8005dc8:	699b      	ldr	r3, [r3, #24]
 8005dca:	f043 0201 	orr.w	r2, r3, #1
 8005dce:	68bb      	ldr	r3, [r7, #8]
 8005dd0:	619a      	str	r2, [r3, #24]

	// Wait until the INIT bit into CCCR register is set
	while ((can->CCCR & FDCAN_CCCR_INIT) == 0U)
 8005dd2:	e009      	b.n	8005de8 <STRHAL_CAN_Instance_Init+0x98>
	{
		tot++;
 8005dd4:	68fb      	ldr	r3, [r7, #12]
 8005dd6:	3301      	adds	r3, #1
 8005dd8:	60fb      	str	r3, [r7, #12]
		if (tot > STRHAL_CAN_START_TOT)
 8005dda:	68fb      	ldr	r3, [r7, #12]
 8005ddc:	4a5a      	ldr	r2, [pc, #360]	; (8005f48 <STRHAL_CAN_Instance_Init+0x1f8>)
 8005dde:	4293      	cmp	r3, r2
 8005de0:	d902      	bls.n	8005de8 <STRHAL_CAN_Instance_Init+0x98>
			return -1;
 8005de2:	f04f 33ff 	mov.w	r3, #4294967295	; 0xffffffff
 8005de6:	e0a8      	b.n	8005f3a <STRHAL_CAN_Instance_Init+0x1ea>
	while ((can->CCCR & FDCAN_CCCR_INIT) == 0U)
 8005de8:	68bb      	ldr	r3, [r7, #8]
 8005dea:	699b      	ldr	r3, [r3, #24]
 8005dec:	f003 0301 	and.w	r3, r3, #1
 8005df0:	2b00      	cmp	r3, #0
 8005df2:	d0ef      	beq.n	8005dd4 <STRHAL_CAN_Instance_Init+0x84>
	}

	// Enable configuration change
	SET_BIT(can->CCCR, FDCAN_CCCR_CCE);
 8005df4:	68bb      	ldr	r3, [r7, #8]
 8005df6:	699b      	ldr	r3, [r3, #24]
 8005df8:	f043 0202 	orr.w	r2, r3, #2
 8005dfc:	68bb      	ldr	r3, [r7, #8]
 8005dfe:	619a      	str	r2, [r3, #24]
	// Wait until the CCE bit into CCCR register is set
	while ((can->CCCR & FDCAN_CCCR_CCE) == 0U)
 8005e00:	e009      	b.n	8005e16 <STRHAL_CAN_Instance_Init+0xc6>
	{
		tot++;
 8005e02:	68fb      	ldr	r3, [r7, #12]
 8005e04:	3301      	adds	r3, #1
 8005e06:	60fb      	str	r3, [r7, #12]
		if (tot > STRHAL_CAN_START_TOT)
 8005e08:	68fb      	ldr	r3, [r7, #12]
 8005e0a:	4a4f      	ldr	r2, [pc, #316]	; (8005f48 <STRHAL_CAN_Instance_Init+0x1f8>)
 8005e0c:	4293      	cmp	r3, r2
 8005e0e:	d902      	bls.n	8005e16 <STRHAL_CAN_Instance_Init+0xc6>
			return -1;
 8005e10:	f04f 33ff 	mov.w	r3, #4294967295	; 0xffffffff
 8005e14:	e091      	b.n	8005f3a <STRHAL_CAN_Instance_Init+0x1ea>
	while ((can->CCCR & FDCAN_CCCR_CCE) == 0U)
 8005e16:	68bb      	ldr	r3, [r7, #8]
 8005e18:	699b      	ldr	r3, [r3, #24]
 8005e1a:	f003 0302 	and.w	r3, r3, #2
 8005e1e:	2b00      	cmp	r3, #0
 8005e20:	d0ef      	beq.n	8005e02 <STRHAL_CAN_Instance_Init+0xb2>
	}

	//SET_BIT(can->CCCR, FDCAN_CCCR_DAR);  //AutoRetransmission Disabled
	CLEAR_BIT(can->CCCR, FDCAN_CCCR_DAR);  //AutoRetransmission Enabled
 8005e22:	68bb      	ldr	r3, [r7, #8]
 8005e24:	699b      	ldr	r3, [r3, #24]
 8005e26:	f023 0240 	bic.w	r2, r3, #64	; 0x40
 8005e2a:	68bb      	ldr	r3, [r7, #8]
 8005e2c:	619a      	str	r2, [r3, #24]

	CLEAR_BIT(can->CCCR, FDCAN_CCCR_TXP);  //transmit pause Disabled
 8005e2e:	68bb      	ldr	r3, [r7, #8]
 8005e30:	699b      	ldr	r3, [r3, #24]
 8005e32:	f423 4280 	bic.w	r2, r3, #16384	; 0x4000
 8005e36:	68bb      	ldr	r3, [r7, #8]
 8005e38:	619a      	str	r2, [r3, #24]

	SET_BIT(can->CCCR, FDCAN_CCCR_PXHD); //Protocol Exception Handling  Disabled
 8005e3a:	68bb      	ldr	r3, [r7, #8]
 8005e3c:	699b      	ldr	r3, [r3, #24]
 8005e3e:	f443 5280 	orr.w	r2, r3, #4096	; 0x1000
 8005e42:	68bb      	ldr	r3, [r7, #8]
 8005e44:	619a      	str	r2, [r3, #24]

	SET_BIT(can->CCCR, FDCAN_FRAME_FD_BRS); //FD mode with BitRate Switching
 8005e46:	68bb      	ldr	r3, [r7, #8]
 8005e48:	699b      	ldr	r3, [r3, #24]
 8005e4a:	f443 7240 	orr.w	r2, r3, #768	; 0x300
 8005e4e:	68bb      	ldr	r3, [r7, #8]
 8005e50:	619a      	str	r2, [r3, #24]

	CLEAR_BIT(can->CCCR, (FDCAN_CCCR_TEST | FDCAN_CCCR_MON | FDCAN_CCCR_ASM));
 8005e52:	68bb      	ldr	r3, [r7, #8]
 8005e54:	699b      	ldr	r3, [r3, #24]
 8005e56:	f023 02a4 	bic.w	r2, r3, #164	; 0xa4
 8005e5a:	68bb      	ldr	r3, [r7, #8]
 8005e5c:	619a      	str	r2, [r3, #24]
	CLEAR_BIT(can->TEST, FDCAN_TEST_LBCK);
 8005e5e:	68bb      	ldr	r3, [r7, #8]
 8005e60:	691b      	ldr	r3, [r3, #16]
 8005e62:	f023 0210 	bic.w	r2, r3, #16
 8005e66:	68bb      	ldr	r3, [r7, #8]
 8005e68:	611a      	str	r2, [r3, #16]

	//if(fdcan_id == STRHAL_FDCAN1) { // TODO find out why this is here - it is here because the FDCAN_CONFIG reg needs only to be set once
	MODIFY_REG(FDCAN_CONFIG->CKDIV, FDCAN_CKDIV_PDIV, FDCAN_CLOCK_DIV2);
 8005e6a:	4b38      	ldr	r3, [pc, #224]	; (8005f4c <STRHAL_CAN_Instance_Init+0x1fc>)
 8005e6c:	681b      	ldr	r3, [r3, #0]
 8005e6e:	f023 030f 	bic.w	r3, r3, #15
 8005e72:	4a36      	ldr	r2, [pc, #216]	; (8005f4c <STRHAL_CAN_Instance_Init+0x1fc>)
 8005e74:	f043 0301 	orr.w	r3, r3, #1
 8005e78:	6013      	str	r3, [r2, #0]
	//}

	// Set the nominal bit timing register
	can->NBTP = ((((uint32_t) FDCAN_NOMINAL_SYNC_JUMP_WIDTH - 1U) << FDCAN_NBTP_NSJW_Pos) | (((uint32_t) FDCAN_NOMINAL_TIMESEG_1 - 1U) << FDCAN_NBTP_NTSEG1_Pos) | (((uint32_t) FDCAN_NOMINAL_TIMESEG_2 - 1U) << FDCAN_NBTP_NTSEG2_Pos) | (((uint32_t) FDCAN_NOMINAL_PRESCALER - 1U) << FDCAN_NBTP_NBRP_Pos));
 8005e7a:	68bb      	ldr	r3, [r7, #8]
 8005e7c:	4a34      	ldr	r2, [pc, #208]	; (8005f50 <STRHAL_CAN_Instance_Init+0x200>)
 8005e7e:	61da      	str	r2, [r3, #28]

	// Bit Rate Switching Enable
	can->DBTP = ((((uint32_t) FDCAN_DATA_SYNC_JUMP_WIDTH - 1U) << FDCAN_DBTP_DSJW_Pos) | (((uint32_t) FDCAN_DATA_TIMESEG_1 - 1U) << FDCAN_DBTP_DTSEG1_Pos) | (((uint32_t) FDCAN_DATA_TIMESEG_2 - 1U) << FDCAN_DBTP_DTSEG2_Pos) | (((uint32_t) FDCAN_DATA_PRESCALER - 1U) << FDCAN_DBTP_DBRP_Pos));
 8005e80:	68bb      	ldr	r3, [r7, #8]
 8005e82:	4a34      	ldr	r2, [pc, #208]	; (8005f54 <STRHAL_CAN_Instance_Init+0x204>)
 8005e84:	60da      	str	r2, [r3, #12]

	MODIFY_REG(can->RXGFC, FDCAN_RXGFC_LSS, (STRHAL_CAN_STD_FILTER_NUMBER << FDCAN_RXGFC_LSS_Pos)); // Standard filter elements number
 8005e86:	68bb      	ldr	r3, [r7, #8]
 8005e88:	f8d3 3080 	ldr.w	r3, [r3, #128]	; 0x80
 8005e8c:	f423 12f8 	bic.w	r2, r3, #2031616	; 0x1f0000
 8005e90:	68bb      	ldr	r3, [r7, #8]
 8005e92:	f8c3 2080 	str.w	r2, [r3, #128]	; 0x80
	MODIFY_REG(can->RXGFC, FDCAN_RXGFC_LSE, (STRHAL_CAN_EXT_FILTER_NUMBER << FDCAN_RXGFC_LSE_Pos)); // Extended filter elements number
 8005e96:	68bb      	ldr	r3, [r7, #8]
 8005e98:	f8d3 3080 	ldr.w	r3, [r3, #128]	; 0x80
 8005e9c:	f023 6270 	bic.w	r2, r3, #251658240	; 0xf000000
 8005ea0:	68bb      	ldr	r3, [r7, #8]
 8005ea2:	f8c3 2080 	str.w	r2, [r3, #128]	; 0x80
	MODIFY_REG(can->RXGFC, FDCAN_RXGFC_F0OM, (FDCAN_RX_FIFO_BLOCKING << FDCAN_RXGFC_F0OM_Pos)); // FIFO 0 operation mode
 8005ea6:	68bb      	ldr	r3, [r7, #8]
 8005ea8:	f8d3 3080 	ldr.w	r3, [r3, #128]	; 0x80
 8005eac:	f423 7200 	bic.w	r2, r3, #512	; 0x200
 8005eb0:	68bb      	ldr	r3, [r7, #8]
 8005eb2:	f8c3 2080 	str.w	r2, [r3, #128]	; 0x80
	MODIFY_REG(can->RXGFC, FDCAN_RXGFC_F1OM, (FDCAN_RX_FIFO_BLOCKING << FDCAN_RXGFC_F1OM_Pos)); // FIFO 1 operation mode
 8005eb6:	68bb      	ldr	r3, [r7, #8]
 8005eb8:	f8d3 3080 	ldr.w	r3, [r3, #128]	; 0x80
 8005ebc:	f423 7280 	bic.w	r2, r3, #256	; 0x100
 8005ec0:	68bb      	ldr	r3, [r7, #8]
 8005ec2:	f8c3 2080 	str.w	r2, [r3, #128]	; 0x80
	MODIFY_REG(can->RXGFC, FDCAN_RXGFC_ANFS, (FDCAN_REJECT << FDCAN_RXGFC_ANFS_Pos)); // Accept Non-matching Frames Standard
 8005ec6:	68bb      	ldr	r3, [r7, #8]
 8005ec8:	f8d3 3080 	ldr.w	r3, [r3, #128]	; 0x80
 8005ecc:	f023 0330 	bic.w	r3, r3, #48	; 0x30
 8005ed0:	f043 0220 	orr.w	r2, r3, #32
 8005ed4:	68bb      	ldr	r3, [r7, #8]
 8005ed6:	f8c3 2080 	str.w	r2, [r3, #128]	; 0x80
	MODIFY_REG(can->RXGFC, FDCAN_RXGFC_ANFE, (FDCAN_REJECT << FDCAN_RXGFC_ANFE_Pos)); // Accept Non-matching Frames Extended
 8005eda:	68bb      	ldr	r3, [r7, #8]
 8005edc:	f8d3 3080 	ldr.w	r3, [r3, #128]	; 0x80
 8005ee0:	f023 030c 	bic.w	r3, r3, #12
 8005ee4:	f043 0208 	orr.w	r2, r3, #8
 8005ee8:	68bb      	ldr	r3, [r7, #8]
 8005eea:	f8c3 2080 	str.w	r2, [r3, #128]	; 0x80
	MODIFY_REG(can->RXGFC, FDCAN_RXGFC_RRFS, (FDCAN_FILTER_REMOTE << FDCAN_RXGFC_RRFS_Pos)); // Reject Remote Frames Standard
 8005eee:	68bb      	ldr	r3, [r7, #8]
 8005ef0:	f8d3 3080 	ldr.w	r3, [r3, #128]	; 0x80
 8005ef4:	f023 0202 	bic.w	r2, r3, #2
 8005ef8:	68bb      	ldr	r3, [r7, #8]
 8005efa:	f8c3 2080 	str.w	r2, [r3, #128]	; 0x80
	MODIFY_REG(can->RXGFC, FDCAN_RXGFC_RRFE, (FDCAN_REJECT_REMOTE << FDCAN_RXGFC_RRFE_Pos)); // Reject Remote Frames Extended
 8005efe:	68bb      	ldr	r3, [r7, #8]
 8005f00:	f8d3 3080 	ldr.w	r3, [r3, #128]	; 0x80
 8005f04:	f043 0201 	orr.w	r2, r3, #1
 8005f08:	68bb      	ldr	r3, [r7, #8]
 8005f0a:	f8c3 2080 	str.w	r2, [r3, #128]	; 0x80

	CLEAR_BIT(can->TXBC, FDCAN_TXBC_TFQM); // Tx FIFO/Queue Mode
 8005f0e:	68bb      	ldr	r3, [r7, #8]
 8005f10:	f8d3 30c0 	ldr.w	r3, [r3, #192]	; 0xc0
 8005f14:	f023 7280 	bic.w	r2, r3, #16777216	; 0x1000000
 8005f18:	68bb      	ldr	r3, [r7, #8]
 8005f1a:	f8c3 20c0 	str.w	r2, [r3, #192]	; 0xc0

	//Config TxDelayCompensation
	can->TDCR = ((FDCAN_TDC_FILTER << FDCAN_TDCR_TDCF_Pos) | (FDCAN_TDC_OFFSET << FDCAN_TDCR_TDCO_Pos));
 8005f1e:	68bb      	ldr	r3, [r7, #8]
 8005f20:	f240 5206 	movw	r2, #1286	; 0x506
 8005f24:	649a      	str	r2, [r3, #72]	; 0x48

	// Enable transmitter delay compensation
	SET_BIT(can->DBTP, FDCAN_DBTP_TDC);
 8005f26:	68bb      	ldr	r3, [r7, #8]
 8005f28:	68db      	ldr	r3, [r3, #12]
 8005f2a:	f443 0200 	orr.w	r2, r3, #8388608	; 0x800000
 8005f2e:	68bb      	ldr	r3, [r7, #8]
 8005f30:	60da      	str	r2, [r3, #12]

	LL_mDelay(100);
 8005f32:	2064      	movs	r0, #100	; 0x64
 8005f34:	f7fe fb96 	bl	8004664 <LL_mDelay>

	return 0;
 8005f38:	2300      	movs	r3, #0
}
 8005f3a:	4618      	mov	r0, r3
 8005f3c:	3710      	adds	r7, #16
 8005f3e:	46bd      	mov	sp, r7
 8005f40:	bd80      	pop	{r7, pc}
 8005f42:	bf00      	nop
 8005f44:	20000004 	.word	0x20000004
 8005f48:	00f42400 	.word	0x00f42400
 8005f4c:	40006500 	.word	0x40006500
 8005f50:	0001160f 	.word	0x0001160f
 8005f54:	00010611 	.word	0x00010611

08005f58 <STRHAL_CAN_Subscribe>:

int STRHAL_CAN_Subscribe(STRHAL_FDCAN_Id_t fdcan_id, STRHAL_FDCAN_Rx_Id_t rx_id, STRHAL_FDCAN_Filter_t *filter, uint8_t n, STRHAL_CAN_Receptor_t receptor)
{
 8005f58:	b480      	push	{r7}
 8005f5a:	b087      	sub	sp, #28
 8005f5c:	af00      	add	r7, sp, #0
 8005f5e:	603a      	str	r2, [r7, #0]
 8005f60:	461a      	mov	r2, r3
 8005f62:	4603      	mov	r3, r0
 8005f64:	71fb      	strb	r3, [r7, #7]
 8005f66:	460b      	mov	r3, r1
 8005f68:	71bb      	strb	r3, [r7, #6]
 8005f6a:	4613      	mov	r3, r2
 8005f6c:	717b      	strb	r3, [r7, #5]
	/* Error handling for user inputs */
	if (fdcan_id < 0 || fdcan_id >= STRHAL_N_FDCAN) // invalid fdcan instance
 8005f6e:	79fb      	ldrb	r3, [r7, #7]
 8005f70:	2b01      	cmp	r3, #1
 8005f72:	d902      	bls.n	8005f7a <STRHAL_CAN_Subscribe+0x22>
		return -1;
 8005f74:	f04f 33ff 	mov.w	r3, #4294967295	; 0xffffffff
 8005f78:	e0bd      	b.n	80060f6 <STRHAL_CAN_Subscribe+0x19e>

	STRHAL_CAN_Handle_t *fdcan = &_fdcans[fdcan_id];
 8005f7a:	79fa      	ldrb	r2, [r7, #7]
 8005f7c:	4613      	mov	r3, r2
 8005f7e:	005b      	lsls	r3, r3, #1
 8005f80:	4413      	add	r3, r2
 8005f82:	00db      	lsls	r3, r3, #3
 8005f84:	4a5f      	ldr	r2, [pc, #380]	; (8006104 <STRHAL_CAN_Subscribe+0x1ac>)
 8005f86:	4413      	add	r3, r2
 8005f88:	613b      	str	r3, [r7, #16]
	if (fdcan->state != STRHAL_CAN_STATE_INITIALISING)	// fdcan not in init mode (Subscribe called in wrong order)
 8005f8a:	693b      	ldr	r3, [r7, #16]
 8005f8c:	7a1b      	ldrb	r3, [r3, #8]
 8005f8e:	b2db      	uxtb	r3, r3
 8005f90:	2b01      	cmp	r3, #1
 8005f92:	d002      	beq.n	8005f9a <STRHAL_CAN_Subscribe+0x42>
		return -1;
 8005f94:	f04f 33ff 	mov.w	r3, #4294967295	; 0xffffffff
 8005f98:	e0ad      	b.n	80060f6 <STRHAL_CAN_Subscribe+0x19e>

	if (filter == NULL || receptor == NULL) // Nullptr check
 8005f9a:	683b      	ldr	r3, [r7, #0]
 8005f9c:	2b00      	cmp	r3, #0
 8005f9e:	d002      	beq.n	8005fa6 <STRHAL_CAN_Subscribe+0x4e>
 8005fa0:	6a3b      	ldr	r3, [r7, #32]
 8005fa2:	2b00      	cmp	r3, #0
 8005fa4:	d101      	bne.n	8005faa <STRHAL_CAN_Subscribe+0x52>
		return 0;
 8005fa6:	2300      	movs	r3, #0
 8005fa8:	e0a5      	b.n	80060f6 <STRHAL_CAN_Subscribe+0x19e>

	if (n > STRHAL_CAN_RAM_N_FILTER - fdcan->filter_n) // Correct Filter Nbr
 8005faa:	797a      	ldrb	r2, [r7, #5]
 8005fac:	693b      	ldr	r3, [r7, #16]
 8005fae:	7d1b      	ldrb	r3, [r3, #20]
 8005fb0:	f1c3 031c 	rsb	r3, r3, #28
 8005fb4:	429a      	cmp	r2, r3
 8005fb6:	dd04      	ble.n	8005fc2 <STRHAL_CAN_Subscribe+0x6a>
		n = fdcan->filter_n - n;
 8005fb8:	693b      	ldr	r3, [r7, #16]
 8005fba:	7d1a      	ldrb	r2, [r3, #20]
 8005fbc:	797b      	ldrb	r3, [r7, #5]
 8005fbe:	1ad3      	subs	r3, r2, r3
 8005fc0:	717b      	strb	r3, [r7, #5]

	if (fdcan->fifo_sub_state & (1U << rx_id)) // Already subscribed to this fifo
 8005fc2:	693b      	ldr	r3, [r7, #16]
 8005fc4:	7d5b      	ldrb	r3, [r3, #21]
 8005fc6:	461a      	mov	r2, r3
 8005fc8:	79bb      	ldrb	r3, [r7, #6]
 8005fca:	fa22 f303 	lsr.w	r3, r2, r3
 8005fce:	f003 0301 	and.w	r3, r3, #1
 8005fd2:	2b00      	cmp	r3, #0
 8005fd4:	d002      	beq.n	8005fdc <STRHAL_CAN_Subscribe+0x84>
		return -1;
 8005fd6:	f04f 33ff 	mov.w	r3, #4294967295	; 0xffffffff
 8005fda:	e08c      	b.n	80060f6 <STRHAL_CAN_Subscribe+0x19e>

	Can_Message_RAM *can_ram = fdcan->can_ram;
 8005fdc:	693b      	ldr	r3, [r7, #16]
 8005fde:	685b      	ldr	r3, [r3, #4]
 8005fe0:	60fb      	str	r3, [r7, #12]

	uint32_t sfec;

	switch (rx_id)
 8005fe2:	79bb      	ldrb	r3, [r7, #6]
 8005fe4:	2b00      	cmp	r3, #0
 8005fe6:	d002      	beq.n	8005fee <STRHAL_CAN_Subscribe+0x96>
 8005fe8:	2b01      	cmp	r3, #1
 8005fea:	d010      	beq.n	800600e <STRHAL_CAN_Subscribe+0xb6>
 8005fec:	e01b      	b.n	8006026 <STRHAL_CAN_Subscribe+0xce>
	{
		case STRHAL_FDCAN_RX0:
			fdcan->rxReceptors[0] = receptor;
 8005fee:	693b      	ldr	r3, [r7, #16]
 8005ff0:	6a3a      	ldr	r2, [r7, #32]
 8005ff2:	60da      	str	r2, [r3, #12]
			fdcan->fifo_sub_state |= 1U << STRHAL_FDCAN_RX0;
 8005ff4:	693b      	ldr	r3, [r7, #16]
 8005ff6:	7d5b      	ldrb	r3, [r3, #21]
 8005ff8:	f043 0301 	orr.w	r3, r3, #1
 8005ffc:	b2da      	uxtb	r2, r3
 8005ffe:	693b      	ldr	r3, [r7, #16]
 8006000:	755a      	strb	r2, [r3, #21]
			sfec = FDCAN_FILTER_TO_RXFIFO0;
 8006002:	2301      	movs	r3, #1
 8006004:	60bb      	str	r3, [r7, #8]
			break;
 8006006:	bf00      	nop
		default:
			return -1;
	}

	uint8_t i;
	for (i = 0; i < n; i++, fdcan->filter_n++)
 8006008:	2300      	movs	r3, #0
 800600a:	75fb      	strb	r3, [r7, #23]
 800600c:	e05f      	b.n	80060ce <STRHAL_CAN_Subscribe+0x176>
			fdcan->rxReceptors[1] = receptor;
 800600e:	693b      	ldr	r3, [r7, #16]
 8006010:	6a3a      	ldr	r2, [r7, #32]
 8006012:	611a      	str	r2, [r3, #16]
			fdcan->fifo_sub_state |= 1U << STRHAL_FDCAN_RX1;
 8006014:	693b      	ldr	r3, [r7, #16]
 8006016:	7d5b      	ldrb	r3, [r3, #21]
 8006018:	f043 0302 	orr.w	r3, r3, #2
 800601c:	b2da      	uxtb	r2, r3
 800601e:	693b      	ldr	r3, [r7, #16]
 8006020:	755a      	strb	r2, [r3, #21]
			sfec = FDCAN_FILTER_TO_RXFIFO1;
 8006022:	2302      	movs	r3, #2
 8006024:	60bb      	str	r3, [r7, #8]
			return -1;
 8006026:	f04f 33ff 	mov.w	r3, #4294967295	; 0xffffffff
 800602a:	e064      	b.n	80060f6 <STRHAL_CAN_Subscribe+0x19e>
	{
		can_ram->std_filters[i].S0.bit.SFEC = sfec;
 800602c:	7df9      	ldrb	r1, [r7, #23]
 800602e:	68bb      	ldr	r3, [r7, #8]
 8006030:	f003 0307 	and.w	r3, r3, #7
 8006034:	b2d8      	uxtb	r0, r3
 8006036:	68fa      	ldr	r2, [r7, #12]
 8006038:	f852 3021 	ldr.w	r3, [r2, r1, lsl #2]
 800603c:	f360 63dd 	bfi	r3, r0, #27, #3
 8006040:	f842 3021 	str.w	r3, [r2, r1, lsl #2]
		can_ram->std_filters[i].S0.bit.SFID1 = filter[i].value_id1;
 8006044:	7dfa      	ldrb	r2, [r7, #23]
 8006046:	4613      	mov	r3, r2
 8006048:	005b      	lsls	r3, r3, #1
 800604a:	4413      	add	r3, r2
 800604c:	009b      	lsls	r3, r3, #2
 800604e:	461a      	mov	r2, r3
 8006050:	683b      	ldr	r3, [r7, #0]
 8006052:	4413      	add	r3, r2
 8006054:	681b      	ldr	r3, [r3, #0]
 8006056:	7df9      	ldrb	r1, [r7, #23]
 8006058:	f3c3 030a 	ubfx	r3, r3, #0, #11
 800605c:	b298      	uxth	r0, r3
 800605e:	68fa      	ldr	r2, [r7, #12]
 8006060:	f852 3021 	ldr.w	r3, [r2, r1, lsl #2]
 8006064:	f360 431a 	bfi	r3, r0, #16, #11
 8006068:	f842 3021 	str.w	r3, [r2, r1, lsl #2]
		can_ram->std_filters[i].S0.bit.SFID2 = filter[i].mask_id2;
 800606c:	7dfa      	ldrb	r2, [r7, #23]
 800606e:	4613      	mov	r3, r2
 8006070:	005b      	lsls	r3, r3, #1
 8006072:	4413      	add	r3, r2
 8006074:	009b      	lsls	r3, r3, #2
 8006076:	461a      	mov	r2, r3
 8006078:	683b      	ldr	r3, [r7, #0]
 800607a:	4413      	add	r3, r2
 800607c:	685b      	ldr	r3, [r3, #4]
 800607e:	7df9      	ldrb	r1, [r7, #23]
 8006080:	f3c3 030a 	ubfx	r3, r3, #0, #11
 8006084:	b298      	uxth	r0, r3
 8006086:	68fa      	ldr	r2, [r7, #12]
 8006088:	f852 3021 	ldr.w	r3, [r2, r1, lsl #2]
 800608c:	f360 030a 	bfi	r3, r0, #0, #11
 8006090:	f842 3021 	str.w	r3, [r2, r1, lsl #2]
		can_ram->std_filters[i].S0.bit.SFT = filter[i].type;
 8006094:	7dfa      	ldrb	r2, [r7, #23]
 8006096:	4613      	mov	r3, r2
 8006098:	005b      	lsls	r3, r3, #1
 800609a:	4413      	add	r3, r2
 800609c:	009b      	lsls	r3, r3, #2
 800609e:	461a      	mov	r2, r3
 80060a0:	683b      	ldr	r3, [r7, #0]
 80060a2:	4413      	add	r3, r2
 80060a4:	689b      	ldr	r3, [r3, #8]
 80060a6:	7df9      	ldrb	r1, [r7, #23]
 80060a8:	f003 0303 	and.w	r3, r3, #3
 80060ac:	b2d8      	uxtb	r0, r3
 80060ae:	68fa      	ldr	r2, [r7, #12]
 80060b0:	f852 3021 	ldr.w	r3, [r2, r1, lsl #2]
 80060b4:	f360 739f 	bfi	r3, r0, #30, #2
 80060b8:	f842 3021 	str.w	r3, [r2, r1, lsl #2]
	for (i = 0; i < n; i++, fdcan->filter_n++)
 80060bc:	7dfb      	ldrb	r3, [r7, #23]
 80060be:	3301      	adds	r3, #1
 80060c0:	75fb      	strb	r3, [r7, #23]
 80060c2:	693b      	ldr	r3, [r7, #16]
 80060c4:	7d1b      	ldrb	r3, [r3, #20]
 80060c6:	3301      	adds	r3, #1
 80060c8:	b2da      	uxtb	r2, r3
 80060ca:	693b      	ldr	r3, [r7, #16]
 80060cc:	751a      	strb	r2, [r3, #20]
 80060ce:	7dfa      	ldrb	r2, [r7, #23]
 80060d0:	797b      	ldrb	r3, [r7, #5]
 80060d2:	429a      	cmp	r2, r3
 80060d4:	d3aa      	bcc.n	800602c <STRHAL_CAN_Subscribe+0xd4>
	}
	MODIFY_REG(fdcan->can->RXGFC, FDCAN_RXGFC_LSS, (fdcan->filter_n << FDCAN_RXGFC_LSS_Pos)); // Standard filter elements number
 80060d6:	693b      	ldr	r3, [r7, #16]
 80060d8:	681b      	ldr	r3, [r3, #0]
 80060da:	f8d3 3080 	ldr.w	r3, [r3, #128]	; 0x80
 80060de:	f423 12f8 	bic.w	r2, r3, #2031616	; 0x1f0000
 80060e2:	693b      	ldr	r3, [r7, #16]
 80060e4:	7d1b      	ldrb	r3, [r3, #20]
 80060e6:	041b      	lsls	r3, r3, #16
 80060e8:	4619      	mov	r1, r3
 80060ea:	693b      	ldr	r3, [r7, #16]
 80060ec:	681b      	ldr	r3, [r3, #0]
 80060ee:	430a      	orrs	r2, r1
 80060f0:	f8c3 2080 	str.w	r2, [r3, #128]	; 0x80
	return n;
 80060f4:	797b      	ldrb	r3, [r7, #5]
}
 80060f6:	4618      	mov	r0, r3
 80060f8:	371c      	adds	r7, #28
 80060fa:	46bd      	mov	sp, r7
 80060fc:	f85d 7b04 	ldr.w	r7, [sp], #4
 8006100:	4770      	bx	lr
 8006102:	bf00      	nop
 8006104:	20000004 	.word	0x20000004

08006108 <STRHAL_CAN_Init>:

STRHAL_Oof_t STRHAL_CAN_Init()
{
 8006108:	b580      	push	{r7, lr}
 800610a:	b082      	sub	sp, #8
 800610c:	af00      	add	r7, sp, #0
	STRHAL_Oof_t status = STRHAL_NOICE;
 800610e:	2300      	movs	r3, #0
 8006110:	71fb      	strb	r3, [r7, #7]
	STRHAL_CAN_Init_GPIO();
 8006112:	f7ff fdd9 	bl	8005cc8 <STRHAL_CAN_Init_GPIO>

	return status;
 8006116:	79fb      	ldrb	r3, [r7, #7]
}
 8006118:	4618      	mov	r0, r3
 800611a:	3708      	adds	r7, #8
 800611c:	46bd      	mov	sp, r7
 800611e:	bd80      	pop	{r7, pc}

08006120 <STRHAL_CAN_Send>:
	*rxfXA = i & 0x7;
	return n;
}

int32_t STRHAL_CAN_Send(STRHAL_FDCAN_Id_t fdcan_id, uint32_t id, const uint8_t *data, uint32_t n)
{
 8006120:	b480      	push	{r7}
 8006122:	b08b      	sub	sp, #44	; 0x2c
 8006124:	af00      	add	r7, sp, #0
 8006126:	60b9      	str	r1, [r7, #8]
 8006128:	607a      	str	r2, [r7, #4]
 800612a:	603b      	str	r3, [r7, #0]
 800612c:	4603      	mov	r3, r0
 800612e:	73fb      	strb	r3, [r7, #15]
	if (fdcan_id < 0 || fdcan_id >= STRHAL_N_FDCAN)
 8006130:	7bfb      	ldrb	r3, [r7, #15]
 8006132:	2b01      	cmp	r3, #1
 8006134:	d902      	bls.n	800613c <STRHAL_CAN_Send+0x1c>
		return -1;
 8006136:	f04f 33ff 	mov.w	r3, #4294967295	; 0xffffffff
 800613a:	e0b8      	b.n	80062ae <STRHAL_CAN_Send+0x18e>

	if (n == 0)
 800613c:	683b      	ldr	r3, [r7, #0]
 800613e:	2b00      	cmp	r3, #0
 8006140:	d101      	bne.n	8006146 <STRHAL_CAN_Send+0x26>
		return 0;
 8006142:	2300      	movs	r3, #0
 8006144:	e0b3      	b.n	80062ae <STRHAL_CAN_Send+0x18e>

	FDCAN_GlobalTypeDef *can = _fdcans[fdcan_id].can;
 8006146:	7bfa      	ldrb	r2, [r7, #15]
 8006148:	495c      	ldr	r1, [pc, #368]	; (80062bc <STRHAL_CAN_Send+0x19c>)
 800614a:	4613      	mov	r3, r2
 800614c:	005b      	lsls	r3, r3, #1
 800614e:	4413      	add	r3, r2
 8006150:	00db      	lsls	r3, r3, #3
 8006152:	440b      	add	r3, r1
 8006154:	681b      	ldr	r3, [r3, #0]
 8006156:	61fb      	str	r3, [r7, #28]
	Can_Message_RAM *can_ram = _fdcans[fdcan_id].can_ram;
 8006158:	7bfa      	ldrb	r2, [r7, #15]
 800615a:	4958      	ldr	r1, [pc, #352]	; (80062bc <STRHAL_CAN_Send+0x19c>)
 800615c:	4613      	mov	r3, r2
 800615e:	005b      	lsls	r3, r3, #1
 8006160:	4413      	add	r3, r2
 8006162:	00db      	lsls	r3, r3, #3
 8006164:	440b      	add	r3, r1
 8006166:	3304      	adds	r3, #4
 8006168:	681b      	ldr	r3, [r3, #0]
 800616a:	61bb      	str	r3, [r7, #24]

	if (!(can->TXFQS & FDCAN_TXFQS_TFFL))
 800616c:	69fb      	ldr	r3, [r7, #28]
 800616e:	f8d3 30c4 	ldr.w	r3, [r3, #196]	; 0xc4
 8006172:	f003 0307 	and.w	r3, r3, #7
 8006176:	2b00      	cmp	r3, #0
 8006178:	d102      	bne.n	8006180 <STRHAL_CAN_Send+0x60>
		return -1;
 800617a:	f04f 33ff 	mov.w	r3, #4294967295	; 0xffffffff
 800617e:	e096      	b.n	80062ae <STRHAL_CAN_Send+0x18e>

	if (n > FDCAN_ELMTS_ARRAY_SIZE)
 8006180:	683b      	ldr	r3, [r7, #0]
 8006182:	2b40      	cmp	r3, #64	; 0x40
 8006184:	d901      	bls.n	800618a <STRHAL_CAN_Send+0x6a>
		n = FDCAN_ELMTS_ARRAY_SIZE;
 8006186:	2340      	movs	r3, #64	; 0x40
 8006188:	603b      	str	r3, [r7, #0]

	uint8_t i = ((can->TXFQS & FDCAN_TXFQS_TFQPI_Msk) >> FDCAN_TXFQS_TFQPI_Pos);
 800618a:	69fb      	ldr	r3, [r7, #28]
 800618c:	f8d3 30c4 	ldr.w	r3, [r3, #196]	; 0xc4
 8006190:	0c1b      	lsrs	r3, r3, #16
 8006192:	b2db      	uxtb	r3, r3
 8006194:	f003 0303 	and.w	r3, r3, #3
 8006198:	75fb      	strb	r3, [r7, #23]

	Can_Tx_Element *frame = &can_ram->tx_buffer[i];
 800619a:	7dfa      	ldrb	r2, [r7, #23]
 800619c:	4613      	mov	r3, r2
 800619e:	00db      	lsls	r3, r3, #3
 80061a0:	4413      	add	r3, r2
 80061a2:	00db      	lsls	r3, r3, #3
 80061a4:	f503 731e 	add.w	r3, r3, #632	; 0x278
 80061a8:	69ba      	ldr	r2, [r7, #24]
 80061aa:	4413      	add	r3, r2
 80061ac:	613b      	str	r3, [r7, #16]
	frame->T0.bit.XTD = 0;
 80061ae:	693a      	ldr	r2, [r7, #16]
 80061b0:	6813      	ldr	r3, [r2, #0]
 80061b2:	f36f 739e 	bfc	r3, #30, #1
 80061b6:	6013      	str	r3, [r2, #0]
	frame->T0.bit.ID = id << 18;
 80061b8:	68bb      	ldr	r3, [r7, #8]
 80061ba:	049b      	lsls	r3, r3, #18
 80061bc:	f023 4160 	bic.w	r1, r3, #3758096384	; 0xe0000000
 80061c0:	693a      	ldr	r2, [r7, #16]
 80061c2:	6813      	ldr	r3, [r2, #0]
 80061c4:	f361 031c 	bfi	r3, r1, #0, #29
 80061c8:	6013      	str	r3, [r2, #0]
	frame->T0.bit.RTR = 0;
 80061ca:	693a      	ldr	r2, [r7, #16]
 80061cc:	6813      	ldr	r3, [r2, #0]
 80061ce:	f36f 735d 	bfc	r3, #29, #1
 80061d2:	6013      	str	r3, [r2, #0]
	frame->T1.bit.FDF = 1;
 80061d4:	693a      	ldr	r2, [r7, #16]
 80061d6:	6853      	ldr	r3, [r2, #4]
 80061d8:	f443 1300 	orr.w	r3, r3, #2097152	; 0x200000
 80061dc:	6053      	str	r3, [r2, #4]
	frame->T1.bit.BRS = 1;
 80061de:	693a      	ldr	r2, [r7, #16]
 80061e0:	6853      	ldr	r3, [r2, #4]
 80061e2:	f443 1380 	orr.w	r3, r3, #1048576	; 0x100000
 80061e6:	6053      	str	r3, [r2, #4]
	frame->T1.bit.DLC = Can_LengthToDlc[n];
 80061e8:	4a35      	ldr	r2, [pc, #212]	; (80062c0 <STRHAL_CAN_Send+0x1a0>)
 80061ea:	683b      	ldr	r3, [r7, #0]
 80061ec:	f852 3023 	ldr.w	r3, [r2, r3, lsl #2]
 80061f0:	f003 030f 	and.w	r3, r3, #15
 80061f4:	b2d9      	uxtb	r1, r3
 80061f6:	693a      	ldr	r2, [r7, #16]
 80061f8:	6853      	ldr	r3, [r2, #4]
 80061fa:	f361 4313 	bfi	r3, r1, #16, #4
 80061fe:	6053      	str	r3, [r2, #4]
	frame->T1.bit.EFCC = 0;
 8006200:	693a      	ldr	r2, [r7, #16]
 8006202:	6853      	ldr	r3, [r2, #4]
 8006204:	f36f 53d7 	bfc	r3, #23, #1
 8006208:	6053      	str	r3, [r2, #4]
	frame->T1.bit.MM = 0;
 800620a:	693a      	ldr	r2, [r7, #16]
 800620c:	6853      	ldr	r3, [r2, #4]
 800620e:	f36f 631f 	bfc	r3, #24, #8
 8006212:	6053      	str	r3, [r2, #4]
	/*if(frame->T0.bit.ID == 0 || frame->T1.bit.DLC == 0) {
	 uint8_t temp = 1;
	 (void) temp;
	 }*/

	uint32_t j = 0;
 8006214:	2300      	movs	r3, #0
 8006216:	627b      	str	r3, [r7, #36]	; 0x24
	for (uint32_t c = 0; c < n; c += 4)
 8006218:	2300      	movs	r3, #0
 800621a:	623b      	str	r3, [r7, #32]
 800621c:	e025      	b.n	800626a <STRHAL_CAN_Send+0x14a>
		frame->data.word[j++] = data[c] | data[c + 1] << 8 | data[c + 2] << 16 | data[c + 3] << 24;
 800621e:	687a      	ldr	r2, [r7, #4]
 8006220:	6a3b      	ldr	r3, [r7, #32]
 8006222:	4413      	add	r3, r2
 8006224:	781b      	ldrb	r3, [r3, #0]
 8006226:	4619      	mov	r1, r3
 8006228:	6a3b      	ldr	r3, [r7, #32]
 800622a:	3301      	adds	r3, #1
 800622c:	687a      	ldr	r2, [r7, #4]
 800622e:	4413      	add	r3, r2
 8006230:	781b      	ldrb	r3, [r3, #0]
 8006232:	021b      	lsls	r3, r3, #8
 8006234:	ea41 0203 	orr.w	r2, r1, r3
 8006238:	6a3b      	ldr	r3, [r7, #32]
 800623a:	3302      	adds	r3, #2
 800623c:	6879      	ldr	r1, [r7, #4]
 800623e:	440b      	add	r3, r1
 8006240:	781b      	ldrb	r3, [r3, #0]
 8006242:	041b      	lsls	r3, r3, #16
 8006244:	431a      	orrs	r2, r3
 8006246:	6a3b      	ldr	r3, [r7, #32]
 8006248:	3303      	adds	r3, #3
 800624a:	6879      	ldr	r1, [r7, #4]
 800624c:	440b      	add	r3, r1
 800624e:	781b      	ldrb	r3, [r3, #0]
 8006250:	061b      	lsls	r3, r3, #24
 8006252:	ea42 0103 	orr.w	r1, r2, r3
 8006256:	6a7b      	ldr	r3, [r7, #36]	; 0x24
 8006258:	1c5a      	adds	r2, r3, #1
 800625a:	627a      	str	r2, [r7, #36]	; 0x24
 800625c:	693a      	ldr	r2, [r7, #16]
 800625e:	3302      	adds	r3, #2
 8006260:	f842 1023 	str.w	r1, [r2, r3, lsl #2]
	for (uint32_t c = 0; c < n; c += 4)
 8006264:	6a3b      	ldr	r3, [r7, #32]
 8006266:	3304      	adds	r3, #4
 8006268:	623b      	str	r3, [r7, #32]
 800626a:	6a3a      	ldr	r2, [r7, #32]
 800626c:	683b      	ldr	r3, [r7, #0]
 800626e:	429a      	cmp	r2, r3
 8006270:	d3d5      	bcc.n	800621e <STRHAL_CAN_Send+0xfe>
	while (j < Can_DlcToLength[Can_LengthToDlc[n]] / 4)
 8006272:	e007      	b.n	8006284 <STRHAL_CAN_Send+0x164>
		frame->data.word[j++] = 0;
 8006274:	6a7b      	ldr	r3, [r7, #36]	; 0x24
 8006276:	1c5a      	adds	r2, r3, #1
 8006278:	627a      	str	r2, [r7, #36]	; 0x24
 800627a:	693a      	ldr	r2, [r7, #16]
 800627c:	3302      	adds	r3, #2
 800627e:	2100      	movs	r1, #0
 8006280:	f842 1023 	str.w	r1, [r2, r3, lsl #2]
	while (j < Can_DlcToLength[Can_LengthToDlc[n]] / 4)
 8006284:	4a0e      	ldr	r2, [pc, #56]	; (80062c0 <STRHAL_CAN_Send+0x1a0>)
 8006286:	683b      	ldr	r3, [r7, #0]
 8006288:	f852 3023 	ldr.w	r3, [r2, r3, lsl #2]
 800628c:	4a0d      	ldr	r2, [pc, #52]	; (80062c4 <STRHAL_CAN_Send+0x1a4>)
 800628e:	5cd3      	ldrb	r3, [r2, r3]
 8006290:	089b      	lsrs	r3, r3, #2
 8006292:	b2db      	uxtb	r3, r3
 8006294:	461a      	mov	r2, r3
 8006296:	6a7b      	ldr	r3, [r7, #36]	; 0x24
 8006298:	4293      	cmp	r3, r2
 800629a:	d3eb      	bcc.n	8006274 <STRHAL_CAN_Send+0x154>

	can->TXBAR = (1 << i);
 800629c:	7dfb      	ldrb	r3, [r7, #23]
 800629e:	2201      	movs	r2, #1
 80062a0:	fa02 f303 	lsl.w	r3, r2, r3
 80062a4:	461a      	mov	r2, r3
 80062a6:	69fb      	ldr	r3, [r7, #28]
 80062a8:	f8c3 20cc 	str.w	r2, [r3, #204]	; 0xcc

	return n;
 80062ac:	683b      	ldr	r3, [r7, #0]
}
 80062ae:	4618      	mov	r0, r3
 80062b0:	372c      	adds	r7, #44	; 0x2c
 80062b2:	46bd      	mov	sp, r7
 80062b4:	f85d 7b04 	ldr.w	r7, [sp], #4
 80062b8:	4770      	bx	lr
 80062ba:	bf00      	nop
 80062bc:	20000004 	.word	0x20000004
 80062c0:	080096c4 	.word	0x080096c4
 80062c4:	080096b4 	.word	0x080096b4

080062c8 <STRHAL_CAN_Run>:

void STRHAL_CAN_Run()
{
 80062c8:	b580      	push	{r7, lr}
 80062ca:	b082      	sub	sp, #8
 80062cc:	af00      	add	r7, sp, #0
	// End initialisation - start FDCANs
	STRHAL_CAN_Handle_t *fdcan1 = &_fdcans[STRHAL_FDCAN1];
 80062ce:	4b55      	ldr	r3, [pc, #340]	; (8006424 <STRHAL_CAN_Run+0x15c>)
 80062d0:	607b      	str	r3, [r7, #4]
	STRHAL_CAN_Handle_t *fdcan2 = &_fdcans[STRHAL_FDCAN2];
 80062d2:	4b55      	ldr	r3, [pc, #340]	; (8006428 <STRHAL_CAN_Run+0x160>)
 80062d4:	603b      	str	r3, [r7, #0]
	if (fdcan1->state == STRHAL_CAN_STATE_INITIALISING)
 80062d6:	687b      	ldr	r3, [r7, #4]
 80062d8:	7a1b      	ldrb	r3, [r3, #8]
 80062da:	b2db      	uxtb	r3, r3
 80062dc:	2b01      	cmp	r3, #1
 80062de:	d14b      	bne.n	8006378 <STRHAL_CAN_Run+0xb0>
	{
		if (fdcan1->fifo_sub_state & (1U << STRHAL_FDCAN_RX0))
 80062e0:	687b      	ldr	r3, [r7, #4]
 80062e2:	7d5b      	ldrb	r3, [r3, #21]
 80062e4:	f003 0301 	and.w	r3, r3, #1
 80062e8:	2b00      	cmp	r3, #0
 80062ea:	d011      	beq.n	8006310 <STRHAL_CAN_Run+0x48>
		{
			CLEAR_BIT(FDCAN1->ILS, FDCAN_ILS_RXFIFO0);
 80062ec:	4b4f      	ldr	r3, [pc, #316]	; (800642c <STRHAL_CAN_Run+0x164>)
 80062ee:	6d9b      	ldr	r3, [r3, #88]	; 0x58
 80062f0:	4a4e      	ldr	r2, [pc, #312]	; (800642c <STRHAL_CAN_Run+0x164>)
 80062f2:	f023 0301 	bic.w	r3, r3, #1
 80062f6:	6593      	str	r3, [r2, #88]	; 0x58
			SET_BIT(FDCAN1->ILE, FDCAN_ILE_EINT0);
 80062f8:	4b4c      	ldr	r3, [pc, #304]	; (800642c <STRHAL_CAN_Run+0x164>)
 80062fa:	6ddb      	ldr	r3, [r3, #92]	; 0x5c
 80062fc:	4a4b      	ldr	r2, [pc, #300]	; (800642c <STRHAL_CAN_Run+0x164>)
 80062fe:	f043 0301 	orr.w	r3, r3, #1
 8006302:	65d3      	str	r3, [r2, #92]	; 0x5c
			SET_BIT(FDCAN1->IE, FDCAN_IE_RF0NE);
 8006304:	4b49      	ldr	r3, [pc, #292]	; (800642c <STRHAL_CAN_Run+0x164>)
 8006306:	6d5b      	ldr	r3, [r3, #84]	; 0x54
 8006308:	4a48      	ldr	r2, [pc, #288]	; (800642c <STRHAL_CAN_Run+0x164>)
 800630a:	f043 0301 	orr.w	r3, r3, #1
 800630e:	6553      	str	r3, [r2, #84]	; 0x54
		}
		if (fdcan1->fifo_sub_state & (1U << STRHAL_FDCAN_RX1))
 8006310:	687b      	ldr	r3, [r7, #4]
 8006312:	7d5b      	ldrb	r3, [r3, #21]
 8006314:	f003 0302 	and.w	r3, r3, #2
 8006318:	2b00      	cmp	r3, #0
 800631a:	d011      	beq.n	8006340 <STRHAL_CAN_Run+0x78>
		{
			CLEAR_BIT(FDCAN1->ILS, FDCAN_ILS_RXFIFO1);
 800631c:	4b43      	ldr	r3, [pc, #268]	; (800642c <STRHAL_CAN_Run+0x164>)
 800631e:	6d9b      	ldr	r3, [r3, #88]	; 0x58
 8006320:	4a42      	ldr	r2, [pc, #264]	; (800642c <STRHAL_CAN_Run+0x164>)
 8006322:	f023 0302 	bic.w	r3, r3, #2
 8006326:	6593      	str	r3, [r2, #88]	; 0x58
			SET_BIT(FDCAN1->ILE, FDCAN_ILE_EINT0);
 8006328:	4b40      	ldr	r3, [pc, #256]	; (800642c <STRHAL_CAN_Run+0x164>)
 800632a:	6ddb      	ldr	r3, [r3, #92]	; 0x5c
 800632c:	4a3f      	ldr	r2, [pc, #252]	; (800642c <STRHAL_CAN_Run+0x164>)
 800632e:	f043 0301 	orr.w	r3, r3, #1
 8006332:	65d3      	str	r3, [r2, #92]	; 0x5c
			SET_BIT(FDCAN1->IE, FDCAN_IE_RF1NE);
 8006334:	4b3d      	ldr	r3, [pc, #244]	; (800642c <STRHAL_CAN_Run+0x164>)
 8006336:	6d5b      	ldr	r3, [r3, #84]	; 0x54
 8006338:	4a3c      	ldr	r2, [pc, #240]	; (800642c <STRHAL_CAN_Run+0x164>)
 800633a:	f043 0308 	orr.w	r3, r3, #8
 800633e:	6553      	str	r3, [r2, #84]	; 0x54
		}

		NVIC_SetPriority(FDCAN1_IT0_IRQn, NVIC_EncodePriority(NVIC_GetPriorityGrouping(), 0, 1));
 8006340:	f7ff fbf2 	bl	8005b28 <__NVIC_GetPriorityGrouping>
 8006344:	4603      	mov	r3, r0
 8006346:	2201      	movs	r2, #1
 8006348:	2100      	movs	r1, #0
 800634a:	4618      	mov	r0, r3
 800634c:	f7ff fc42 	bl	8005bd4 <NVIC_EncodePriority>
 8006350:	4603      	mov	r3, r0
 8006352:	4619      	mov	r1, r3
 8006354:	2015      	movs	r0, #21
 8006356:	f7ff fc13 	bl	8005b80 <__NVIC_SetPriority>
		NVIC_EnableIRQ(FDCAN1_IT0_IRQn);
 800635a:	2015      	movs	r0, #21
 800635c:	f7ff fbf2 	bl	8005b44 <__NVIC_EnableIRQ>

		CLEAR_BIT(FDCAN1->CCCR, FDCAN_CCCR_INIT);
 8006360:	4b32      	ldr	r3, [pc, #200]	; (800642c <STRHAL_CAN_Run+0x164>)
 8006362:	699b      	ldr	r3, [r3, #24]
 8006364:	4a31      	ldr	r2, [pc, #196]	; (800642c <STRHAL_CAN_Run+0x164>)
 8006366:	f023 0301 	bic.w	r3, r3, #1
 800636a:	6193      	str	r3, [r2, #24]

		_fdcans[STRHAL_FDCAN1].state = STRHAL_CAN_STATE_RUNNING;
 800636c:	4b2d      	ldr	r3, [pc, #180]	; (8006424 <STRHAL_CAN_Run+0x15c>)
 800636e:	2202      	movs	r2, #2
 8006370:	721a      	strb	r2, [r3, #8]
		LL_mDelay(100);
 8006372:	2064      	movs	r0, #100	; 0x64
 8006374:	f7fe f976 	bl	8004664 <LL_mDelay>
	}
	if (fdcan2->state == STRHAL_CAN_STATE_INITIALISING)
 8006378:	683b      	ldr	r3, [r7, #0]
 800637a:	7a1b      	ldrb	r3, [r3, #8]
 800637c:	b2db      	uxtb	r3, r3
 800637e:	2b01      	cmp	r3, #1
 8006380:	d14c      	bne.n	800641c <STRHAL_CAN_Run+0x154>
	{
		if (fdcan2->fifo_sub_state & (1U << STRHAL_FDCAN_RX0))
 8006382:	683b      	ldr	r3, [r7, #0]
 8006384:	7d5b      	ldrb	r3, [r3, #21]
 8006386:	f003 0301 	and.w	r3, r3, #1
 800638a:	2b00      	cmp	r3, #0
 800638c:	d011      	beq.n	80063b2 <STRHAL_CAN_Run+0xea>
		{
			CLEAR_BIT(FDCAN2->ILS, FDCAN_ILS_RXFIFO0);
 800638e:	4b28      	ldr	r3, [pc, #160]	; (8006430 <STRHAL_CAN_Run+0x168>)
 8006390:	6d9b      	ldr	r3, [r3, #88]	; 0x58
 8006392:	4a27      	ldr	r2, [pc, #156]	; (8006430 <STRHAL_CAN_Run+0x168>)
 8006394:	f023 0301 	bic.w	r3, r3, #1
 8006398:	6593      	str	r3, [r2, #88]	; 0x58
			SET_BIT(FDCAN2->ILE, FDCAN_ILE_EINT0);
 800639a:	4b25      	ldr	r3, [pc, #148]	; (8006430 <STRHAL_CAN_Run+0x168>)
 800639c:	6ddb      	ldr	r3, [r3, #92]	; 0x5c
 800639e:	4a24      	ldr	r2, [pc, #144]	; (8006430 <STRHAL_CAN_Run+0x168>)
 80063a0:	f043 0301 	orr.w	r3, r3, #1
 80063a4:	65d3      	str	r3, [r2, #92]	; 0x5c
			SET_BIT(FDCAN2->IE, FDCAN_IE_RF0NE);
 80063a6:	4b22      	ldr	r3, [pc, #136]	; (8006430 <STRHAL_CAN_Run+0x168>)
 80063a8:	6d5b      	ldr	r3, [r3, #84]	; 0x54
 80063aa:	4a21      	ldr	r2, [pc, #132]	; (8006430 <STRHAL_CAN_Run+0x168>)
 80063ac:	f043 0301 	orr.w	r3, r3, #1
 80063b0:	6553      	str	r3, [r2, #84]	; 0x54
		}
		if (fdcan2->fifo_sub_state & (1U << STRHAL_FDCAN_RX1))
 80063b2:	683b      	ldr	r3, [r7, #0]
 80063b4:	7d5b      	ldrb	r3, [r3, #21]
 80063b6:	f003 0302 	and.w	r3, r3, #2
 80063ba:	2b00      	cmp	r3, #0
 80063bc:	d011      	beq.n	80063e2 <STRHAL_CAN_Run+0x11a>
		{
			CLEAR_BIT(FDCAN2->ILS, FDCAN_ILS_RXFIFO1);
 80063be:	4b1c      	ldr	r3, [pc, #112]	; (8006430 <STRHAL_CAN_Run+0x168>)
 80063c0:	6d9b      	ldr	r3, [r3, #88]	; 0x58
 80063c2:	4a1b      	ldr	r2, [pc, #108]	; (8006430 <STRHAL_CAN_Run+0x168>)
 80063c4:	f023 0302 	bic.w	r3, r3, #2
 80063c8:	6593      	str	r3, [r2, #88]	; 0x58
			SET_BIT(FDCAN2->ILE, FDCAN_ILE_EINT0);
 80063ca:	4b19      	ldr	r3, [pc, #100]	; (8006430 <STRHAL_CAN_Run+0x168>)
 80063cc:	6ddb      	ldr	r3, [r3, #92]	; 0x5c
 80063ce:	4a18      	ldr	r2, [pc, #96]	; (8006430 <STRHAL_CAN_Run+0x168>)
 80063d0:	f043 0301 	orr.w	r3, r3, #1
 80063d4:	65d3      	str	r3, [r2, #92]	; 0x5c
			SET_BIT(FDCAN2->IE, FDCAN_IE_RF1NE);
 80063d6:	4b16      	ldr	r3, [pc, #88]	; (8006430 <STRHAL_CAN_Run+0x168>)
 80063d8:	6d5b      	ldr	r3, [r3, #84]	; 0x54
 80063da:	4a15      	ldr	r2, [pc, #84]	; (8006430 <STRHAL_CAN_Run+0x168>)
 80063dc:	f043 0308 	orr.w	r3, r3, #8
 80063e0:	6553      	str	r3, [r2, #84]	; 0x54
		}

		NVIC_SetPriority(FDCAN2_IT0_IRQn, NVIC_EncodePriority(NVIC_GetPriorityGrouping(), 0, 2));
 80063e2:	f7ff fba1 	bl	8005b28 <__NVIC_GetPriorityGrouping>
 80063e6:	4603      	mov	r3, r0
 80063e8:	2202      	movs	r2, #2
 80063ea:	2100      	movs	r1, #0
 80063ec:	4618      	mov	r0, r3
 80063ee:	f7ff fbf1 	bl	8005bd4 <NVIC_EncodePriority>
 80063f2:	4603      	mov	r3, r0
 80063f4:	4619      	mov	r1, r3
 80063f6:	2056      	movs	r0, #86	; 0x56
 80063f8:	f7ff fbc2 	bl	8005b80 <__NVIC_SetPriority>
		NVIC_EnableIRQ(FDCAN2_IT0_IRQn);
 80063fc:	2056      	movs	r0, #86	; 0x56
 80063fe:	f7ff fba1 	bl	8005b44 <__NVIC_EnableIRQ>

		CLEAR_BIT(FDCAN2->CCCR, FDCAN_CCCR_INIT);
 8006402:	4b0b      	ldr	r3, [pc, #44]	; (8006430 <STRHAL_CAN_Run+0x168>)
 8006404:	699b      	ldr	r3, [r3, #24]
 8006406:	4a0a      	ldr	r2, [pc, #40]	; (8006430 <STRHAL_CAN_Run+0x168>)
 8006408:	f023 0301 	bic.w	r3, r3, #1
 800640c:	6193      	str	r3, [r2, #24]
		_fdcans[STRHAL_FDCAN2].state = STRHAL_CAN_STATE_RUNNING;
 800640e:	4b05      	ldr	r3, [pc, #20]	; (8006424 <STRHAL_CAN_Run+0x15c>)
 8006410:	2202      	movs	r2, #2
 8006412:	f883 2020 	strb.w	r2, [r3, #32]
		LL_mDelay(100);
 8006416:	2064      	movs	r0, #100	; 0x64
 8006418:	f7fe f924 	bl	8004664 <LL_mDelay>
	}

}
 800641c:	bf00      	nop
 800641e:	3708      	adds	r7, #8
 8006420:	46bd      	mov	sp, r7
 8006422:	bd80      	pop	{r7, pc}
 8006424:	20000004 	.word	0x20000004
 8006428:	2000001c 	.word	0x2000001c
 800642c:	40006400 	.word	0x40006400
 8006430:	40006800 	.word	0x40006800

08006434 <FDCAN1_IT0_IRQHandler>:

void FDCAN1_IT0_IRQHandler(void)
{
 8006434:	b580      	push	{r7, lr}
 8006436:	b08c      	sub	sp, #48	; 0x30
 8006438:	af00      	add	r7, sp, #0
	if (FDCAN1->IR & FDCAN_IR_RF0N)
 800643a:	4b47      	ldr	r3, [pc, #284]	; (8006558 <FDCAN1_IT0_IRQHandler+0x124>)
 800643c:	6d1b      	ldr	r3, [r3, #80]	; 0x50
 800643e:	f003 0301 	and.w	r3, r3, #1
 8006442:	2b00      	cmp	r3, #0
 8006444:	d03f      	beq.n	80064c6 <FDCAN1_IT0_IRQHandler+0x92>
	{
		SET_BIT(FDCAN1->IR, FDCAN_IR_RF0N);
 8006446:	4b44      	ldr	r3, [pc, #272]	; (8006558 <FDCAN1_IT0_IRQHandler+0x124>)
 8006448:	6d1b      	ldr	r3, [r3, #80]	; 0x50
 800644a:	4a43      	ldr	r2, [pc, #268]	; (8006558 <FDCAN1_IT0_IRQHandler+0x124>)
 800644c:	f043 0301 	orr.w	r3, r3, #1
 8006450:	6513      	str	r3, [r2, #80]	; 0x50

		STRHAL_CAN_Receptor_t rec = _fdcans[STRHAL_FDCAN1].rxReceptors[0];
 8006452:	4b42      	ldr	r3, [pc, #264]	; (800655c <FDCAN1_IT0_IRQHandler+0x128>)
 8006454:	68db      	ldr	r3, [r3, #12]
 8006456:	62fb      	str	r3, [r7, #44]	; 0x2c
		Can_Message_RAM *can_ram = _fdcans[STRHAL_FDCAN1].can_ram;
 8006458:	4b40      	ldr	r3, [pc, #256]	; (800655c <FDCAN1_IT0_IRQHandler+0x128>)
 800645a:	685b      	ldr	r3, [r3, #4]
 800645c:	62bb      	str	r3, [r7, #40]	; 0x28

		uint8_t i;
		uint32_t l;
		uint32_t id;

		i = ((FDCAN_RXF0S_F0GI_Msk & FDCAN1->RXF0S) >> FDCAN_RXF0S_F0GI_Pos);
 800645e:	4b3e      	ldr	r3, [pc, #248]	; (8006558 <FDCAN1_IT0_IRQHandler+0x124>)
 8006460:	f8d3 3090 	ldr.w	r3, [r3, #144]	; 0x90
 8006464:	0a1b      	lsrs	r3, r3, #8
 8006466:	b2db      	uxtb	r3, r3
 8006468:	f003 0303 	and.w	r3, r3, #3
 800646c:	f887 3027 	strb.w	r3, [r7, #39]	; 0x27

		Can_Rx_Element *rx_fifo = &can_ram->rx_fifo0[i];
 8006470:	f897 2027 	ldrb.w	r2, [r7, #39]	; 0x27
 8006474:	4613      	mov	r3, r2
 8006476:	00db      	lsls	r3, r3, #3
 8006478:	4413      	add	r3, r2
 800647a:	00db      	lsls	r3, r3, #3
 800647c:	33b0      	adds	r3, #176	; 0xb0
 800647e:	6aba      	ldr	r2, [r7, #40]	; 0x28
 8006480:	4413      	add	r3, r2
 8006482:	623b      	str	r3, [r7, #32]

		id = rx_fifo->R0.bit.ID >> 18;
 8006484:	6a3b      	ldr	r3, [r7, #32]
 8006486:	681b      	ldr	r3, [r3, #0]
 8006488:	f3c3 031c 	ubfx	r3, r3, #0, #29
 800648c:	149b      	asrs	r3, r3, #18
 800648e:	61fb      	str	r3, [r7, #28]
		l = Can_DlcToLength[rx_fifo->R1.bit.DLC];
 8006490:	6a3b      	ldr	r3, [r7, #32]
 8006492:	799b      	ldrb	r3, [r3, #6]
 8006494:	f3c3 0303 	ubfx	r3, r3, #0, #4
 8006498:	b2db      	uxtb	r3, r3
 800649a:	461a      	mov	r2, r3
 800649c:	4b30      	ldr	r3, [pc, #192]	; (8006560 <FDCAN1_IT0_IRQHandler+0x12c>)
 800649e:	5c9b      	ldrb	r3, [r3, r2]
 80064a0:	61bb      	str	r3, [r7, #24]

		if (rec != NULL)
 80064a2:	6afb      	ldr	r3, [r7, #44]	; 0x2c
 80064a4:	2b00      	cmp	r3, #0
 80064a6:	d007      	beq.n	80064b8 <FDCAN1_IT0_IRQHandler+0x84>
			rec(id, rx_fifo->data.byte, l - 2);
 80064a8:	6a3b      	ldr	r3, [r7, #32]
 80064aa:	f103 0108 	add.w	r1, r3, #8
 80064ae:	69bb      	ldr	r3, [r7, #24]
 80064b0:	1e9a      	subs	r2, r3, #2
 80064b2:	6afb      	ldr	r3, [r7, #44]	; 0x2c
 80064b4:	69f8      	ldr	r0, [r7, #28]
 80064b6:	4798      	blx	r3

		FDCAN1->RXF0A = i & 0x7;
 80064b8:	f897 3027 	ldrb.w	r3, [r7, #39]	; 0x27
 80064bc:	4a26      	ldr	r2, [pc, #152]	; (8006558 <FDCAN1_IT0_IRQHandler+0x124>)
 80064be:	f003 0307 	and.w	r3, r3, #7
 80064c2:	f8c2 3094 	str.w	r3, [r2, #148]	; 0x94
	}
	if (FDCAN1->IR & FDCAN_IR_RF1N)
 80064c6:	4b24      	ldr	r3, [pc, #144]	; (8006558 <FDCAN1_IT0_IRQHandler+0x124>)
 80064c8:	6d1b      	ldr	r3, [r3, #80]	; 0x50
 80064ca:	f003 0308 	and.w	r3, r3, #8
 80064ce:	2b00      	cmp	r3, #0
 80064d0:	d03d      	beq.n	800654e <FDCAN1_IT0_IRQHandler+0x11a>
	{
		SET_BIT(FDCAN1->IR, FDCAN_IR_RF1N);
 80064d2:	4b21      	ldr	r3, [pc, #132]	; (8006558 <FDCAN1_IT0_IRQHandler+0x124>)
 80064d4:	6d1b      	ldr	r3, [r3, #80]	; 0x50
 80064d6:	4a20      	ldr	r2, [pc, #128]	; (8006558 <FDCAN1_IT0_IRQHandler+0x124>)
 80064d8:	f043 0308 	orr.w	r3, r3, #8
 80064dc:	6513      	str	r3, [r2, #80]	; 0x50

		STRHAL_CAN_Receptor_t rec = _fdcans[STRHAL_FDCAN1].rxReceptors[1];
 80064de:	4b1f      	ldr	r3, [pc, #124]	; (800655c <FDCAN1_IT0_IRQHandler+0x128>)
 80064e0:	691b      	ldr	r3, [r3, #16]
 80064e2:	617b      	str	r3, [r7, #20]
		Can_Message_RAM *can_ram = _fdcans[STRHAL_FDCAN1].can_ram;
 80064e4:	4b1d      	ldr	r3, [pc, #116]	; (800655c <FDCAN1_IT0_IRQHandler+0x128>)
 80064e6:	685b      	ldr	r3, [r3, #4]
 80064e8:	613b      	str	r3, [r7, #16]

		uint8_t i;
		uint32_t l;
		uint32_t id;

		i = ((FDCAN_RXF1S_F1GI_Msk & FDCAN1->RXF1S) >> FDCAN_RXF1S_F1GI_Pos);
 80064ea:	4b1b      	ldr	r3, [pc, #108]	; (8006558 <FDCAN1_IT0_IRQHandler+0x124>)
 80064ec:	f8d3 3098 	ldr.w	r3, [r3, #152]	; 0x98
 80064f0:	0a1b      	lsrs	r3, r3, #8
 80064f2:	b2db      	uxtb	r3, r3
 80064f4:	f003 0303 	and.w	r3, r3, #3
 80064f8:	73fb      	strb	r3, [r7, #15]

		Can_Rx_Element *rx_fifo = &can_ram->rx_fifo1[i];
 80064fa:	7bfa      	ldrb	r2, [r7, #15]
 80064fc:	4613      	mov	r3, r2
 80064fe:	00db      	lsls	r3, r3, #3
 8006500:	4413      	add	r3, r2
 8006502:	00db      	lsls	r3, r3, #3
 8006504:	f503 73c4 	add.w	r3, r3, #392	; 0x188
 8006508:	693a      	ldr	r2, [r7, #16]
 800650a:	4413      	add	r3, r2
 800650c:	60bb      	str	r3, [r7, #8]

		id = rx_fifo->R0.bit.ID >> 18;
 800650e:	68bb      	ldr	r3, [r7, #8]
 8006510:	681b      	ldr	r3, [r3, #0]
 8006512:	f3c3 031c 	ubfx	r3, r3, #0, #29
 8006516:	149b      	asrs	r3, r3, #18
 8006518:	607b      	str	r3, [r7, #4]
		l = Can_DlcToLength[rx_fifo->R1.bit.DLC];
 800651a:	68bb      	ldr	r3, [r7, #8]
 800651c:	799b      	ldrb	r3, [r3, #6]
 800651e:	f3c3 0303 	ubfx	r3, r3, #0, #4
 8006522:	b2db      	uxtb	r3, r3
 8006524:	461a      	mov	r2, r3
 8006526:	4b0e      	ldr	r3, [pc, #56]	; (8006560 <FDCAN1_IT0_IRQHandler+0x12c>)
 8006528:	5c9b      	ldrb	r3, [r3, r2]
 800652a:	603b      	str	r3, [r7, #0]

		//rec(id, rx_fifo->data.byte, l);
		if (rec != NULL)
 800652c:	697b      	ldr	r3, [r7, #20]
 800652e:	2b00      	cmp	r3, #0
 8006530:	d007      	beq.n	8006542 <FDCAN1_IT0_IRQHandler+0x10e>
			rec(id, rx_fifo->data.byte, l - 2);
 8006532:	68bb      	ldr	r3, [r7, #8]
 8006534:	f103 0108 	add.w	r1, r3, #8
 8006538:	683b      	ldr	r3, [r7, #0]
 800653a:	1e9a      	subs	r2, r3, #2
 800653c:	697b      	ldr	r3, [r7, #20]
 800653e:	6878      	ldr	r0, [r7, #4]
 8006540:	4798      	blx	r3
		FDCAN1->RXF1A = i & 0x7;
 8006542:	7bfb      	ldrb	r3, [r7, #15]
 8006544:	4a04      	ldr	r2, [pc, #16]	; (8006558 <FDCAN1_IT0_IRQHandler+0x124>)
 8006546:	f003 0307 	and.w	r3, r3, #7
 800654a:	f8c2 309c 	str.w	r3, [r2, #156]	; 0x9c
	}
}
 800654e:	bf00      	nop
 8006550:	3730      	adds	r7, #48	; 0x30
 8006552:	46bd      	mov	sp, r7
 8006554:	bd80      	pop	{r7, pc}
 8006556:	bf00      	nop
 8006558:	40006400 	.word	0x40006400
 800655c:	20000004 	.word	0x20000004
 8006560:	080096b4 	.word	0x080096b4

08006564 <FDCAN2_IT0_IRQHandler>:

void FDCAN2_IT0_IRQHandler(void)
{
 8006564:	b580      	push	{r7, lr}
 8006566:	b08c      	sub	sp, #48	; 0x30
 8006568:	af00      	add	r7, sp, #0
	if (FDCAN2->IR & FDCAN_IR_RF0N)
 800656a:	4b47      	ldr	r3, [pc, #284]	; (8006688 <FDCAN2_IT0_IRQHandler+0x124>)
 800656c:	6d1b      	ldr	r3, [r3, #80]	; 0x50
 800656e:	f003 0301 	and.w	r3, r3, #1
 8006572:	2b00      	cmp	r3, #0
 8006574:	d03f      	beq.n	80065f6 <FDCAN2_IT0_IRQHandler+0x92>
	{
		CLEAR_BIT(FDCAN2->IR, FDCAN_IR_RF0N);
 8006576:	4b44      	ldr	r3, [pc, #272]	; (8006688 <FDCAN2_IT0_IRQHandler+0x124>)
 8006578:	6d1b      	ldr	r3, [r3, #80]	; 0x50
 800657a:	4a43      	ldr	r2, [pc, #268]	; (8006688 <FDCAN2_IT0_IRQHandler+0x124>)
 800657c:	f023 0301 	bic.w	r3, r3, #1
 8006580:	6513      	str	r3, [r2, #80]	; 0x50

		STRHAL_CAN_Receptor_t rec = _fdcans[STRHAL_FDCAN2].rxReceptors[0];
 8006582:	4b42      	ldr	r3, [pc, #264]	; (800668c <FDCAN2_IT0_IRQHandler+0x128>)
 8006584:	6a5b      	ldr	r3, [r3, #36]	; 0x24
 8006586:	62fb      	str	r3, [r7, #44]	; 0x2c
		Can_Message_RAM *can_ram = _fdcans[STRHAL_FDCAN2].can_ram;
 8006588:	4b40      	ldr	r3, [pc, #256]	; (800668c <FDCAN2_IT0_IRQHandler+0x128>)
 800658a:	69db      	ldr	r3, [r3, #28]
 800658c:	62bb      	str	r3, [r7, #40]	; 0x28

		uint8_t i;
		uint32_t l;
		uint32_t id;

		i = ((FDCAN_RXF0S_F0GI_Msk & FDCAN2->RXF0S) >> FDCAN_RXF0S_F0GI_Pos);
 800658e:	4b3e      	ldr	r3, [pc, #248]	; (8006688 <FDCAN2_IT0_IRQHandler+0x124>)
 8006590:	f8d3 3090 	ldr.w	r3, [r3, #144]	; 0x90
 8006594:	0a1b      	lsrs	r3, r3, #8
 8006596:	b2db      	uxtb	r3, r3
 8006598:	f003 0303 	and.w	r3, r3, #3
 800659c:	f887 3027 	strb.w	r3, [r7, #39]	; 0x27

		Can_Rx_Element *rx_fifo = &can_ram->rx_fifo0[i];
 80065a0:	f897 2027 	ldrb.w	r2, [r7, #39]	; 0x27
 80065a4:	4613      	mov	r3, r2
 80065a6:	00db      	lsls	r3, r3, #3
 80065a8:	4413      	add	r3, r2
 80065aa:	00db      	lsls	r3, r3, #3
 80065ac:	33b0      	adds	r3, #176	; 0xb0
 80065ae:	6aba      	ldr	r2, [r7, #40]	; 0x28
 80065b0:	4413      	add	r3, r2
 80065b2:	623b      	str	r3, [r7, #32]

		id = rx_fifo->R0.bit.ID >> 18;
 80065b4:	6a3b      	ldr	r3, [r7, #32]
 80065b6:	681b      	ldr	r3, [r3, #0]
 80065b8:	f3c3 031c 	ubfx	r3, r3, #0, #29
 80065bc:	149b      	asrs	r3, r3, #18
 80065be:	61fb      	str	r3, [r7, #28]
		l = Can_DlcToLength[rx_fifo->R1.bit.DLC];
 80065c0:	6a3b      	ldr	r3, [r7, #32]
 80065c2:	799b      	ldrb	r3, [r3, #6]
 80065c4:	f3c3 0303 	ubfx	r3, r3, #0, #4
 80065c8:	b2db      	uxtb	r3, r3
 80065ca:	461a      	mov	r2, r3
 80065cc:	4b30      	ldr	r3, [pc, #192]	; (8006690 <FDCAN2_IT0_IRQHandler+0x12c>)
 80065ce:	5c9b      	ldrb	r3, [r3, r2]
 80065d0:	61bb      	str	r3, [r7, #24]

		//rec(id, rx_fifo->data.byte, l);
		if (rec != NULL)
 80065d2:	6afb      	ldr	r3, [r7, #44]	; 0x2c
 80065d4:	2b00      	cmp	r3, #0
 80065d6:	d007      	beq.n	80065e8 <FDCAN2_IT0_IRQHandler+0x84>
			rec(id, rx_fifo->data.byte, l - 2);
 80065d8:	6a3b      	ldr	r3, [r7, #32]
 80065da:	f103 0108 	add.w	r1, r3, #8
 80065de:	69bb      	ldr	r3, [r7, #24]
 80065e0:	1e9a      	subs	r2, r3, #2
 80065e2:	6afb      	ldr	r3, [r7, #44]	; 0x2c
 80065e4:	69f8      	ldr	r0, [r7, #28]
 80065e6:	4798      	blx	r3

		FDCAN2->RXF0A = i & 0x7;
 80065e8:	f897 3027 	ldrb.w	r3, [r7, #39]	; 0x27
 80065ec:	4a26      	ldr	r2, [pc, #152]	; (8006688 <FDCAN2_IT0_IRQHandler+0x124>)
 80065ee:	f003 0307 	and.w	r3, r3, #7
 80065f2:	f8c2 3094 	str.w	r3, [r2, #148]	; 0x94

	}
	if (FDCAN2->IR & FDCAN_IR_RF1N)
 80065f6:	4b24      	ldr	r3, [pc, #144]	; (8006688 <FDCAN2_IT0_IRQHandler+0x124>)
 80065f8:	6d1b      	ldr	r3, [r3, #80]	; 0x50
 80065fa:	f003 0308 	and.w	r3, r3, #8
 80065fe:	2b00      	cmp	r3, #0
 8006600:	d03d      	beq.n	800667e <FDCAN2_IT0_IRQHandler+0x11a>
	{
		CLEAR_BIT(FDCAN2->IR, FDCAN_IR_RF1N);
 8006602:	4b21      	ldr	r3, [pc, #132]	; (8006688 <FDCAN2_IT0_IRQHandler+0x124>)
 8006604:	6d1b      	ldr	r3, [r3, #80]	; 0x50
 8006606:	4a20      	ldr	r2, [pc, #128]	; (8006688 <FDCAN2_IT0_IRQHandler+0x124>)
 8006608:	f023 0308 	bic.w	r3, r3, #8
 800660c:	6513      	str	r3, [r2, #80]	; 0x50

		STRHAL_CAN_Receptor_t rec = _fdcans[STRHAL_FDCAN2].rxReceptors[1];
 800660e:	4b1f      	ldr	r3, [pc, #124]	; (800668c <FDCAN2_IT0_IRQHandler+0x128>)
 8006610:	6a9b      	ldr	r3, [r3, #40]	; 0x28
 8006612:	617b      	str	r3, [r7, #20]
		Can_Message_RAM *can_ram = _fdcans[STRHAL_FDCAN2].can_ram;
 8006614:	4b1d      	ldr	r3, [pc, #116]	; (800668c <FDCAN2_IT0_IRQHandler+0x128>)
 8006616:	69db      	ldr	r3, [r3, #28]
 8006618:	613b      	str	r3, [r7, #16]

		uint8_t i;
		uint32_t l;
		uint32_t id;

		i = ((FDCAN_RXF1S_F1GI_Msk & FDCAN2->RXF1S) >> FDCAN_RXF1S_F1GI_Pos);
 800661a:	4b1b      	ldr	r3, [pc, #108]	; (8006688 <FDCAN2_IT0_IRQHandler+0x124>)
 800661c:	f8d3 3098 	ldr.w	r3, [r3, #152]	; 0x98
 8006620:	0a1b      	lsrs	r3, r3, #8
 8006622:	b2db      	uxtb	r3, r3
 8006624:	f003 0303 	and.w	r3, r3, #3
 8006628:	73fb      	strb	r3, [r7, #15]

		Can_Rx_Element *rx_fifo = &can_ram->rx_fifo1[i];
 800662a:	7bfa      	ldrb	r2, [r7, #15]
 800662c:	4613      	mov	r3, r2
 800662e:	00db      	lsls	r3, r3, #3
 8006630:	4413      	add	r3, r2
 8006632:	00db      	lsls	r3, r3, #3
 8006634:	f503 73c4 	add.w	r3, r3, #392	; 0x188
 8006638:	693a      	ldr	r2, [r7, #16]
 800663a:	4413      	add	r3, r2
 800663c:	60bb      	str	r3, [r7, #8]

		id = rx_fifo->R0.bit.ID >> 18;
 800663e:	68bb      	ldr	r3, [r7, #8]
 8006640:	681b      	ldr	r3, [r3, #0]
 8006642:	f3c3 031c 	ubfx	r3, r3, #0, #29
 8006646:	149b      	asrs	r3, r3, #18
 8006648:	607b      	str	r3, [r7, #4]
		l = Can_DlcToLength[rx_fifo->R1.bit.DLC];
 800664a:	68bb      	ldr	r3, [r7, #8]
 800664c:	799b      	ldrb	r3, [r3, #6]
 800664e:	f3c3 0303 	ubfx	r3, r3, #0, #4
 8006652:	b2db      	uxtb	r3, r3
 8006654:	461a      	mov	r2, r3
 8006656:	4b0e      	ldr	r3, [pc, #56]	; (8006690 <FDCAN2_IT0_IRQHandler+0x12c>)
 8006658:	5c9b      	ldrb	r3, [r3, r2]
 800665a:	603b      	str	r3, [r7, #0]

		//rec(id, rx_fifo->data.byte, l);
		if (rec != NULL)
 800665c:	697b      	ldr	r3, [r7, #20]
 800665e:	2b00      	cmp	r3, #0
 8006660:	d007      	beq.n	8006672 <FDCAN2_IT0_IRQHandler+0x10e>
			rec(id, rx_fifo->data.byte, l - 2);
 8006662:	68bb      	ldr	r3, [r7, #8]
 8006664:	f103 0108 	add.w	r1, r3, #8
 8006668:	683b      	ldr	r3, [r7, #0]
 800666a:	1e9a      	subs	r2, r3, #2
 800666c:	697b      	ldr	r3, [r7, #20]
 800666e:	6878      	ldr	r0, [r7, #4]
 8006670:	4798      	blx	r3
		FDCAN2->RXF1A = i & 0x7;
 8006672:	7bfb      	ldrb	r3, [r7, #15]
 8006674:	4a04      	ldr	r2, [pc, #16]	; (8006688 <FDCAN2_IT0_IRQHandler+0x124>)
 8006676:	f003 0307 	and.w	r3, r3, #7
 800667a:	f8c2 309c 	str.w	r3, [r2, #156]	; 0x9c
	}
}
 800667e:	bf00      	nop
 8006680:	3730      	adds	r7, #48	; 0x30
 8006682:	46bd      	mov	sp, r7
 8006684:	bd80      	pop	{r7, pc}
 8006686:	bf00      	nop
 8006688:	40006800 	.word	0x40006800
 800668c:	20000004 	.word	0x20000004
 8006690:	080096b4 	.word	0x080096b4

08006694 <STRHAL_Clock_Init>:
#include <STRHAL_Clock.h>

void STRHAL_Clock_Init()
{
 8006694:	b480      	push	{r7}
 8006696:	af00      	add	r7, sp, #0

}
 8006698:	bf00      	nop
 800669a:	46bd      	mov	sp, r7
 800669c:	f85d 7b04 	ldr.w	r7, [sp], #4
 80066a0:	4770      	bx	lr

080066a2 <LL_GPIO_ReadOutputPort>:
{
 80066a2:	b480      	push	{r7}
 80066a4:	b083      	sub	sp, #12
 80066a6:	af00      	add	r7, sp, #0
 80066a8:	6078      	str	r0, [r7, #4]
  return (uint32_t)(READ_REG(GPIOx->ODR));
 80066aa:	687b      	ldr	r3, [r7, #4]
 80066ac:	695b      	ldr	r3, [r3, #20]
}
 80066ae:	4618      	mov	r0, r3
 80066b0:	370c      	adds	r7, #12
 80066b2:	46bd      	mov	sp, r7
 80066b4:	f85d 7b04 	ldr.w	r7, [sp], #4
 80066b8:	4770      	bx	lr

080066ba <LL_GPIO_SetOutputPin>:
{
 80066ba:	b480      	push	{r7}
 80066bc:	b083      	sub	sp, #12
 80066be:	af00      	add	r7, sp, #0
 80066c0:	6078      	str	r0, [r7, #4]
 80066c2:	6039      	str	r1, [r7, #0]
  WRITE_REG(GPIOx->BSRR, PinMask);
 80066c4:	687b      	ldr	r3, [r7, #4]
 80066c6:	683a      	ldr	r2, [r7, #0]
 80066c8:	619a      	str	r2, [r3, #24]
}
 80066ca:	bf00      	nop
 80066cc:	370c      	adds	r7, #12
 80066ce:	46bd      	mov	sp, r7
 80066d0:	f85d 7b04 	ldr.w	r7, [sp], #4
 80066d4:	4770      	bx	lr

080066d6 <LL_GPIO_ResetOutputPin>:
{
 80066d6:	b480      	push	{r7}
 80066d8:	b083      	sub	sp, #12
 80066da:	af00      	add	r7, sp, #0
 80066dc:	6078      	str	r0, [r7, #4]
 80066de:	6039      	str	r1, [r7, #0]
  WRITE_REG(GPIOx->BRR, PinMask);
 80066e0:	687b      	ldr	r3, [r7, #4]
 80066e2:	683a      	ldr	r2, [r7, #0]
 80066e4:	629a      	str	r2, [r3, #40]	; 0x28
}
 80066e6:	bf00      	nop
 80066e8:	370c      	adds	r7, #12
 80066ea:	46bd      	mov	sp, r7
 80066ec:	f85d 7b04 	ldr.w	r7, [sp], #4
 80066f0:	4770      	bx	lr
	...

080066f4 <LL_AHB2_GRP1_EnableClock>:
{
 80066f4:	b480      	push	{r7}
 80066f6:	b085      	sub	sp, #20
 80066f8:	af00      	add	r7, sp, #0
 80066fa:	6078      	str	r0, [r7, #4]
  SET_BIT(RCC->AHB2ENR, Periphs);
 80066fc:	4b08      	ldr	r3, [pc, #32]	; (8006720 <LL_AHB2_GRP1_EnableClock+0x2c>)
 80066fe:	6cda      	ldr	r2, [r3, #76]	; 0x4c
 8006700:	4907      	ldr	r1, [pc, #28]	; (8006720 <LL_AHB2_GRP1_EnableClock+0x2c>)
 8006702:	687b      	ldr	r3, [r7, #4]
 8006704:	4313      	orrs	r3, r2
 8006706:	64cb      	str	r3, [r1, #76]	; 0x4c
  tmpreg = READ_BIT(RCC->AHB2ENR, Periphs);
 8006708:	4b05      	ldr	r3, [pc, #20]	; (8006720 <LL_AHB2_GRP1_EnableClock+0x2c>)
 800670a:	6cda      	ldr	r2, [r3, #76]	; 0x4c
 800670c:	687b      	ldr	r3, [r7, #4]
 800670e:	4013      	ands	r3, r2
 8006710:	60fb      	str	r3, [r7, #12]
  (void)tmpreg;
 8006712:	68fb      	ldr	r3, [r7, #12]
}
 8006714:	bf00      	nop
 8006716:	3714      	adds	r7, #20
 8006718:	46bd      	mov	sp, r7
 800671a:	f85d 7b04 	ldr.w	r7, [sp], #4
 800671e:	4770      	bx	lr
 8006720:	40021000 	.word	0x40021000

08006724 <STRHAL_GPIO_Init>:
#include <stm32g4xx_ll_gpio.h>
#include <stm32g4xx_ll_rcc.h>
#include <STRHAL_GPIO.h>

void STRHAL_GPIO_Init()
{
 8006724:	b580      	push	{r7, lr}
 8006726:	af00      	add	r7, sp, #0
	/* GPIO Ports Clock Enable */
	LL_AHB2_GRP1_EnableClock(LL_AHB2_GRP1_PERIPH_GPIOC);
 8006728:	2004      	movs	r0, #4
 800672a:	f7ff ffe3 	bl	80066f4 <LL_AHB2_GRP1_EnableClock>
	LL_AHB2_GRP1_EnableClock(LL_AHB2_GRP1_PERIPH_GPIOF);
 800672e:	2020      	movs	r0, #32
 8006730:	f7ff ffe0 	bl	80066f4 <LL_AHB2_GRP1_EnableClock>
	LL_AHB2_GRP1_EnableClock(LL_AHB2_GRP1_PERIPH_GPIOA);
 8006734:	2001      	movs	r0, #1
 8006736:	f7ff ffdd 	bl	80066f4 <LL_AHB2_GRP1_EnableClock>
	LL_AHB2_GRP1_EnableClock(LL_AHB2_GRP1_PERIPH_GPIOB);
 800673a:	2002      	movs	r0, #2
 800673c:	f7ff ffda 	bl	80066f4 <LL_AHB2_GRP1_EnableClock>
	LL_AHB2_GRP1_EnableClock(LL_AHB2_GRP1_PERIPH_GPIOE);
 8006740:	2010      	movs	r0, #16
 8006742:	f7ff ffd7 	bl	80066f4 <LL_AHB2_GRP1_EnableClock>
	LL_AHB2_GRP1_EnableClock(LL_AHB2_GRP1_PERIPH_GPIOD);
 8006746:	2008      	movs	r0, #8
 8006748:	f7ff ffd4 	bl	80066f4 <LL_AHB2_GRP1_EnableClock>
}
 800674c:	bf00      	nop
 800674e:	bd80      	pop	{r7, pc}

08006750 <STRHAL_GPIO_SingleInit>:

// requires the type parameter and the gpio type to be the same TODO: find a better way to enforce that!
void STRHAL_GPIO_SingleInit(const STRHAL_GPIO_t *gpio, STRHAL_GPIO_Type_t type)
{
 8006750:	b580      	push	{r7, lr}
 8006752:	b088      	sub	sp, #32
 8006754:	af00      	add	r7, sp, #0
 8006756:	6078      	str	r0, [r7, #4]
 8006758:	460b      	mov	r3, r1
 800675a:	70fb      	strb	r3, [r7, #3]
	if (gpio->pin > 0x1F)
 800675c:	687b      	ldr	r3, [r7, #4]
 800675e:	791b      	ldrb	r3, [r3, #4]
 8006760:	2b1f      	cmp	r3, #31
 8006762:	d84d      	bhi.n	8006800 <STRHAL_GPIO_SingleInit+0xb0>
		return;

	LL_GPIO_InitTypeDef GPIO_InitStruct =
 8006764:	f107 0308 	add.w	r3, r7, #8
 8006768:	2200      	movs	r2, #0
 800676a:	601a      	str	r2, [r3, #0]
 800676c:	605a      	str	r2, [r3, #4]
 800676e:	609a      	str	r2, [r3, #8]
 8006770:	60da      	str	r2, [r3, #12]
 8006772:	611a      	str	r2, [r3, #16]
 8006774:	615a      	str	r2, [r3, #20]
	{ 0 };

	LL_GPIO_ResetOutputPin(gpio->port, (1 << gpio->pin));
 8006776:	687b      	ldr	r3, [r7, #4]
 8006778:	681a      	ldr	r2, [r3, #0]
 800677a:	687b      	ldr	r3, [r7, #4]
 800677c:	791b      	ldrb	r3, [r3, #4]
 800677e:	4619      	mov	r1, r3
 8006780:	2301      	movs	r3, #1
 8006782:	408b      	lsls	r3, r1
 8006784:	4619      	mov	r1, r3
 8006786:	4610      	mov	r0, r2
 8006788:	f7ff ffa5 	bl	80066d6 <LL_GPIO_ResetOutputPin>

	GPIO_InitStruct.Pin = (1 << gpio->pin);
 800678c:	687b      	ldr	r3, [r7, #4]
 800678e:	791b      	ldrb	r3, [r3, #4]
 8006790:	461a      	mov	r2, r3
 8006792:	2301      	movs	r3, #1
 8006794:	4093      	lsls	r3, r2
 8006796:	60bb      	str	r3, [r7, #8]
	GPIO_InitStruct.Speed = LL_GPIO_SPEED_FREQ_HIGH;
 8006798:	2302      	movs	r3, #2
 800679a:	613b      	str	r3, [r7, #16]
	switch (type)
 800679c:	78fb      	ldrb	r3, [r7, #3]
 800679e:	2b04      	cmp	r3, #4
 80067a0:	d825      	bhi.n	80067ee <STRHAL_GPIO_SingleInit+0x9e>
 80067a2:	a201      	add	r2, pc, #4	; (adr r2, 80067a8 <STRHAL_GPIO_SingleInit+0x58>)
 80067a4:	f852 f023 	ldr.w	pc, [r2, r3, lsl #2]
 80067a8:	080067bd 	.word	0x080067bd
 80067ac:	080067c7 	.word	0x080067c7
 80067b0:	080067d1 	.word	0x080067d1
 80067b4:	080067db 	.word	0x080067db
 80067b8:	080067e5 	.word	0x080067e5
	{
		case STRHAL_GPIO_TYPE_OPP:
			GPIO_InitStruct.Mode = LL_GPIO_MODE_OUTPUT;
 80067bc:	2301      	movs	r3, #1
 80067be:	60fb      	str	r3, [r7, #12]
			GPIO_InitStruct.OutputType = LL_GPIO_OUTPUT_PUSHPULL;
 80067c0:	2300      	movs	r3, #0
 80067c2:	617b      	str	r3, [r7, #20]
			break;
 80067c4:	e013      	b.n	80067ee <STRHAL_GPIO_SingleInit+0x9e>

		case STRHAL_GPIO_TYPE_OOD:
			GPIO_InitStruct.Mode = LL_GPIO_MODE_OUTPUT;
 80067c6:	2301      	movs	r3, #1
 80067c8:	60fb      	str	r3, [r7, #12]
			GPIO_InitStruct.OutputType = LL_GPIO_OUTPUT_OPENDRAIN;
 80067ca:	2301      	movs	r3, #1
 80067cc:	617b      	str	r3, [r7, #20]
			break;
 80067ce:	e00e      	b.n	80067ee <STRHAL_GPIO_SingleInit+0x9e>

		case STRHAL_GPIO_TYPE_IHZ:
			GPIO_InitStruct.Mode = LL_GPIO_MODE_INPUT;
 80067d0:	2300      	movs	r3, #0
 80067d2:	60fb      	str	r3, [r7, #12]
			GPIO_InitStruct.Pull = LL_GPIO_PULL_NO;
 80067d4:	2300      	movs	r3, #0
 80067d6:	61bb      	str	r3, [r7, #24]
			break;
 80067d8:	e009      	b.n	80067ee <STRHAL_GPIO_SingleInit+0x9e>

		case STRHAL_GPIO_TYPE_IPU:
			GPIO_InitStruct.Mode = LL_GPIO_MODE_INPUT;
 80067da:	2300      	movs	r3, #0
 80067dc:	60fb      	str	r3, [r7, #12]
			GPIO_InitStruct.Pull = LL_GPIO_PULL_UP;
 80067de:	2301      	movs	r3, #1
 80067e0:	61bb      	str	r3, [r7, #24]
			break;
 80067e2:	e004      	b.n	80067ee <STRHAL_GPIO_SingleInit+0x9e>

		case STRHAL_GPIO_TYPE_IPD:
			GPIO_InitStruct.Mode = LL_GPIO_MODE_INPUT;
 80067e4:	2300      	movs	r3, #0
 80067e6:	60fb      	str	r3, [r7, #12]
			GPIO_InitStruct.Pull = LL_GPIO_PULL_DOWN;
 80067e8:	2302      	movs	r3, #2
 80067ea:	61bb      	str	r3, [r7, #24]
			break;
 80067ec:	bf00      	nop
	}
	LL_GPIO_Init(gpio->port, &GPIO_InitStruct);
 80067ee:	687b      	ldr	r3, [r7, #4]
 80067f0:	681b      	ldr	r3, [r3, #0]
 80067f2:	f107 0208 	add.w	r2, r7, #8
 80067f6:	4611      	mov	r1, r2
 80067f8:	4618      	mov	r0, r3
 80067fa:	f7fc fd78 	bl	80032ee <LL_GPIO_Init>
 80067fe:	e000      	b.n	8006802 <STRHAL_GPIO_SingleInit+0xb2>
		return;
 8006800:	bf00      	nop
	//gpio->type = type;
}
 8006802:	3720      	adds	r7, #32
 8006804:	46bd      	mov	sp, r7
 8006806:	bd80      	pop	{r7, pc}

08006808 <STRHAL_GPIO_Write>:
		STRHAL_GPIO_SingleInit(&gpios->gpios[i], type);
	}
}

inline void STRHAL_GPIO_Write(const STRHAL_GPIO_t *gpio, STRHAL_GPIO_Value_t value)
{
 8006808:	b580      	push	{r7, lr}
 800680a:	b082      	sub	sp, #8
 800680c:	af00      	add	r7, sp, #0
 800680e:	6078      	str	r0, [r7, #4]
 8006810:	460b      	mov	r3, r1
 8006812:	70fb      	strb	r3, [r7, #3]
	if (gpio->pin > 0x1F)
 8006814:	687b      	ldr	r3, [r7, #4]
 8006816:	791b      	ldrb	r3, [r3, #4]
 8006818:	2b1f      	cmp	r3, #31
 800681a:	d81a      	bhi.n	8006852 <STRHAL_GPIO_Write+0x4a>
		return;

	if (value == STRHAL_GPIO_VALUE_H)
 800681c:	78fb      	ldrb	r3, [r7, #3]
 800681e:	2b01      	cmp	r3, #1
 8006820:	d10b      	bne.n	800683a <STRHAL_GPIO_Write+0x32>
	{
		LL_GPIO_SetOutputPin(gpio->port, (1 << gpio->pin));
 8006822:	687b      	ldr	r3, [r7, #4]
 8006824:	681a      	ldr	r2, [r3, #0]
 8006826:	687b      	ldr	r3, [r7, #4]
 8006828:	791b      	ldrb	r3, [r3, #4]
 800682a:	4619      	mov	r1, r3
 800682c:	2301      	movs	r3, #1
 800682e:	408b      	lsls	r3, r1
 8006830:	4619      	mov	r1, r3
 8006832:	4610      	mov	r0, r2
 8006834:	f7ff ff41 	bl	80066ba <LL_GPIO_SetOutputPin>
 8006838:	e00c      	b.n	8006854 <STRHAL_GPIO_Write+0x4c>
	}
	else
	{
		LL_GPIO_ResetOutputPin(gpio->port, (1 << gpio->pin));
 800683a:	687b      	ldr	r3, [r7, #4]
 800683c:	681a      	ldr	r2, [r3, #0]
 800683e:	687b      	ldr	r3, [r7, #4]
 8006840:	791b      	ldrb	r3, [r3, #4]
 8006842:	4619      	mov	r1, r3
 8006844:	2301      	movs	r3, #1
 8006846:	408b      	lsls	r3, r1
 8006848:	4619      	mov	r1, r3
 800684a:	4610      	mov	r0, r2
 800684c:	f7ff ff43 	bl	80066d6 <LL_GPIO_ResetOutputPin>
 8006850:	e000      	b.n	8006854 <STRHAL_GPIO_Write+0x4c>
		return;
 8006852:	bf00      	nop
	}

}
 8006854:	3708      	adds	r7, #8
 8006856:	46bd      	mov	sp, r7
 8006858:	bd80      	pop	{r7, pc}

0800685a <STRHAL_GPIO_ReadOutput>:

	return (LL_GPIO_ReadInputPort(gpio->port) & (1 << gpio->pin)) ? 1 : 0;
}

STRHAL_GPIO_Value_t STRHAL_GPIO_ReadOutput(const STRHAL_GPIO_t *gpio)
{
 800685a:	b580      	push	{r7, lr}
 800685c:	b082      	sub	sp, #8
 800685e:	af00      	add	r7, sp, #0
 8006860:	6078      	str	r0, [r7, #4]
	if (gpio->pin > 0x1F)
 8006862:	687b      	ldr	r3, [r7, #4]
 8006864:	791b      	ldrb	r3, [r3, #4]
 8006866:	2b1f      	cmp	r3, #31
 8006868:	d901      	bls.n	800686e <STRHAL_GPIO_ReadOutput+0x14>
		return STRHAL_GPIO_VALUE_L;
 800686a:	2300      	movs	r3, #0
 800686c:	e010      	b.n	8006890 <STRHAL_GPIO_ReadOutput+0x36>

	return (LL_GPIO_ReadOutputPort(gpio->port) & (1 << gpio->pin)) ? 1 : 0;
 800686e:	687b      	ldr	r3, [r7, #4]
 8006870:	681b      	ldr	r3, [r3, #0]
 8006872:	4618      	mov	r0, r3
 8006874:	f7ff ff15 	bl	80066a2 <LL_GPIO_ReadOutputPort>
 8006878:	4602      	mov	r2, r0
 800687a:	687b      	ldr	r3, [r7, #4]
 800687c:	791b      	ldrb	r3, [r3, #4]
 800687e:	4619      	mov	r1, r3
 8006880:	2301      	movs	r3, #1
 8006882:	408b      	lsls	r3, r1
 8006884:	4013      	ands	r3, r2
 8006886:	2b00      	cmp	r3, #0
 8006888:	bf14      	ite	ne
 800688a:	2301      	movne	r3, #1
 800688c:	2300      	moveq	r3, #0
 800688e:	b2db      	uxtb	r3, r3
}
 8006890:	4618      	mov	r0, r3
 8006892:	3708      	adds	r7, #8
 8006894:	46bd      	mov	sp, r7
 8006896:	bd80      	pop	{r7, pc}

08006898 <LL_AHB2_GRP1_EnableClock>:
{
 8006898:	b480      	push	{r7}
 800689a:	b085      	sub	sp, #20
 800689c:	af00      	add	r7, sp, #0
 800689e:	6078      	str	r0, [r7, #4]
  SET_BIT(RCC->AHB2ENR, Periphs);
 80068a0:	4b08      	ldr	r3, [pc, #32]	; (80068c4 <LL_AHB2_GRP1_EnableClock+0x2c>)
 80068a2:	6cda      	ldr	r2, [r3, #76]	; 0x4c
 80068a4:	4907      	ldr	r1, [pc, #28]	; (80068c4 <LL_AHB2_GRP1_EnableClock+0x2c>)
 80068a6:	687b      	ldr	r3, [r7, #4]
 80068a8:	4313      	orrs	r3, r2
 80068aa:	64cb      	str	r3, [r1, #76]	; 0x4c
  tmpreg = READ_BIT(RCC->AHB2ENR, Periphs);
 80068ac:	4b05      	ldr	r3, [pc, #20]	; (80068c4 <LL_AHB2_GRP1_EnableClock+0x2c>)
 80068ae:	6cda      	ldr	r2, [r3, #76]	; 0x4c
 80068b0:	687b      	ldr	r3, [r7, #4]
 80068b2:	4013      	ands	r3, r2
 80068b4:	60fb      	str	r3, [r7, #12]
  (void)tmpreg;
 80068b6:	68fb      	ldr	r3, [r7, #12]
}
 80068b8:	bf00      	nop
 80068ba:	3714      	adds	r7, #20
 80068bc:	46bd      	mov	sp, r7
 80068be:	f85d 7b04 	ldr.w	r7, [sp], #4
 80068c2:	4770      	bx	lr
 80068c4:	40021000 	.word	0x40021000

080068c8 <LL_APB2_GRP1_EnableClock>:
{
 80068c8:	b480      	push	{r7}
 80068ca:	b085      	sub	sp, #20
 80068cc:	af00      	add	r7, sp, #0
 80068ce:	6078      	str	r0, [r7, #4]
  SET_BIT(RCC->APB2ENR, Periphs);
 80068d0:	4b08      	ldr	r3, [pc, #32]	; (80068f4 <LL_APB2_GRP1_EnableClock+0x2c>)
 80068d2:	6e1a      	ldr	r2, [r3, #96]	; 0x60
 80068d4:	4907      	ldr	r1, [pc, #28]	; (80068f4 <LL_APB2_GRP1_EnableClock+0x2c>)
 80068d6:	687b      	ldr	r3, [r7, #4]
 80068d8:	4313      	orrs	r3, r2
 80068da:	660b      	str	r3, [r1, #96]	; 0x60
  tmpreg = READ_BIT(RCC->APB2ENR, Periphs);
 80068dc:	4b05      	ldr	r3, [pc, #20]	; (80068f4 <LL_APB2_GRP1_EnableClock+0x2c>)
 80068de:	6e1a      	ldr	r2, [r3, #96]	; 0x60
 80068e0:	687b      	ldr	r3, [r7, #4]
 80068e2:	4013      	ands	r3, r2
 80068e4:	60fb      	str	r3, [r7, #12]
  (void)tmpreg;
 80068e6:	68fb      	ldr	r3, [r7, #12]
}
 80068e8:	bf00      	nop
 80068ea:	3714      	adds	r7, #20
 80068ec:	46bd      	mov	sp, r7
 80068ee:	f85d 7b04 	ldr.w	r7, [sp], #4
 80068f2:	4770      	bx	lr
 80068f4:	40021000 	.word	0x40021000

080068f8 <LL_GPIO_SetPinMode>:
{
 80068f8:	b480      	push	{r7}
 80068fa:	b08b      	sub	sp, #44	; 0x2c
 80068fc:	af00      	add	r7, sp, #0
 80068fe:	60f8      	str	r0, [r7, #12]
 8006900:	60b9      	str	r1, [r7, #8]
 8006902:	607a      	str	r2, [r7, #4]
  MODIFY_REG(GPIOx->MODER, (GPIO_MODER_MODE0 << (POSITION_VAL(Pin) * 2U)), (Mode << (POSITION_VAL(Pin) * 2U)));
 8006904:	68fb      	ldr	r3, [r7, #12]
 8006906:	681a      	ldr	r2, [r3, #0]
 8006908:	68bb      	ldr	r3, [r7, #8]
 800690a:	617b      	str	r3, [r7, #20]
   __ASM volatile ("rbit %0, %1" : "=r" (result) : "r" (value) );
 800690c:	697b      	ldr	r3, [r7, #20]
 800690e:	fa93 f3a3 	rbit	r3, r3
 8006912:	613b      	str	r3, [r7, #16]
  return result;
 8006914:	693b      	ldr	r3, [r7, #16]
 8006916:	61bb      	str	r3, [r7, #24]
  if (value == 0U)
 8006918:	69bb      	ldr	r3, [r7, #24]
 800691a:	2b00      	cmp	r3, #0
 800691c:	d101      	bne.n	8006922 <LL_GPIO_SetPinMode+0x2a>
    return 32U;
 800691e:	2320      	movs	r3, #32
 8006920:	e003      	b.n	800692a <LL_GPIO_SetPinMode+0x32>
  return __builtin_clz(value);
 8006922:	69bb      	ldr	r3, [r7, #24]
 8006924:	fab3 f383 	clz	r3, r3
 8006928:	b2db      	uxtb	r3, r3
 800692a:	005b      	lsls	r3, r3, #1
 800692c:	2103      	movs	r1, #3
 800692e:	fa01 f303 	lsl.w	r3, r1, r3
 8006932:	43db      	mvns	r3, r3
 8006934:	401a      	ands	r2, r3
 8006936:	68bb      	ldr	r3, [r7, #8]
 8006938:	623b      	str	r3, [r7, #32]
   __ASM volatile ("rbit %0, %1" : "=r" (result) : "r" (value) );
 800693a:	6a3b      	ldr	r3, [r7, #32]
 800693c:	fa93 f3a3 	rbit	r3, r3
 8006940:	61fb      	str	r3, [r7, #28]
  return result;
 8006942:	69fb      	ldr	r3, [r7, #28]
 8006944:	627b      	str	r3, [r7, #36]	; 0x24
  if (value == 0U)
 8006946:	6a7b      	ldr	r3, [r7, #36]	; 0x24
 8006948:	2b00      	cmp	r3, #0
 800694a:	d101      	bne.n	8006950 <LL_GPIO_SetPinMode+0x58>
    return 32U;
 800694c:	2320      	movs	r3, #32
 800694e:	e003      	b.n	8006958 <LL_GPIO_SetPinMode+0x60>
  return __builtin_clz(value);
 8006950:	6a7b      	ldr	r3, [r7, #36]	; 0x24
 8006952:	fab3 f383 	clz	r3, r3
 8006956:	b2db      	uxtb	r3, r3
 8006958:	005b      	lsls	r3, r3, #1
 800695a:	6879      	ldr	r1, [r7, #4]
 800695c:	fa01 f303 	lsl.w	r3, r1, r3
 8006960:	431a      	orrs	r2, r3
 8006962:	68fb      	ldr	r3, [r7, #12]
 8006964:	601a      	str	r2, [r3, #0]
}
 8006966:	bf00      	nop
 8006968:	372c      	adds	r7, #44	; 0x2c
 800696a:	46bd      	mov	sp, r7
 800696c:	f85d 7b04 	ldr.w	r7, [sp], #4
 8006970:	4770      	bx	lr

08006972 <LL_OPAMP_SetFunctionalMode>:
  *         @arg @ref LL_OPAMP_MODE_PGA_IO0_BIAS
  *         @arg @ref LL_OPAMP_MODE_PGA_IO0_IO1_BIAS
  * @retval None
  */
__STATIC_INLINE void LL_OPAMP_SetFunctionalMode(OPAMP_TypeDef *OPAMPx, uint32_t FunctionalMode)
{
 8006972:	b480      	push	{r7}
 8006974:	b083      	sub	sp, #12
 8006976:	af00      	add	r7, sp, #0
 8006978:	6078      	str	r0, [r7, #4]
 800697a:	6039      	str	r1, [r7, #0]
  /* Note: Bit OPAMP_CSR_CALON reset to ensure to be in functional mode */
  MODIFY_REG(OPAMPx->CSR, OPAMP_CSR_PGGAIN_4 | OPAMP_CSR_PGGAIN_3 | OPAMP_CSR_VMSEL | OPAMP_CSR_CALON, FunctionalMode);
 800697c:	687b      	ldr	r3, [r7, #4]
 800697e:	681b      	ldr	r3, [r3, #0]
 8006980:	f423 23c1 	bic.w	r3, r3, #395264	; 0x60800
 8006984:	f023 0360 	bic.w	r3, r3, #96	; 0x60
 8006988:	683a      	ldr	r2, [r7, #0]
 800698a:	431a      	orrs	r2, r3
 800698c:	687b      	ldr	r3, [r7, #4]
 800698e:	601a      	str	r2, [r3, #0]
}
 8006990:	bf00      	nop
 8006992:	370c      	adds	r7, #12
 8006994:	46bd      	mov	sp, r7
 8006996:	f85d 7b04 	ldr.w	r7, [sp], #4
 800699a:	4770      	bx	lr

0800699c <LL_OPAMP_SetPGAGain>:
  *         @arg @ref LL_OPAMP_PGA_GAIN_32_OR_MINUS_31
  *         @arg @ref LL_OPAMP_PGA_GAIN_64_OR_MINUS_63
  * @retval None
  */
__STATIC_INLINE void LL_OPAMP_SetPGAGain(OPAMP_TypeDef *OPAMPx, uint32_t PGAGain)
{
 800699c:	b480      	push	{r7}
 800699e:	b083      	sub	sp, #12
 80069a0:	af00      	add	r7, sp, #0
 80069a2:	6078      	str	r0, [r7, #4]
 80069a4:	6039      	str	r1, [r7, #0]
  MODIFY_REG(OPAMPx->CSR, OPAMP_CSR_PGGAIN_2 | OPAMP_CSR_PGGAIN_1 | OPAMP_CSR_PGGAIN_0, PGAGain);
 80069a6:	687b      	ldr	r3, [r7, #4]
 80069a8:	681b      	ldr	r3, [r3, #0]
 80069aa:	f423 32e0 	bic.w	r2, r3, #114688	; 0x1c000
 80069ae:	683b      	ldr	r3, [r7, #0]
 80069b0:	431a      	orrs	r2, r3
 80069b2:	687b      	ldr	r3, [r7, #4]
 80069b4:	601a      	str	r2, [r3, #0]
}
 80069b6:	bf00      	nop
 80069b8:	370c      	adds	r7, #12
 80069ba:	46bd      	mov	sp, r7
 80069bc:	f85d 7b04 	ldr.w	r7, [sp], #4
 80069c0:	4770      	bx	lr

080069c2 <LL_OPAMP_SetInputNonInverting>:
  *         @arg @ref LL_OPAMP_INPUT_NONINVERT_IO3
  *         @arg @ref LL_OPAMP_INPUT_NONINVERT_DAC
  * @retval None
  */
__STATIC_INLINE void LL_OPAMP_SetInputNonInverting(OPAMP_TypeDef *OPAMPx, uint32_t InputNonInverting)
{
 80069c2:	b480      	push	{r7}
 80069c4:	b083      	sub	sp, #12
 80069c6:	af00      	add	r7, sp, #0
 80069c8:	6078      	str	r0, [r7, #4]
 80069ca:	6039      	str	r1, [r7, #0]
  MODIFY_REG(OPAMPx->CSR, OPAMP_CSR_VPSEL, InputNonInverting);
 80069cc:	687b      	ldr	r3, [r7, #4]
 80069ce:	681b      	ldr	r3, [r3, #0]
 80069d0:	f023 020c 	bic.w	r2, r3, #12
 80069d4:	683b      	ldr	r3, [r7, #0]
 80069d6:	431a      	orrs	r2, r3
 80069d8:	687b      	ldr	r3, [r7, #4]
 80069da:	601a      	str	r2, [r3, #0]
}
 80069dc:	bf00      	nop
 80069de:	370c      	adds	r7, #12
 80069e0:	46bd      	mov	sp, r7
 80069e2:	f85d 7b04 	ldr.w	r7, [sp], #4
 80069e6:	4770      	bx	lr

080069e8 <LL_OPAMP_SetInputInverting>:
  *         @arg @ref LL_OPAMP_INPUT_INVERT_IO1
  *         @arg @ref LL_OPAMP_INPUT_INVERT_CONNECT_NO
  * @retval None
  */
__STATIC_INLINE void LL_OPAMP_SetInputInverting(OPAMP_TypeDef *OPAMPx, uint32_t InputInverting)
{
 80069e8:	b480      	push	{r7}
 80069ea:	b083      	sub	sp, #12
 80069ec:	af00      	add	r7, sp, #0
 80069ee:	6078      	str	r0, [r7, #4]
 80069f0:	6039      	str	r1, [r7, #0]
  /* Manage cases of OPAMP inverting input not connected (0x10 and 0x11)      */
  /* to not modify OPAMP mode follower or PGA.                                */
  /* Bit OPAMP_CSR_VMSEL_1 is set by OPAMP mode (follower, PGA). */
  MODIFY_REG(OPAMPx->CSR, (~(InputInverting >> 1)) & OPAMP_CSR_VMSEL_0, InputInverting);
 80069f2:	687b      	ldr	r3, [r7, #4]
 80069f4:	681a      	ldr	r2, [r3, #0]
 80069f6:	683b      	ldr	r3, [r7, #0]
 80069f8:	085b      	lsrs	r3, r3, #1
 80069fa:	43db      	mvns	r3, r3
 80069fc:	f003 0320 	and.w	r3, r3, #32
 8006a00:	43db      	mvns	r3, r3
 8006a02:	401a      	ands	r2, r3
 8006a04:	683b      	ldr	r3, [r7, #0]
 8006a06:	431a      	orrs	r2, r3
 8006a08:	687b      	ldr	r3, [r7, #4]
 8006a0a:	601a      	str	r2, [r3, #0]
}
 8006a0c:	bf00      	nop
 8006a0e:	370c      	adds	r7, #12
 8006a10:	46bd      	mov	sp, r7
 8006a12:	f85d 7b04 	ldr.w	r7, [sp], #4
 8006a16:	4770      	bx	lr

08006a18 <LL_OPAMP_SetInternalOutput>:
  *         @arg @ref LL_OPAMP_INTERNAL_OUPUT_DISABLED
  *         @arg @ref LL_OPAMP_INTERNAL_OUPUT_ENABLED
  * @retval None
  */
__STATIC_INLINE void LL_OPAMP_SetInternalOutput(OPAMP_TypeDef *OPAMPx, uint32_t InternalOutput)
{
 8006a18:	b480      	push	{r7}
 8006a1a:	b083      	sub	sp, #12
 8006a1c:	af00      	add	r7, sp, #0
 8006a1e:	6078      	str	r0, [r7, #4]
 8006a20:	6039      	str	r1, [r7, #0]
  MODIFY_REG(OPAMPx->CSR, OPAMP_CSR_OPAMPINTEN, InternalOutput);
 8006a22:	687b      	ldr	r3, [r7, #4]
 8006a24:	681b      	ldr	r3, [r3, #0]
 8006a26:	f423 7280 	bic.w	r2, r3, #256	; 0x100
 8006a2a:	683b      	ldr	r3, [r7, #0]
 8006a2c:	431a      	orrs	r2, r3
 8006a2e:	687b      	ldr	r3, [r7, #4]
 8006a30:	601a      	str	r2, [r3, #0]
}
 8006a32:	bf00      	nop
 8006a34:	370c      	adds	r7, #12
 8006a36:	46bd      	mov	sp, r7
 8006a38:	f85d 7b04 	ldr.w	r7, [sp], #4
 8006a3c:	4770      	bx	lr
	...

08006a40 <STRHAL_OPAMP_Init>:
#include <STRHAL_OPAMP.h>

void STRHAL_OPAMP_Init()
{
 8006a40:	b580      	push	{r7, lr}
 8006a42:	af00      	add	r7, sp, #0

	// GPIO init
	LL_AHB2_GRP1_EnableClock(LL_AHB2_GRP1_PERIPH_GPIOC);
 8006a44:	2004      	movs	r0, #4
 8006a46:	f7ff ff27 	bl	8006898 <LL_AHB2_GRP1_EnableClock>
	LL_AHB2_GRP1_EnableClock(LL_AHB2_GRP1_PERIPH_GPIOF);
 8006a4a:	2020      	movs	r0, #32
 8006a4c:	f7ff ff24 	bl	8006898 <LL_AHB2_GRP1_EnableClock>
	LL_AHB2_GRP1_EnableClock(LL_AHB2_GRP1_PERIPH_GPIOA);
 8006a50:	2001      	movs	r0, #1
 8006a52:	f7ff ff21 	bl	8006898 <LL_AHB2_GRP1_EnableClock>
	LL_AHB2_GRP1_EnableClock(LL_AHB2_GRP1_PERIPH_GPIOB);
 8006a56:	2002      	movs	r0, #2
 8006a58:	f7ff ff1e 	bl	8006898 <LL_AHB2_GRP1_EnableClock>
	LL_AHB2_GRP1_EnableClock(LL_AHB2_GRP1_PERIPH_GPIOE);
 8006a5c:	2010      	movs	r0, #16
 8006a5e:	f7ff ff1b 	bl	8006898 <LL_AHB2_GRP1_EnableClock>
	LL_AHB2_GRP1_EnableClock(LL_AHB2_GRP1_PERIPH_GPIOD);
 8006a62:	2008      	movs	r0, #8
 8006a64:	f7ff ff18 	bl	8006898 <LL_AHB2_GRP1_EnableClock>

	LL_GPIO_SetPinMode(GPIOA, LL_GPIO_PIN_7, LL_GPIO_MODE_ANALOG);
 8006a68:	2203      	movs	r2, #3
 8006a6a:	2180      	movs	r1, #128	; 0x80
 8006a6c:	f04f 4090 	mov.w	r0, #1207959552	; 0x48000000
 8006a70:	f7ff ff42 	bl	80068f8 <LL_GPIO_SetPinMode>
	LL_GPIO_SetPinMode(GPIOB, LL_GPIO_PIN_0, LL_GPIO_MODE_ANALOG);
 8006a74:	2203      	movs	r2, #3
 8006a76:	2101      	movs	r1, #1
 8006a78:	4819      	ldr	r0, [pc, #100]	; (8006ae0 <STRHAL_OPAMP_Init+0xa0>)
 8006a7a:	f7ff ff3d 	bl	80068f8 <LL_GPIO_SetPinMode>

	LL_APB2_GRP1_EnableClock(LL_APB2_GRP1_PERIPH_SYSCFG);
 8006a7e:	2001      	movs	r0, #1
 8006a80:	f7ff ff22 	bl	80068c8 <LL_APB2_GRP1_EnableClock>

	LL_OPAMP_SetFunctionalMode(OPAMP2, LL_OPAMP_MODE_PGA);
 8006a84:	2140      	movs	r1, #64	; 0x40
 8006a86:	4817      	ldr	r0, [pc, #92]	; (8006ae4 <STRHAL_OPAMP_Init+0xa4>)
 8006a88:	f7ff ff73 	bl	8006972 <LL_OPAMP_SetFunctionalMode>
	LL_OPAMP_SetPGAGain(OPAMP2, LL_OPAMP_PGA_GAIN_32_OR_MINUS_31);
 8006a8c:	f44f 3180 	mov.w	r1, #65536	; 0x10000
 8006a90:	4814      	ldr	r0, [pc, #80]	; (8006ae4 <STRHAL_OPAMP_Init+0xa4>)
 8006a92:	f7ff ff83 	bl	800699c <LL_OPAMP_SetPGAGain>
	LL_OPAMP_SetInputNonInverting(OPAMP2, LL_OPAMP_INPUT_NONINVERT_IO0);
 8006a96:	2100      	movs	r1, #0
 8006a98:	4812      	ldr	r0, [pc, #72]	; (8006ae4 <STRHAL_OPAMP_Init+0xa4>)
 8006a9a:	f7ff ff92 	bl	80069c2 <LL_OPAMP_SetInputNonInverting>
	LL_OPAMP_SetInputInverting(OPAMP2, LL_OPAMP_INPUT_INVERT_CONNECT_NO);
 8006a9e:	2140      	movs	r1, #64	; 0x40
 8006aa0:	4810      	ldr	r0, [pc, #64]	; (8006ae4 <STRHAL_OPAMP_Init+0xa4>)
 8006aa2:	f7ff ffa1 	bl	80069e8 <LL_OPAMP_SetInputInverting>
	LL_OPAMP_SetInternalOutput(OPAMP2, LL_OPAMP_INTERNAL_OUPUT_ENABLED);
 8006aa6:	f44f 7180 	mov.w	r1, #256	; 0x100
 8006aaa:	480e      	ldr	r0, [pc, #56]	; (8006ae4 <STRHAL_OPAMP_Init+0xa4>)
 8006aac:	f7ff ffb4 	bl	8006a18 <LL_OPAMP_SetInternalOutput>
	LL_OPAMP_SetFunctionalMode(OPAMP3, LL_OPAMP_MODE_PGA);
 8006ab0:	2140      	movs	r1, #64	; 0x40
 8006ab2:	480d      	ldr	r0, [pc, #52]	; (8006ae8 <STRHAL_OPAMP_Init+0xa8>)
 8006ab4:	f7ff ff5d 	bl	8006972 <LL_OPAMP_SetFunctionalMode>
	LL_OPAMP_SetPGAGain(OPAMP3, LL_OPAMP_PGA_GAIN_32_OR_MINUS_31);
 8006ab8:	f44f 3180 	mov.w	r1, #65536	; 0x10000
 8006abc:	480a      	ldr	r0, [pc, #40]	; (8006ae8 <STRHAL_OPAMP_Init+0xa8>)
 8006abe:	f7ff ff6d 	bl	800699c <LL_OPAMP_SetPGAGain>
	LL_OPAMP_SetInputNonInverting(OPAMP3, LL_OPAMP_INPUT_NONINVERT_IO0);
 8006ac2:	2100      	movs	r1, #0
 8006ac4:	4808      	ldr	r0, [pc, #32]	; (8006ae8 <STRHAL_OPAMP_Init+0xa8>)
 8006ac6:	f7ff ff7c 	bl	80069c2 <LL_OPAMP_SetInputNonInverting>
	LL_OPAMP_SetInputInverting(OPAMP3, LL_OPAMP_INPUT_INVERT_CONNECT_NO);
 8006aca:	2140      	movs	r1, #64	; 0x40
 8006acc:	4806      	ldr	r0, [pc, #24]	; (8006ae8 <STRHAL_OPAMP_Init+0xa8>)
 8006ace:	f7ff ff8b 	bl	80069e8 <LL_OPAMP_SetInputInverting>
	LL_OPAMP_SetInternalOutput(OPAMP3, LL_OPAMP_INTERNAL_OUPUT_ENABLED);
 8006ad2:	f44f 7180 	mov.w	r1, #256	; 0x100
 8006ad6:	4804      	ldr	r0, [pc, #16]	; (8006ae8 <STRHAL_OPAMP_Init+0xa8>)
 8006ad8:	f7ff ff9e 	bl	8006a18 <LL_OPAMP_SetInternalOutput>
}
 8006adc:	bf00      	nop
 8006ade:	bd80      	pop	{r7, pc}
 8006ae0:	48000400 	.word	0x48000400
 8006ae4:	40010304 	.word	0x40010304
 8006ae8:	40010308 	.word	0x40010308

08006aec <LL_AHB2_GRP1_EnableClock>:
{
 8006aec:	b480      	push	{r7}
 8006aee:	b085      	sub	sp, #20
 8006af0:	af00      	add	r7, sp, #0
 8006af2:	6078      	str	r0, [r7, #4]
  SET_BIT(RCC->AHB2ENR, Periphs);
 8006af4:	4b08      	ldr	r3, [pc, #32]	; (8006b18 <LL_AHB2_GRP1_EnableClock+0x2c>)
 8006af6:	6cda      	ldr	r2, [r3, #76]	; 0x4c
 8006af8:	4907      	ldr	r1, [pc, #28]	; (8006b18 <LL_AHB2_GRP1_EnableClock+0x2c>)
 8006afa:	687b      	ldr	r3, [r7, #4]
 8006afc:	4313      	orrs	r3, r2
 8006afe:	64cb      	str	r3, [r1, #76]	; 0x4c
  tmpreg = READ_BIT(RCC->AHB2ENR, Periphs);
 8006b00:	4b05      	ldr	r3, [pc, #20]	; (8006b18 <LL_AHB2_GRP1_EnableClock+0x2c>)
 8006b02:	6cda      	ldr	r2, [r3, #76]	; 0x4c
 8006b04:	687b      	ldr	r3, [r7, #4]
 8006b06:	4013      	ands	r3, r2
 8006b08:	60fb      	str	r3, [r7, #12]
  (void)tmpreg;
 8006b0a:	68fb      	ldr	r3, [r7, #12]
}
 8006b0c:	bf00      	nop
 8006b0e:	3714      	adds	r7, #20
 8006b10:	46bd      	mov	sp, r7
 8006b12:	f85d 7b04 	ldr.w	r7, [sp], #4
 8006b16:	4770      	bx	lr
 8006b18:	40021000 	.word	0x40021000

08006b1c <LL_AHB3_GRP1_EnableClock>:
{
 8006b1c:	b480      	push	{r7}
 8006b1e:	b085      	sub	sp, #20
 8006b20:	af00      	add	r7, sp, #0
 8006b22:	6078      	str	r0, [r7, #4]
  SET_BIT(RCC->AHB3ENR, Periphs);
 8006b24:	4b08      	ldr	r3, [pc, #32]	; (8006b48 <LL_AHB3_GRP1_EnableClock+0x2c>)
 8006b26:	6d1a      	ldr	r2, [r3, #80]	; 0x50
 8006b28:	4907      	ldr	r1, [pc, #28]	; (8006b48 <LL_AHB3_GRP1_EnableClock+0x2c>)
 8006b2a:	687b      	ldr	r3, [r7, #4]
 8006b2c:	4313      	orrs	r3, r2
 8006b2e:	650b      	str	r3, [r1, #80]	; 0x50
  tmpreg = READ_BIT(RCC->AHB3ENR, Periphs);
 8006b30:	4b05      	ldr	r3, [pc, #20]	; (8006b48 <LL_AHB3_GRP1_EnableClock+0x2c>)
 8006b32:	6d1a      	ldr	r2, [r3, #80]	; 0x50
 8006b34:	687b      	ldr	r3, [r7, #4]
 8006b36:	4013      	ands	r3, r2
 8006b38:	60fb      	str	r3, [r7, #12]
  (void)tmpreg;
 8006b3a:	68fb      	ldr	r3, [r7, #12]
}
 8006b3c:	bf00      	nop
 8006b3e:	3714      	adds	r7, #20
 8006b40:	46bd      	mov	sp, r7
 8006b42:	f85d 7b04 	ldr.w	r7, [sp], #4
 8006b46:	4770      	bx	lr
 8006b48:	40021000 	.word	0x40021000

08006b4c <_init_GPIO>:
static inline int _wait_for_status(uint32_t flag, uint16_t tot);
static inline int _wait_for_status_clear(uint32_t flag, uint16_t);
static inline void _clear_status(uint32_t flags);

static void _init_GPIO()
{
 8006b4c:	b580      	push	{r7, lr}
 8006b4e:	b086      	sub	sp, #24
 8006b50:	af00      	add	r7, sp, #0
	LL_AHB2_GRP1_EnableClock(LL_AHB2_GRP1_PERIPH_GPIOE);
 8006b52:	2010      	movs	r0, #16
 8006b54:	f7ff ffca 	bl	8006aec <LL_AHB2_GRP1_EnableClock>

	LL_GPIO_InitTypeDef GPIO_InitStruct =
 8006b58:	463b      	mov	r3, r7
 8006b5a:	2200      	movs	r2, #0
 8006b5c:	601a      	str	r2, [r3, #0]
 8006b5e:	605a      	str	r2, [r3, #4]
 8006b60:	609a      	str	r2, [r3, #8]
 8006b62:	60da      	str	r2, [r3, #12]
 8006b64:	611a      	str	r2, [r3, #16]
 8006b66:	615a      	str	r2, [r3, #20]
	{ 0 };
	GPIO_InitStruct.Pull = LL_GPIO_PULL_NO;
 8006b68:	2300      	movs	r3, #0
 8006b6a:	613b      	str	r3, [r7, #16]
	GPIO_InitStruct.OutputType = LL_GPIO_OUTPUT_PUSHPULL;
 8006b6c:	2300      	movs	r3, #0
 8006b6e:	60fb      	str	r3, [r7, #12]
	GPIO_InitStruct.Speed = LL_GPIO_SPEED_FREQ_HIGH;
 8006b70:	2302      	movs	r3, #2
 8006b72:	60bb      	str	r3, [r7, #8]
	GPIO_InitStruct.Pin = LL_GPIO_PIN_10 | LL_GPIO_PIN_11 | LL_GPIO_PIN_12 | LL_GPIO_PIN_13 | LL_GPIO_PIN_14 | LL_GPIO_PIN_15;
 8006b74:	f44f 437c 	mov.w	r3, #64512	; 0xfc00
 8006b78:	603b      	str	r3, [r7, #0]
	GPIO_InitStruct.Mode = LL_GPIO_MODE_ALTERNATE;
 8006b7a:	2302      	movs	r3, #2
 8006b7c:	607b      	str	r3, [r7, #4]
	GPIO_InitStruct.Alternate = LL_GPIO_AF_10;
 8006b7e:	230a      	movs	r3, #10
 8006b80:	617b      	str	r3, [r7, #20]
	LL_GPIO_Init(GPIOE, &GPIO_InitStruct);
 8006b82:	463b      	mov	r3, r7
 8006b84:	4619      	mov	r1, r3
 8006b86:	4803      	ldr	r0, [pc, #12]	; (8006b94 <_init_GPIO+0x48>)
 8006b88:	f7fc fbb1 	bl	80032ee <LL_GPIO_Init>
}
 8006b8c:	bf00      	nop
 8006b8e:	3718      	adds	r7, #24
 8006b90:	46bd      	mov	sp, r7
 8006b92:	bd80      	pop	{r7, pc}
 8006b94:	48001000 	.word	0x48001000

08006b98 <STRHAL_QSPI_Init>:

void STRHAL_QSPI_Init()
{
 8006b98:	b580      	push	{r7, lr}
 8006b9a:	af00      	add	r7, sp, #0
	LL_AHB3_GRP1_EnableClock(LL_AHB3_GRP1_PERIPH_QSPI);
 8006b9c:	f44f 7080 	mov.w	r0, #256	; 0x100
 8006ba0:	f7ff ffbc 	bl	8006b1c <LL_AHB3_GRP1_EnableClock>
}
 8006ba4:	bf00      	nop
 8006ba6:	bd80      	pop	{r7, pc}

08006ba8 <STRHAL_QSPI_Flash_Init>:

int STRHAL_QSPI_Flash_Init(const STRHAL_QSPI_Config_t *config)
{
 8006ba8:	b580      	push	{r7, lr}
 8006baa:	b082      	sub	sp, #8
 8006bac:	af00      	add	r7, sp, #0
 8006bae:	6078      	str	r0, [r7, #4]
	STRHAL_QSPI_Reset();
 8006bb0:	f000 f848 	bl	8006c44 <STRHAL_QSPI_Reset>

	_init_GPIO();
 8006bb4:	f7ff ffca 	bl	8006b4c <_init_GPIO>

	QUADSPI->CR |= STRHAL_QSPI_FIFO_THRESH << QUADSPI_CR_FTHRES_Pos;
 8006bb8:	4b21      	ldr	r3, [pc, #132]	; (8006c40 <STRHAL_QSPI_Flash_Init+0x98>)
 8006bba:	4a21      	ldr	r2, [pc, #132]	; (8006c40 <STRHAL_QSPI_Flash_Init+0x98>)
 8006bbc:	681b      	ldr	r3, [r3, #0]
 8006bbe:	6013      	str	r3, [r2, #0]

	if (_wait_for_status_clear(QUADSPI_SR_BUSY, 100) < 0)
 8006bc0:	2164      	movs	r1, #100	; 0x64
 8006bc2:	2020      	movs	r0, #32
 8006bc4:	f000 fa1e 	bl	8007004 <_wait_for_status_clear>
 8006bc8:	4603      	mov	r3, r0
 8006bca:	2b00      	cmp	r3, #0
 8006bcc:	da02      	bge.n	8006bd4 <STRHAL_QSPI_Flash_Init+0x2c>
		return -1;
 8006bce:	f04f 33ff 	mov.w	r3, #4294967295	; 0xffffffff
 8006bd2:	e031      	b.n	8006c38 <STRHAL_QSPI_Flash_Init+0x90>

	QUADSPI->CR |= config->psc << QUADSPI_CR_PRESCALER_Pos;
 8006bd4:	4b1a      	ldr	r3, [pc, #104]	; (8006c40 <STRHAL_QSPI_Flash_Init+0x98>)
 8006bd6:	681b      	ldr	r3, [r3, #0]
 8006bd8:	687a      	ldr	r2, [r7, #4]
 8006bda:	7812      	ldrb	r2, [r2, #0]
 8006bdc:	f3c2 0204 	ubfx	r2, r2, #0, #5
 8006be0:	b2d2      	uxtb	r2, r2
 8006be2:	0612      	lsls	r2, r2, #24
 8006be4:	4611      	mov	r1, r2
 8006be6:	4a16      	ldr	r2, [pc, #88]	; (8006c40 <STRHAL_QSPI_Flash_Init+0x98>)
 8006be8:	430b      	orrs	r3, r1
 8006bea:	6013      	str	r3, [r2, #0]
	QUADSPI->DCR |= config->flash_size << QUADSPI_DCR_FSIZE_Pos;
 8006bec:	4b14      	ldr	r3, [pc, #80]	; (8006c40 <STRHAL_QSPI_Flash_Init+0x98>)
 8006bee:	685b      	ldr	r3, [r3, #4]
 8006bf0:	687a      	ldr	r2, [r7, #4]
 8006bf2:	7852      	ldrb	r2, [r2, #1]
 8006bf4:	f3c2 0204 	ubfx	r2, r2, #0, #5
 8006bf8:	b2d2      	uxtb	r2, r2
 8006bfa:	0412      	lsls	r2, r2, #16
 8006bfc:	4611      	mov	r1, r2
 8006bfe:	4a10      	ldr	r2, [pc, #64]	; (8006c40 <STRHAL_QSPI_Flash_Init+0x98>)
 8006c00:	430b      	orrs	r3, r1
 8006c02:	6053      	str	r3, [r2, #4]
	QUADSPI->DCR |= config->ncs_high_time << QUADSPI_DCR_CSHT_Pos;
 8006c04:	4b0e      	ldr	r3, [pc, #56]	; (8006c40 <STRHAL_QSPI_Flash_Init+0x98>)
 8006c06:	685b      	ldr	r3, [r3, #4]
 8006c08:	687a      	ldr	r2, [r7, #4]
 8006c0a:	7852      	ldrb	r2, [r2, #1]
 8006c0c:	f3c2 1242 	ubfx	r2, r2, #5, #3
 8006c10:	b2d2      	uxtb	r2, r2
 8006c12:	0212      	lsls	r2, r2, #8
 8006c14:	4611      	mov	r1, r2
 8006c16:	4a0a      	ldr	r2, [pc, #40]	; (8006c40 <STRHAL_QSPI_Flash_Init+0x98>)
 8006c18:	430b      	orrs	r3, r1
 8006c1a:	6053      	str	r3, [r2, #4]
	QUADSPI->DCR |= config->clk_level << QUADSPI_DCR_CKMODE_Pos;
 8006c1c:	4b08      	ldr	r3, [pc, #32]	; (8006c40 <STRHAL_QSPI_Flash_Init+0x98>)
 8006c1e:	685b      	ldr	r3, [r3, #4]
 8006c20:	687a      	ldr	r2, [r7, #4]
 8006c22:	7892      	ldrb	r2, [r2, #2]
 8006c24:	f3c2 0200 	ubfx	r2, r2, #0, #1
 8006c28:	b2d2      	uxtb	r2, r2
 8006c2a:	4611      	mov	r1, r2
 8006c2c:	4a04      	ldr	r2, [pc, #16]	; (8006c40 <STRHAL_QSPI_Flash_Init+0x98>)
 8006c2e:	430b      	orrs	r3, r1
 8006c30:	6053      	str	r3, [r2, #4]

	STRHAL_QSPI_Run();
 8006c32:	f000 f82b 	bl	8006c8c <STRHAL_QSPI_Run>

	return 0;
 8006c36:	2300      	movs	r3, #0
}
 8006c38:	4618      	mov	r0, r3
 8006c3a:	3708      	adds	r7, #8
 8006c3c:	46bd      	mov	sp, r7
 8006c3e:	bd80      	pop	{r7, pc}
 8006c40:	a0001000 	.word	0xa0001000

08006c44 <STRHAL_QSPI_Reset>:

void STRHAL_QSPI_Reset()
{
 8006c44:	b480      	push	{r7}
 8006c46:	af00      	add	r7, sp, #0
	if (QUADSPI->CR & QUADSPI_CR_EN)
 8006c48:	4b0f      	ldr	r3, [pc, #60]	; (8006c88 <STRHAL_QSPI_Reset+0x44>)
 8006c4a:	681b      	ldr	r3, [r3, #0]
 8006c4c:	f003 0301 	and.w	r3, r3, #1
 8006c50:	2b00      	cmp	r3, #0
 8006c52:	d005      	beq.n	8006c60 <STRHAL_QSPI_Reset+0x1c>
		QUADSPI->CR &= ~QUADSPI_CR_EN;
 8006c54:	4b0c      	ldr	r3, [pc, #48]	; (8006c88 <STRHAL_QSPI_Reset+0x44>)
 8006c56:	681b      	ldr	r3, [r3, #0]
 8006c58:	4a0b      	ldr	r2, [pc, #44]	; (8006c88 <STRHAL_QSPI_Reset+0x44>)
 8006c5a:	f023 0301 	bic.w	r3, r3, #1
 8006c5e:	6013      	str	r3, [r2, #0]

	CLEAR_REG(QUADSPI->CR);
 8006c60:	4b09      	ldr	r3, [pc, #36]	; (8006c88 <STRHAL_QSPI_Reset+0x44>)
 8006c62:	2200      	movs	r2, #0
 8006c64:	601a      	str	r2, [r3, #0]
	CLEAR_REG(QUADSPI->DCR);
 8006c66:	4b08      	ldr	r3, [pc, #32]	; (8006c88 <STRHAL_QSPI_Reset+0x44>)
 8006c68:	2200      	movs	r2, #0
 8006c6a:	605a      	str	r2, [r3, #4]
	CLEAR_REG(QUADSPI->CCR);
 8006c6c:	4b06      	ldr	r3, [pc, #24]	; (8006c88 <STRHAL_QSPI_Reset+0x44>)
 8006c6e:	2200      	movs	r2, #0
 8006c70:	615a      	str	r2, [r3, #20]

	QUADSPI->FCR |= (QUADSPI_FCR_CSMF | QUADSPI_FCR_CTCF | QUADSPI_FCR_CTEF | QUADSPI_FCR_CTOF);
 8006c72:	4b05      	ldr	r3, [pc, #20]	; (8006c88 <STRHAL_QSPI_Reset+0x44>)
 8006c74:	68db      	ldr	r3, [r3, #12]
 8006c76:	4a04      	ldr	r2, [pc, #16]	; (8006c88 <STRHAL_QSPI_Reset+0x44>)
 8006c78:	f043 031b 	orr.w	r3, r3, #27
 8006c7c:	60d3      	str	r3, [r2, #12]
}
 8006c7e:	bf00      	nop
 8006c80:	46bd      	mov	sp, r7
 8006c82:	f85d 7b04 	ldr.w	r7, [sp], #4
 8006c86:	4770      	bx	lr
 8006c88:	a0001000 	.word	0xa0001000

08006c8c <STRHAL_QSPI_Run>:

void STRHAL_QSPI_Run()
{
 8006c8c:	b480      	push	{r7}
 8006c8e:	af00      	add	r7, sp, #0
	QUADSPI->CR |= QUADSPI_CR_EN; // Enable QSPI
 8006c90:	4b05      	ldr	r3, [pc, #20]	; (8006ca8 <STRHAL_QSPI_Run+0x1c>)
 8006c92:	681b      	ldr	r3, [r3, #0]
 8006c94:	4a04      	ldr	r2, [pc, #16]	; (8006ca8 <STRHAL_QSPI_Run+0x1c>)
 8006c96:	f043 0301 	orr.w	r3, r3, #1
 8006c9a:	6013      	str	r3, [r2, #0]
}
 8006c9c:	bf00      	nop
 8006c9e:	46bd      	mov	sp, r7
 8006ca0:	f85d 7b04 	ldr.w	r7, [sp], #4
 8006ca4:	4770      	bx	lr
 8006ca6:	bf00      	nop
 8006ca8:	a0001000 	.word	0xa0001000

08006cac <STRHAL_QSPI_Indirect_Write>:
{
	QUADSPI->CR &= ~QUADSPI_CR_EN;  // Enable QSPI
}

uint32_t STRHAL_QSPI_Indirect_Write(const STRHAL_QSPI_Command_t *cmd, const uint8_t *data, uint32_t n, uint16_t tot)
{
 8006cac:	b580      	push	{r7, lr}
 8006cae:	b088      	sub	sp, #32
 8006cb0:	af00      	add	r7, sp, #0
 8006cb2:	60f8      	str	r0, [r7, #12]
 8006cb4:	60b9      	str	r1, [r7, #8]
 8006cb6:	607a      	str	r2, [r7, #4]
 8006cb8:	807b      	strh	r3, [r7, #2]
	if (_wait_for_status_clear(QUADSPI_SR_BUSY, tot) < 0)
 8006cba:	887b      	ldrh	r3, [r7, #2]
 8006cbc:	4619      	mov	r1, r3
 8006cbe:	2020      	movs	r0, #32
 8006cc0:	f000 f9a0 	bl	8007004 <_wait_for_status_clear>
 8006cc4:	4603      	mov	r3, r0
 8006cc6:	2b00      	cmp	r3, #0
 8006cc8:	da02      	bge.n	8006cd0 <STRHAL_QSPI_Indirect_Write+0x24>
		return -1;
 8006cca:	f04f 33ff 	mov.w	r3, #4294967295	; 0xffffffff
 8006cce:	e09e      	b.n	8006e0e <STRHAL_QSPI_Indirect_Write+0x162>

	__IO uint32_t *data_reg = &QUADSPI->DR;
 8006cd0:	4b51      	ldr	r3, [pc, #324]	; (8006e18 <STRHAL_QSPI_Indirect_Write+0x16c>)
 8006cd2:	617b      	str	r3, [r7, #20]
	_clear_status(QUADSPI_FCR_CSMF | QUADSPI_FCR_CTCF | QUADSPI_FCR_CTEF | QUADSPI_FCR_CTOF);
 8006cd4:	201b      	movs	r0, #27
 8006cd6:	f000 f9bf 	bl	8007058 <_clear_status>

	uint32_t ccr = 0x00000000;
 8006cda:	2300      	movs	r3, #0
 8006cdc:	61fb      	str	r3, [r7, #28]

	if (n > 0)
 8006cde:	687b      	ldr	r3, [r7, #4]
 8006ce0:	2b00      	cmp	r3, #0
 8006ce2:	d007      	beq.n	8006cf4 <STRHAL_QSPI_Indirect_Write+0x48>
	{
		ccr |= QUADSPI_CCR_DMODE_0;
 8006ce4:	69fb      	ldr	r3, [r7, #28]
 8006ce6:	f043 7380 	orr.w	r3, r3, #16777216	; 0x1000000
 8006cea:	61fb      	str	r3, [r7, #28]
		WRITE_REG(QUADSPI->DLR, n - 1U);
 8006cec:	4a4b      	ldr	r2, [pc, #300]	; (8006e1c <STRHAL_QSPI_Indirect_Write+0x170>)
 8006cee:	687b      	ldr	r3, [r7, #4]
 8006cf0:	3b01      	subs	r3, #1
 8006cf2:	6113      	str	r3, [r2, #16]
	}

	if (cmd->alt_size > 0)
 8006cf4:	68fb      	ldr	r3, [r7, #12]
 8006cf6:	7a5b      	ldrb	r3, [r3, #9]
 8006cf8:	2b00      	cmp	r3, #0
 8006cfa:	d010      	beq.n	8006d1e <STRHAL_QSPI_Indirect_Write+0x72>
	{
		ccr |= QUADSPI_CCR_ABMODE_0;
 8006cfc:	69fb      	ldr	r3, [r7, #28]
 8006cfe:	f443 4380 	orr.w	r3, r3, #16384	; 0x4000
 8006d02:	61fb      	str	r3, [r7, #28]
		ccr |= ((cmd->alt_size - 1) & 0x3) << QUADSPI_CCR_ABSIZE_Pos;
 8006d04:	68fb      	ldr	r3, [r7, #12]
 8006d06:	7a5b      	ldrb	r3, [r3, #9]
 8006d08:	3b01      	subs	r3, #1
 8006d0a:	041b      	lsls	r3, r3, #16
 8006d0c:	f403 3340 	and.w	r3, r3, #196608	; 0x30000
 8006d10:	69fa      	ldr	r2, [r7, #28]
 8006d12:	4313      	orrs	r3, r2
 8006d14:	61fb      	str	r3, [r7, #28]
		WRITE_REG(QUADSPI->ABR, cmd->alt);
 8006d16:	4a41      	ldr	r2, [pc, #260]	; (8006e1c <STRHAL_QSPI_Indirect_Write+0x170>)
 8006d18:	68fb      	ldr	r3, [r7, #12]
 8006d1a:	68db      	ldr	r3, [r3, #12]
 8006d1c:	61d3      	str	r3, [r2, #28]
	}

	ccr |= (cmd->dummy_size & 0x1F) << QUADSPI_CCR_DCYC_Pos;
 8006d1e:	68fb      	ldr	r3, [r7, #12]
 8006d20:	7c1b      	ldrb	r3, [r3, #16]
 8006d22:	049b      	lsls	r3, r3, #18
 8006d24:	f403 03f8 	and.w	r3, r3, #8126464	; 0x7c0000
 8006d28:	69fa      	ldr	r2, [r7, #28]
 8006d2a:	4313      	orrs	r3, r2
 8006d2c:	61fb      	str	r3, [r7, #28]

	if (cmd->instruction_size > 0)
 8006d2e:	68fb      	ldr	r3, [r7, #12]
 8006d30:	785b      	ldrb	r3, [r3, #1]
 8006d32:	2b00      	cmp	r3, #0
 8006d34:	d026      	beq.n	8006d84 <STRHAL_QSPI_Indirect_Write+0xd8>
	{
		ccr |= QUADSPI_CCR_IMODE_0;
 8006d36:	69fb      	ldr	r3, [r7, #28]
 8006d38:	f443 7380 	orr.w	r3, r3, #256	; 0x100
 8006d3c:	61fb      	str	r3, [r7, #28]
		ccr |= cmd->instruction << QUADSPI_CCR_INSTRUCTION_Pos;
 8006d3e:	68fb      	ldr	r3, [r7, #12]
 8006d40:	781b      	ldrb	r3, [r3, #0]
 8006d42:	461a      	mov	r2, r3
 8006d44:	69fb      	ldr	r3, [r7, #28]
 8006d46:	4313      	orrs	r3, r2
 8006d48:	61fb      	str	r3, [r7, #28]
		if (cmd->addr_size > 0)
 8006d4a:	68fb      	ldr	r3, [r7, #12]
 8006d4c:	7a1b      	ldrb	r3, [r3, #8]
 8006d4e:	2b00      	cmp	r3, #0
 8006d50:	d014      	beq.n	8006d7c <STRHAL_QSPI_Indirect_Write+0xd0>
		{
			ccr |= QUADSPI_CCR_ADMODE_0;
 8006d52:	69fb      	ldr	r3, [r7, #28]
 8006d54:	f443 6380 	orr.w	r3, r3, #1024	; 0x400
 8006d58:	61fb      	str	r3, [r7, #28]
			ccr |= ((cmd->addr_size - 1) & 0x3) << QUADSPI_CCR_ADSIZE_Pos;
 8006d5a:	68fb      	ldr	r3, [r7, #12]
 8006d5c:	7a1b      	ldrb	r3, [r3, #8]
 8006d5e:	3b01      	subs	r3, #1
 8006d60:	031b      	lsls	r3, r3, #12
 8006d62:	f403 5340 	and.w	r3, r3, #12288	; 0x3000
 8006d66:	69fa      	ldr	r2, [r7, #28]
 8006d68:	4313      	orrs	r3, r2
 8006d6a:	61fb      	str	r3, [r7, #28]
			WRITE_REG(QUADSPI->CCR, ccr);
 8006d6c:	4a2b      	ldr	r2, [pc, #172]	; (8006e1c <STRHAL_QSPI_Indirect_Write+0x170>)
 8006d6e:	69fb      	ldr	r3, [r7, #28]
 8006d70:	6153      	str	r3, [r2, #20]
			WRITE_REG(QUADSPI->AR, cmd->addr);
 8006d72:	4a2a      	ldr	r2, [pc, #168]	; (8006e1c <STRHAL_QSPI_Indirect_Write+0x170>)
 8006d74:	68fb      	ldr	r3, [r7, #12]
 8006d76:	685b      	ldr	r3, [r3, #4]
 8006d78:	6193      	str	r3, [r2, #24]
 8006d7a:	e01f      	b.n	8006dbc <STRHAL_QSPI_Indirect_Write+0x110>
		}
		else
		{
			WRITE_REG(QUADSPI->CCR, ccr);
 8006d7c:	4a27      	ldr	r2, [pc, #156]	; (8006e1c <STRHAL_QSPI_Indirect_Write+0x170>)
 8006d7e:	69fb      	ldr	r3, [r7, #28]
 8006d80:	6153      	str	r3, [r2, #20]
 8006d82:	e01b      	b.n	8006dbc <STRHAL_QSPI_Indirect_Write+0x110>
		}
	}
	else
	{
		if (cmd->addr_size > 0)
 8006d84:	68fb      	ldr	r3, [r7, #12]
 8006d86:	7a1b      	ldrb	r3, [r3, #8]
 8006d88:	2b00      	cmp	r3, #0
 8006d8a:	d014      	beq.n	8006db6 <STRHAL_QSPI_Indirect_Write+0x10a>
		{
			ccr |= QUADSPI_CCR_ADMODE_0;
 8006d8c:	69fb      	ldr	r3, [r7, #28]
 8006d8e:	f443 6380 	orr.w	r3, r3, #1024	; 0x400
 8006d92:	61fb      	str	r3, [r7, #28]
			ccr |= ((cmd->addr_size - 1) & 0x3) << QUADSPI_CCR_ADSIZE_Pos;
 8006d94:	68fb      	ldr	r3, [r7, #12]
 8006d96:	7a1b      	ldrb	r3, [r3, #8]
 8006d98:	3b01      	subs	r3, #1
 8006d9a:	031b      	lsls	r3, r3, #12
 8006d9c:	f403 5340 	and.w	r3, r3, #12288	; 0x3000
 8006da0:	69fa      	ldr	r2, [r7, #28]
 8006da2:	4313      	orrs	r3, r2
 8006da4:	61fb      	str	r3, [r7, #28]
			WRITE_REG(QUADSPI->CCR, ccr);
 8006da6:	4a1d      	ldr	r2, [pc, #116]	; (8006e1c <STRHAL_QSPI_Indirect_Write+0x170>)
 8006da8:	69fb      	ldr	r3, [r7, #28]
 8006daa:	6153      	str	r3, [r2, #20]
			WRITE_REG(QUADSPI->AR, cmd->addr);
 8006dac:	4a1b      	ldr	r2, [pc, #108]	; (8006e1c <STRHAL_QSPI_Indirect_Write+0x170>)
 8006dae:	68fb      	ldr	r3, [r7, #12]
 8006db0:	685b      	ldr	r3, [r3, #4]
 8006db2:	6193      	str	r3, [r2, #24]
 8006db4:	e002      	b.n	8006dbc <STRHAL_QSPI_Indirect_Write+0x110>
		}
		else
		{
			WRITE_REG(QUADSPI->CCR, ccr);
 8006db6:	4a19      	ldr	r2, [pc, #100]	; (8006e1c <STRHAL_QSPI_Indirect_Write+0x170>)
 8006db8:	69fb      	ldr	r3, [r7, #28]
 8006dba:	6153      	str	r3, [r2, #20]
		}
	}

	uint32_t i;
	for (i = 0; i < n; ++i)
 8006dbc:	2300      	movs	r3, #0
 8006dbe:	61bb      	str	r3, [r7, #24]
 8006dc0:	e012      	b.n	8006de8 <STRHAL_QSPI_Indirect_Write+0x13c>
	{
		if (_wait_for_status(QUADSPI_SR_FTF, tot) < 0)
 8006dc2:	887b      	ldrh	r3, [r7, #2]
 8006dc4:	4619      	mov	r1, r3
 8006dc6:	2004      	movs	r0, #4
 8006dc8:	f000 f8f2 	bl	8006fb0 <_wait_for_status>
 8006dcc:	4603      	mov	r3, r0
 8006dce:	2b00      	cmp	r3, #0
 8006dd0:	da01      	bge.n	8006dd6 <STRHAL_QSPI_Indirect_Write+0x12a>
			return i;
 8006dd2:	69bb      	ldr	r3, [r7, #24]
 8006dd4:	e01b      	b.n	8006e0e <STRHAL_QSPI_Indirect_Write+0x162>

		*((__IO uint8_t*) data_reg) = data[i];
 8006dd6:	68ba      	ldr	r2, [r7, #8]
 8006dd8:	69bb      	ldr	r3, [r7, #24]
 8006dda:	4413      	add	r3, r2
 8006ddc:	781a      	ldrb	r2, [r3, #0]
 8006dde:	697b      	ldr	r3, [r7, #20]
 8006de0:	701a      	strb	r2, [r3, #0]
	for (i = 0; i < n; ++i)
 8006de2:	69bb      	ldr	r3, [r7, #24]
 8006de4:	3301      	adds	r3, #1
 8006de6:	61bb      	str	r3, [r7, #24]
 8006de8:	69ba      	ldr	r2, [r7, #24]
 8006dea:	687b      	ldr	r3, [r7, #4]
 8006dec:	429a      	cmp	r2, r3
 8006dee:	d3e8      	bcc.n	8006dc2 <STRHAL_QSPI_Indirect_Write+0x116>

	}

	if (_wait_for_status(QUADSPI_SR_TCF, tot) == 0)
 8006df0:	887b      	ldrh	r3, [r7, #2]
 8006df2:	4619      	mov	r1, r3
 8006df4:	2002      	movs	r0, #2
 8006df6:	f000 f8db 	bl	8006fb0 <_wait_for_status>
 8006dfa:	4603      	mov	r3, r0
 8006dfc:	2b00      	cmp	r3, #0
 8006dfe:	d105      	bne.n	8006e0c <STRHAL_QSPI_Indirect_Write+0x160>
	{
		SET_BIT(QUADSPI->FCR, QUADSPI_FCR_CTCF);
 8006e00:	4b06      	ldr	r3, [pc, #24]	; (8006e1c <STRHAL_QSPI_Indirect_Write+0x170>)
 8006e02:	68db      	ldr	r3, [r3, #12]
 8006e04:	4a05      	ldr	r2, [pc, #20]	; (8006e1c <STRHAL_QSPI_Indirect_Write+0x170>)
 8006e06:	f043 0302 	orr.w	r3, r3, #2
 8006e0a:	60d3      	str	r3, [r2, #12]
	}

	return i;
 8006e0c:	69bb      	ldr	r3, [r7, #24]
}
 8006e0e:	4618      	mov	r0, r3
 8006e10:	3720      	adds	r7, #32
 8006e12:	46bd      	mov	sp, r7
 8006e14:	bd80      	pop	{r7, pc}
 8006e16:	bf00      	nop
 8006e18:	a0001020 	.word	0xa0001020
 8006e1c:	a0001000 	.word	0xa0001000

08006e20 <STRHAL_QSPI_Indirect_Read>:

uint32_t STRHAL_QSPI_Indirect_Read(const STRHAL_QSPI_Command_t *cmd, uint8_t *data, uint32_t n, uint16_t tot)
{
 8006e20:	b580      	push	{r7, lr}
 8006e22:	b088      	sub	sp, #32
 8006e24:	af00      	add	r7, sp, #0
 8006e26:	60f8      	str	r0, [r7, #12]
 8006e28:	60b9      	str	r1, [r7, #8]
 8006e2a:	607a      	str	r2, [r7, #4]
 8006e2c:	807b      	strh	r3, [r7, #2]
	if (_wait_for_status_clear(QUADSPI_SR_BUSY, tot) < 0)
 8006e2e:	887b      	ldrh	r3, [r7, #2]
 8006e30:	4619      	mov	r1, r3
 8006e32:	2020      	movs	r0, #32
 8006e34:	f000 f8e6 	bl	8007004 <_wait_for_status_clear>
 8006e38:	4603      	mov	r3, r0
 8006e3a:	2b00      	cmp	r3, #0
 8006e3c:	da02      	bge.n	8006e44 <STRHAL_QSPI_Indirect_Read+0x24>
		return -1;
 8006e3e:	f04f 33ff 	mov.w	r3, #4294967295	; 0xffffffff
 8006e42:	e0ad      	b.n	8006fa0 <STRHAL_QSPI_Indirect_Read+0x180>

	__IO uint32_t *data_reg = &QUADSPI->DR;
 8006e44:	4b58      	ldr	r3, [pc, #352]	; (8006fa8 <STRHAL_QSPI_Indirect_Read+0x188>)
 8006e46:	617b      	str	r3, [r7, #20]
	_clear_status(QUADSPI_FCR_CSMF | QUADSPI_FCR_CTCF | QUADSPI_FCR_CTEF | QUADSPI_FCR_CTOF);
 8006e48:	201b      	movs	r0, #27
 8006e4a:	f000 f905 	bl	8007058 <_clear_status>

	uint32_t ccr = 0x00000000;
 8006e4e:	2300      	movs	r3, #0
 8006e50:	61fb      	str	r3, [r7, #28]

	ccr |= QUADSPI_CCR_FMODE_0;
 8006e52:	69fb      	ldr	r3, [r7, #28]
 8006e54:	f043 6380 	orr.w	r3, r3, #67108864	; 0x4000000
 8006e58:	61fb      	str	r3, [r7, #28]

	if (n > 0)
 8006e5a:	687b      	ldr	r3, [r7, #4]
 8006e5c:	2b00      	cmp	r3, #0
 8006e5e:	d007      	beq.n	8006e70 <STRHAL_QSPI_Indirect_Read+0x50>
	{
		ccr |= QUADSPI_CCR_DMODE_0;
 8006e60:	69fb      	ldr	r3, [r7, #28]
 8006e62:	f043 7380 	orr.w	r3, r3, #16777216	; 0x1000000
 8006e66:	61fb      	str	r3, [r7, #28]
		WRITE_REG(QUADSPI->DLR, n - 1U);
 8006e68:	4a50      	ldr	r2, [pc, #320]	; (8006fac <STRHAL_QSPI_Indirect_Read+0x18c>)
 8006e6a:	687b      	ldr	r3, [r7, #4]
 8006e6c:	3b01      	subs	r3, #1
 8006e6e:	6113      	str	r3, [r2, #16]
	}
	if (cmd->alt_size > 0)
 8006e70:	68fb      	ldr	r3, [r7, #12]
 8006e72:	7a5b      	ldrb	r3, [r3, #9]
 8006e74:	2b00      	cmp	r3, #0
 8006e76:	d010      	beq.n	8006e9a <STRHAL_QSPI_Indirect_Read+0x7a>
	{
		ccr |= QUADSPI_CCR_ABMODE_0;
 8006e78:	69fb      	ldr	r3, [r7, #28]
 8006e7a:	f443 4380 	orr.w	r3, r3, #16384	; 0x4000
 8006e7e:	61fb      	str	r3, [r7, #28]
		ccr |= ((cmd->alt_size - 1) & 0x3) << QUADSPI_CCR_ABSIZE_Pos;
 8006e80:	68fb      	ldr	r3, [r7, #12]
 8006e82:	7a5b      	ldrb	r3, [r3, #9]
 8006e84:	3b01      	subs	r3, #1
 8006e86:	041b      	lsls	r3, r3, #16
 8006e88:	f403 3340 	and.w	r3, r3, #196608	; 0x30000
 8006e8c:	69fa      	ldr	r2, [r7, #28]
 8006e8e:	4313      	orrs	r3, r2
 8006e90:	61fb      	str	r3, [r7, #28]
		WRITE_REG(QUADSPI->ABR, cmd->alt);
 8006e92:	4a46      	ldr	r2, [pc, #280]	; (8006fac <STRHAL_QSPI_Indirect_Read+0x18c>)
 8006e94:	68fb      	ldr	r3, [r7, #12]
 8006e96:	68db      	ldr	r3, [r3, #12]
 8006e98:	61d3      	str	r3, [r2, #28]
	}

	ccr |= (cmd->dummy_size & 0x1F) << QUADSPI_CCR_DCYC_Pos;
 8006e9a:	68fb      	ldr	r3, [r7, #12]
 8006e9c:	7c1b      	ldrb	r3, [r3, #16]
 8006e9e:	049b      	lsls	r3, r3, #18
 8006ea0:	f403 03f8 	and.w	r3, r3, #8126464	; 0x7c0000
 8006ea4:	69fa      	ldr	r2, [r7, #28]
 8006ea6:	4313      	orrs	r3, r2
 8006ea8:	61fb      	str	r3, [r7, #28]

	if (cmd->instruction_size > 0)
 8006eaa:	68fb      	ldr	r3, [r7, #12]
 8006eac:	785b      	ldrb	r3, [r3, #1]
 8006eae:	2b00      	cmp	r3, #0
 8006eb0:	d026      	beq.n	8006f00 <STRHAL_QSPI_Indirect_Read+0xe0>
	{
		ccr |= QUADSPI_CCR_IMODE_0;
 8006eb2:	69fb      	ldr	r3, [r7, #28]
 8006eb4:	f443 7380 	orr.w	r3, r3, #256	; 0x100
 8006eb8:	61fb      	str	r3, [r7, #28]
		ccr |= cmd->instruction << QUADSPI_CCR_INSTRUCTION_Pos;
 8006eba:	68fb      	ldr	r3, [r7, #12]
 8006ebc:	781b      	ldrb	r3, [r3, #0]
 8006ebe:	461a      	mov	r2, r3
 8006ec0:	69fb      	ldr	r3, [r7, #28]
 8006ec2:	4313      	orrs	r3, r2
 8006ec4:	61fb      	str	r3, [r7, #28]
		if (cmd->addr_size > 0)
 8006ec6:	68fb      	ldr	r3, [r7, #12]
 8006ec8:	7a1b      	ldrb	r3, [r3, #8]
 8006eca:	2b00      	cmp	r3, #0
 8006ecc:	d014      	beq.n	8006ef8 <STRHAL_QSPI_Indirect_Read+0xd8>
		{
			ccr |= QUADSPI_CCR_ADMODE_0;
 8006ece:	69fb      	ldr	r3, [r7, #28]
 8006ed0:	f443 6380 	orr.w	r3, r3, #1024	; 0x400
 8006ed4:	61fb      	str	r3, [r7, #28]
			ccr |= ((cmd->addr_size - 1) & 0x3) << QUADSPI_CCR_ADSIZE_Pos;
 8006ed6:	68fb      	ldr	r3, [r7, #12]
 8006ed8:	7a1b      	ldrb	r3, [r3, #8]
 8006eda:	3b01      	subs	r3, #1
 8006edc:	031b      	lsls	r3, r3, #12
 8006ede:	f403 5340 	and.w	r3, r3, #12288	; 0x3000
 8006ee2:	69fa      	ldr	r2, [r7, #28]
 8006ee4:	4313      	orrs	r3, r2
 8006ee6:	61fb      	str	r3, [r7, #28]
			WRITE_REG(QUADSPI->CCR, ccr);
 8006ee8:	4a30      	ldr	r2, [pc, #192]	; (8006fac <STRHAL_QSPI_Indirect_Read+0x18c>)
 8006eea:	69fb      	ldr	r3, [r7, #28]
 8006eec:	6153      	str	r3, [r2, #20]
			WRITE_REG(QUADSPI->AR, cmd->addr);
 8006eee:	4a2f      	ldr	r2, [pc, #188]	; (8006fac <STRHAL_QSPI_Indirect_Read+0x18c>)
 8006ef0:	68fb      	ldr	r3, [r7, #12]
 8006ef2:	685b      	ldr	r3, [r3, #4]
 8006ef4:	6193      	str	r3, [r2, #24]
 8006ef6:	e01f      	b.n	8006f38 <STRHAL_QSPI_Indirect_Read+0x118>
		}
		else
		{
			WRITE_REG(QUADSPI->CCR, ccr);
 8006ef8:	4a2c      	ldr	r2, [pc, #176]	; (8006fac <STRHAL_QSPI_Indirect_Read+0x18c>)
 8006efa:	69fb      	ldr	r3, [r7, #28]
 8006efc:	6153      	str	r3, [r2, #20]
 8006efe:	e01b      	b.n	8006f38 <STRHAL_QSPI_Indirect_Read+0x118>
		}
	}
	else
	{
		if (cmd->addr_size > 0)
 8006f00:	68fb      	ldr	r3, [r7, #12]
 8006f02:	7a1b      	ldrb	r3, [r3, #8]
 8006f04:	2b00      	cmp	r3, #0
 8006f06:	d014      	beq.n	8006f32 <STRHAL_QSPI_Indirect_Read+0x112>
		{
			ccr |= QUADSPI_CCR_ADMODE_0;
 8006f08:	69fb      	ldr	r3, [r7, #28]
 8006f0a:	f443 6380 	orr.w	r3, r3, #1024	; 0x400
 8006f0e:	61fb      	str	r3, [r7, #28]
			ccr |= ((cmd->addr_size - 1) & 0x3) << QUADSPI_CCR_ADSIZE_Pos;
 8006f10:	68fb      	ldr	r3, [r7, #12]
 8006f12:	7a1b      	ldrb	r3, [r3, #8]
 8006f14:	3b01      	subs	r3, #1
 8006f16:	031b      	lsls	r3, r3, #12
 8006f18:	f403 5340 	and.w	r3, r3, #12288	; 0x3000
 8006f1c:	69fa      	ldr	r2, [r7, #28]
 8006f1e:	4313      	orrs	r3, r2
 8006f20:	61fb      	str	r3, [r7, #28]
			WRITE_REG(QUADSPI->CCR, ccr);
 8006f22:	4a22      	ldr	r2, [pc, #136]	; (8006fac <STRHAL_QSPI_Indirect_Read+0x18c>)
 8006f24:	69fb      	ldr	r3, [r7, #28]
 8006f26:	6153      	str	r3, [r2, #20]
			WRITE_REG(QUADSPI->AR, cmd->addr);
 8006f28:	4a20      	ldr	r2, [pc, #128]	; (8006fac <STRHAL_QSPI_Indirect_Read+0x18c>)
 8006f2a:	68fb      	ldr	r3, [r7, #12]
 8006f2c:	685b      	ldr	r3, [r3, #4]
 8006f2e:	6193      	str	r3, [r2, #24]
 8006f30:	e002      	b.n	8006f38 <STRHAL_QSPI_Indirect_Read+0x118>
		}
		else
		{
			WRITE_REG(QUADSPI->CCR, ccr);
 8006f32:	4a1e      	ldr	r2, [pc, #120]	; (8006fac <STRHAL_QSPI_Indirect_Read+0x18c>)
 8006f34:	69fb      	ldr	r3, [r7, #28]
 8006f36:	6153      	str	r3, [r2, #20]
		}
	}

	if (_wait_for_status(QUADSPI_SR_BUSY, tot) < 0)
 8006f38:	887b      	ldrh	r3, [r7, #2]
 8006f3a:	4619      	mov	r1, r3
 8006f3c:	2020      	movs	r0, #32
 8006f3e:	f000 f837 	bl	8006fb0 <_wait_for_status>
 8006f42:	4603      	mov	r3, r0
 8006f44:	2b00      	cmp	r3, #0
 8006f46:	da01      	bge.n	8006f4c <STRHAL_QSPI_Indirect_Read+0x12c>
		return 0;
 8006f48:	2300      	movs	r3, #0
 8006f4a:	e029      	b.n	8006fa0 <STRHAL_QSPI_Indirect_Read+0x180>

	uint32_t i;
	for (i = 0; i < n; ++i)
 8006f4c:	2300      	movs	r3, #0
 8006f4e:	61bb      	str	r3, [r7, #24]
 8006f50:	e016      	b.n	8006f80 <STRHAL_QSPI_Indirect_Read+0x160>
	{
		if (_wait_for_status(QUADSPI_SR_FTF | QUADSPI_SR_TCF, tot) < 0)
 8006f52:	887b      	ldrh	r3, [r7, #2]
 8006f54:	4619      	mov	r1, r3
 8006f56:	2006      	movs	r0, #6
 8006f58:	f000 f82a 	bl	8006fb0 <_wait_for_status>
 8006f5c:	4603      	mov	r3, r0
 8006f5e:	2b00      	cmp	r3, #0
 8006f60:	da04      	bge.n	8006f6c <STRHAL_QSPI_Indirect_Read+0x14c>
		{
			_clear_status(QUADSPI_SR_TCF);
 8006f62:	2002      	movs	r0, #2
 8006f64:	f000 f878 	bl	8007058 <_clear_status>
			return i;
 8006f68:	69bb      	ldr	r3, [r7, #24]
 8006f6a:	e019      	b.n	8006fa0 <STRHAL_QSPI_Indirect_Read+0x180>
		}
		data[i] = *((__IO uint8_t*) data_reg);
 8006f6c:	68ba      	ldr	r2, [r7, #8]
 8006f6e:	69bb      	ldr	r3, [r7, #24]
 8006f70:	4413      	add	r3, r2
 8006f72:	697a      	ldr	r2, [r7, #20]
 8006f74:	7812      	ldrb	r2, [r2, #0]
 8006f76:	b2d2      	uxtb	r2, r2
 8006f78:	701a      	strb	r2, [r3, #0]
	for (i = 0; i < n; ++i)
 8006f7a:	69bb      	ldr	r3, [r7, #24]
 8006f7c:	3301      	adds	r3, #1
 8006f7e:	61bb      	str	r3, [r7, #24]
 8006f80:	69ba      	ldr	r2, [r7, #24]
 8006f82:	687b      	ldr	r3, [r7, #4]
 8006f84:	429a      	cmp	r2, r3
 8006f86:	d3e4      	bcc.n	8006f52 <STRHAL_QSPI_Indirect_Read+0x132>
	}

	if (_wait_for_status(QUADSPI_SR_TCF, tot) == 0)
 8006f88:	887b      	ldrh	r3, [r7, #2]
 8006f8a:	4619      	mov	r1, r3
 8006f8c:	2002      	movs	r0, #2
 8006f8e:	f000 f80f 	bl	8006fb0 <_wait_for_status>
 8006f92:	4603      	mov	r3, r0
 8006f94:	2b00      	cmp	r3, #0
 8006f96:	d102      	bne.n	8006f9e <STRHAL_QSPI_Indirect_Read+0x17e>
	{
		_clear_status(QUADSPI_SR_TCF);
 8006f98:	2002      	movs	r0, #2
 8006f9a:	f000 f85d 	bl	8007058 <_clear_status>
	}
	return i;
 8006f9e:	69bb      	ldr	r3, [r7, #24]
}
 8006fa0:	4618      	mov	r0, r3
 8006fa2:	3720      	adds	r7, #32
 8006fa4:	46bd      	mov	sp, r7
 8006fa6:	bd80      	pop	{r7, pc}
 8006fa8:	a0001020 	.word	0xa0001020
 8006fac:	a0001000 	.word	0xa0001000

08006fb0 <_wait_for_status>:

int _wait_for_status(uint32_t flag, uint16_t tot)
{
 8006fb0:	b5b0      	push	{r4, r5, r7, lr}
 8006fb2:	b084      	sub	sp, #16
 8006fb4:	af00      	add	r7, sp, #0
 8006fb6:	6078      	str	r0, [r7, #4]
 8006fb8:	460b      	mov	r3, r1
 8006fba:	807b      	strh	r3, [r7, #2]
	uint64_t start = STRHAL_Systick_GetTick();
 8006fbc:	f000 f91c 	bl	80071f8 <STRHAL_Systick_GetTick>
 8006fc0:	e9c7 0102 	strd	r0, r1, [r7, #8]

	while (!(QUADSPI->SR & flag))
 8006fc4:	e010      	b.n	8006fe8 <_wait_for_status+0x38>
	{
		if (STRHAL_Systick_GetTick() - start > tot)
 8006fc6:	f000 f917 	bl	80071f8 <STRHAL_Systick_GetTick>
 8006fca:	e9d7 2302 	ldrd	r2, r3, [r7, #8]
 8006fce:	1a84      	subs	r4, r0, r2
 8006fd0:	eb61 0503 	sbc.w	r5, r1, r3
 8006fd4:	887a      	ldrh	r2, [r7, #2]
 8006fd6:	f04f 0300 	mov.w	r3, #0
 8006fda:	42ab      	cmp	r3, r5
 8006fdc:	bf08      	it	eq
 8006fde:	42a2      	cmpeq	r2, r4
 8006fe0:	d202      	bcs.n	8006fe8 <_wait_for_status+0x38>
			return -1;
 8006fe2:	f04f 33ff 	mov.w	r3, #4294967295	; 0xffffffff
 8006fe6:	e006      	b.n	8006ff6 <_wait_for_status+0x46>
	while (!(QUADSPI->SR & flag))
 8006fe8:	4b05      	ldr	r3, [pc, #20]	; (8007000 <_wait_for_status+0x50>)
 8006fea:	689a      	ldr	r2, [r3, #8]
 8006fec:	687b      	ldr	r3, [r7, #4]
 8006fee:	4013      	ands	r3, r2
 8006ff0:	2b00      	cmp	r3, #0
 8006ff2:	d0e8      	beq.n	8006fc6 <_wait_for_status+0x16>
	}
	return 0;
 8006ff4:	2300      	movs	r3, #0
}
 8006ff6:	4618      	mov	r0, r3
 8006ff8:	3710      	adds	r7, #16
 8006ffa:	46bd      	mov	sp, r7
 8006ffc:	bdb0      	pop	{r4, r5, r7, pc}
 8006ffe:	bf00      	nop
 8007000:	a0001000 	.word	0xa0001000

08007004 <_wait_for_status_clear>:

int _wait_for_status_clear(uint32_t flag, uint16_t tot)
{
 8007004:	b5b0      	push	{r4, r5, r7, lr}
 8007006:	b084      	sub	sp, #16
 8007008:	af00      	add	r7, sp, #0
 800700a:	6078      	str	r0, [r7, #4]
 800700c:	460b      	mov	r3, r1
 800700e:	807b      	strh	r3, [r7, #2]
	uint64_t start = STRHAL_Systick_GetTick();
 8007010:	f000 f8f2 	bl	80071f8 <STRHAL_Systick_GetTick>
 8007014:	e9c7 0102 	strd	r0, r1, [r7, #8]

	while (QUADSPI->SR & flag)
 8007018:	e010      	b.n	800703c <_wait_for_status_clear+0x38>
	{
		if (STRHAL_Systick_GetTick() - start > tot)
 800701a:	f000 f8ed 	bl	80071f8 <STRHAL_Systick_GetTick>
 800701e:	e9d7 2302 	ldrd	r2, r3, [r7, #8]
 8007022:	1a84      	subs	r4, r0, r2
 8007024:	eb61 0503 	sbc.w	r5, r1, r3
 8007028:	887a      	ldrh	r2, [r7, #2]
 800702a:	f04f 0300 	mov.w	r3, #0
 800702e:	42ab      	cmp	r3, r5
 8007030:	bf08      	it	eq
 8007032:	42a2      	cmpeq	r2, r4
 8007034:	d202      	bcs.n	800703c <_wait_for_status_clear+0x38>
			return -1;
 8007036:	f04f 33ff 	mov.w	r3, #4294967295	; 0xffffffff
 800703a:	e006      	b.n	800704a <_wait_for_status_clear+0x46>
	while (QUADSPI->SR & flag)
 800703c:	4b05      	ldr	r3, [pc, #20]	; (8007054 <_wait_for_status_clear+0x50>)
 800703e:	689a      	ldr	r2, [r3, #8]
 8007040:	687b      	ldr	r3, [r7, #4]
 8007042:	4013      	ands	r3, r2
 8007044:	2b00      	cmp	r3, #0
 8007046:	d1e8      	bne.n	800701a <_wait_for_status_clear+0x16>
	}
	return 0;
 8007048:	2300      	movs	r3, #0
}
 800704a:	4618      	mov	r0, r3
 800704c:	3710      	adds	r7, #16
 800704e:	46bd      	mov	sp, r7
 8007050:	bdb0      	pop	{r4, r5, r7, pc}
 8007052:	bf00      	nop
 8007054:	a0001000 	.word	0xa0001000

08007058 <_clear_status>:

void _clear_status(uint32_t flags)
{
 8007058:	b480      	push	{r7}
 800705a:	b083      	sub	sp, #12
 800705c:	af00      	add	r7, sp, #0
 800705e:	6078      	str	r0, [r7, #4]
	QUADSPI->FCR |= (flags);
 8007060:	4b05      	ldr	r3, [pc, #20]	; (8007078 <_clear_status+0x20>)
 8007062:	68da      	ldr	r2, [r3, #12]
 8007064:	4904      	ldr	r1, [pc, #16]	; (8007078 <_clear_status+0x20>)
 8007066:	687b      	ldr	r3, [r7, #4]
 8007068:	4313      	orrs	r3, r2
 800706a:	60cb      	str	r3, [r1, #12]
}
 800706c:	bf00      	nop
 800706e:	370c      	adds	r7, #12
 8007070:	46bd      	mov	sp, r7
 8007072:	f85d 7b04 	ldr.w	r7, [sp], #4
 8007076:	4770      	bx	lr
 8007078:	a0001000 	.word	0xa0001000

0800707c <LL_AHB2_GRP1_EnableClock>:
{
 800707c:	b480      	push	{r7}
 800707e:	b085      	sub	sp, #20
 8007080:	af00      	add	r7, sp, #0
 8007082:	6078      	str	r0, [r7, #4]
  SET_BIT(RCC->AHB2ENR, Periphs);
 8007084:	4b08      	ldr	r3, [pc, #32]	; (80070a8 <LL_AHB2_GRP1_EnableClock+0x2c>)
 8007086:	6cda      	ldr	r2, [r3, #76]	; 0x4c
 8007088:	4907      	ldr	r1, [pc, #28]	; (80070a8 <LL_AHB2_GRP1_EnableClock+0x2c>)
 800708a:	687b      	ldr	r3, [r7, #4]
 800708c:	4313      	orrs	r3, r2
 800708e:	64cb      	str	r3, [r1, #76]	; 0x4c
  tmpreg = READ_BIT(RCC->AHB2ENR, Periphs);
 8007090:	4b05      	ldr	r3, [pc, #20]	; (80070a8 <LL_AHB2_GRP1_EnableClock+0x2c>)
 8007092:	6cda      	ldr	r2, [r3, #76]	; 0x4c
 8007094:	687b      	ldr	r3, [r7, #4]
 8007096:	4013      	ands	r3, r2
 8007098:	60fb      	str	r3, [r7, #12]
  (void)tmpreg;
 800709a:	68fb      	ldr	r3, [r7, #12]
}
 800709c:	bf00      	nop
 800709e:	3714      	adds	r7, #20
 80070a0:	46bd      	mov	sp, r7
 80070a2:	f85d 7b04 	ldr.w	r7, [sp], #4
 80070a6:	4770      	bx	lr
 80070a8:	40021000 	.word	0x40021000

080070ac <LL_APB1_GRP1_EnableClock>:
{
 80070ac:	b480      	push	{r7}
 80070ae:	b085      	sub	sp, #20
 80070b0:	af00      	add	r7, sp, #0
 80070b2:	6078      	str	r0, [r7, #4]
  SET_BIT(RCC->APB1ENR1, Periphs);
 80070b4:	4b08      	ldr	r3, [pc, #32]	; (80070d8 <LL_APB1_GRP1_EnableClock+0x2c>)
 80070b6:	6d9a      	ldr	r2, [r3, #88]	; 0x58
 80070b8:	4907      	ldr	r1, [pc, #28]	; (80070d8 <LL_APB1_GRP1_EnableClock+0x2c>)
 80070ba:	687b      	ldr	r3, [r7, #4]
 80070bc:	4313      	orrs	r3, r2
 80070be:	658b      	str	r3, [r1, #88]	; 0x58
  tmpreg = READ_BIT(RCC->APB1ENR1, Periphs);
 80070c0:	4b05      	ldr	r3, [pc, #20]	; (80070d8 <LL_APB1_GRP1_EnableClock+0x2c>)
 80070c2:	6d9a      	ldr	r2, [r3, #88]	; 0x58
 80070c4:	687b      	ldr	r3, [r7, #4]
 80070c6:	4013      	ands	r3, r2
 80070c8:	60fb      	str	r3, [r7, #12]
  (void)tmpreg;
 80070ca:	68fb      	ldr	r3, [r7, #12]
}
 80070cc:	bf00      	nop
 80070ce:	3714      	adds	r7, #20
 80070d0:	46bd      	mov	sp, r7
 80070d2:	f85d 7b04 	ldr.w	r7, [sp], #4
 80070d6:	4770      	bx	lr
 80070d8:	40021000 	.word	0x40021000

080070dc <LL_APB2_GRP1_EnableClock>:
{
 80070dc:	b480      	push	{r7}
 80070de:	b085      	sub	sp, #20
 80070e0:	af00      	add	r7, sp, #0
 80070e2:	6078      	str	r0, [r7, #4]
  SET_BIT(RCC->APB2ENR, Periphs);
 80070e4:	4b08      	ldr	r3, [pc, #32]	; (8007108 <LL_APB2_GRP1_EnableClock+0x2c>)
 80070e6:	6e1a      	ldr	r2, [r3, #96]	; 0x60
 80070e8:	4907      	ldr	r1, [pc, #28]	; (8007108 <LL_APB2_GRP1_EnableClock+0x2c>)
 80070ea:	687b      	ldr	r3, [r7, #4]
 80070ec:	4313      	orrs	r3, r2
 80070ee:	660b      	str	r3, [r1, #96]	; 0x60
  tmpreg = READ_BIT(RCC->APB2ENR, Periphs);
 80070f0:	4b05      	ldr	r3, [pc, #20]	; (8007108 <LL_APB2_GRP1_EnableClock+0x2c>)
 80070f2:	6e1a      	ldr	r2, [r3, #96]	; 0x60
 80070f4:	687b      	ldr	r3, [r7, #4]
 80070f6:	4013      	ands	r3, r2
 80070f8:	60fb      	str	r3, [r7, #12]
  (void)tmpreg;
 80070fa:	68fb      	ldr	r3, [r7, #12]
}
 80070fc:	bf00      	nop
 80070fe:	3714      	adds	r7, #20
 8007100:	46bd      	mov	sp, r7
 8007102:	f85d 7b04 	ldr.w	r7, [sp], #4
 8007106:	4770      	bx	lr
 8007108:	40021000 	.word	0x40021000

0800710c <LL_SPI_Disable>:
  * @rmtoll CR1          SPE           LL_SPI_Disable
  * @param  SPIx SPI Instance
  * @retval None
  */
__STATIC_INLINE void LL_SPI_Disable(SPI_TypeDef *SPIx)
{
 800710c:	b480      	push	{r7}
 800710e:	b083      	sub	sp, #12
 8007110:	af00      	add	r7, sp, #0
 8007112:	6078      	str	r0, [r7, #4]
  CLEAR_BIT(SPIx->CR1, SPI_CR1_SPE);
 8007114:	687b      	ldr	r3, [r7, #4]
 8007116:	681b      	ldr	r3, [r3, #0]
 8007118:	f023 0240 	bic.w	r2, r3, #64	; 0x40
 800711c:	687b      	ldr	r3, [r7, #4]
 800711e:	601a      	str	r2, [r3, #0]
}
 8007120:	bf00      	nop
 8007122:	370c      	adds	r7, #12
 8007124:	46bd      	mov	sp, r7
 8007126:	f85d 7b04 	ldr.w	r7, [sp], #4
 800712a:	4770      	bx	lr

0800712c <STRHAL_SPI_Init>:
static inline int _wait_for_rxtxend(SPI_TypeDef *spix, uint16_t tot);
static inline int _wait_for_rxne(SPI_TypeDef *spix, uint16_t tot);
static inline int _rx_flush(SPI_TypeDef *spix, uint16_t tot);

void STRHAL_SPI_Init()
{
 800712c:	b580      	push	{r7, lr}
 800712e:	af00      	add	r7, sp, #0
	LL_AHB2_GRP1_EnableClock(LL_AHB2_GRP1_PERIPH_GPIOC);
 8007130:	2004      	movs	r0, #4
 8007132:	f7ff ffa3 	bl	800707c <LL_AHB2_GRP1_EnableClock>
	LL_AHB2_GRP1_EnableClock(LL_AHB2_GRP1_PERIPH_GPIOF);
 8007136:	2020      	movs	r0, #32
 8007138:	f7ff ffa0 	bl	800707c <LL_AHB2_GRP1_EnableClock>
	LL_AHB2_GRP1_EnableClock(LL_AHB2_GRP1_PERIPH_GPIOA);
 800713c:	2001      	movs	r0, #1
 800713e:	f7ff ff9d 	bl	800707c <LL_AHB2_GRP1_EnableClock>
	LL_AHB2_GRP1_EnableClock(LL_AHB2_GRP1_PERIPH_GPIOB);
 8007142:	2002      	movs	r0, #2
 8007144:	f7ff ff9a 	bl	800707c <LL_AHB2_GRP1_EnableClock>
	LL_AHB2_GRP1_EnableClock(LL_AHB2_GRP1_PERIPH_GPIOE);
 8007148:	2010      	movs	r0, #16
 800714a:	f7ff ff97 	bl	800707c <LL_AHB2_GRP1_EnableClock>
	LL_AHB2_GRP1_EnableClock(LL_AHB2_GRP1_PERIPH_GPIOD);
 800714e:	2008      	movs	r0, #8
 8007150:	f7ff ff94 	bl	800707c <LL_AHB2_GRP1_EnableClock>

	LL_APB2_GRP1_EnableClock(LL_APB2_GRP1_PERIPH_SPI1);
 8007154:	f44f 5080 	mov.w	r0, #4096	; 0x1000
 8007158:	f7ff ffc0 	bl	80070dc <LL_APB2_GRP1_EnableClock>
	LL_APB1_GRP1_EnableClock(LL_APB1_GRP1_PERIPH_SPI2);
 800715c:	f44f 4080 	mov.w	r0, #16384	; 0x4000
 8007160:	f7ff ffa4 	bl	80070ac <LL_APB1_GRP1_EnableClock>
	LL_APB1_GRP1_EnableClock(LL_APB1_GRP1_PERIPH_SPI3);
 8007164:	f44f 4000 	mov.w	r0, #32768	; 0x8000
 8007168:	f7ff ffa0 	bl	80070ac <LL_APB1_GRP1_EnableClock>
	LL_APB1_GRP1_EnableClock(LL_APB2_GRP1_PERIPH_SPI4);
 800716c:	f44f 4000 	mov.w	r0, #32768	; 0x8000
 8007170:	f7ff ff9c 	bl	80070ac <LL_APB1_GRP1_EnableClock>

	LL_SPI_DeInit(SPI1);
 8007174:	480c      	ldr	r0, [pc, #48]	; (80071a8 <STRHAL_SPI_Init+0x7c>)
 8007176:	f7fc fc23 	bl	80039c0 <LL_SPI_DeInit>
	LL_SPI_DeInit(SPI2);
 800717a:	480c      	ldr	r0, [pc, #48]	; (80071ac <STRHAL_SPI_Init+0x80>)
 800717c:	f7fc fc20 	bl	80039c0 <LL_SPI_DeInit>
	LL_SPI_DeInit(SPI3);
 8007180:	480b      	ldr	r0, [pc, #44]	; (80071b0 <STRHAL_SPI_Init+0x84>)
 8007182:	f7fc fc1d 	bl	80039c0 <LL_SPI_DeInit>
	LL_SPI_DeInit(SPI4);
 8007186:	480b      	ldr	r0, [pc, #44]	; (80071b4 <STRHAL_SPI_Init+0x88>)
 8007188:	f7fc fc1a 	bl	80039c0 <LL_SPI_DeInit>

	LL_SPI_Disable(SPI1);
 800718c:	4806      	ldr	r0, [pc, #24]	; (80071a8 <STRHAL_SPI_Init+0x7c>)
 800718e:	f7ff ffbd 	bl	800710c <LL_SPI_Disable>
	LL_SPI_Disable(SPI2);
 8007192:	4806      	ldr	r0, [pc, #24]	; (80071ac <STRHAL_SPI_Init+0x80>)
 8007194:	f7ff ffba 	bl	800710c <LL_SPI_Disable>
	LL_SPI_Disable(SPI3);
 8007198:	4805      	ldr	r0, [pc, #20]	; (80071b0 <STRHAL_SPI_Init+0x84>)
 800719a:	f7ff ffb7 	bl	800710c <LL_SPI_Disable>
	LL_SPI_Disable(SPI4);
 800719e:	4805      	ldr	r0, [pc, #20]	; (80071b4 <STRHAL_SPI_Init+0x88>)
 80071a0:	f7ff ffb4 	bl	800710c <LL_SPI_Disable>
}
 80071a4:	bf00      	nop
 80071a6:	bd80      	pop	{r7, pc}
 80071a8:	40013000 	.word	0x40013000
 80071ac:	40003800 	.word	0x40003800
 80071b0:	40003c00 	.word	0x40003c00
 80071b4:	40013c00 	.word	0x40013c00

080071b8 <LL_SYSTICK_EnableIT>:
  * @brief  Enable SysTick exception request
  * @rmtoll STK_CTRL     TICKINT       LL_SYSTICK_EnableIT
  * @retval None
  */
__STATIC_INLINE void LL_SYSTICK_EnableIT(void)
{
 80071b8:	b480      	push	{r7}
 80071ba:	af00      	add	r7, sp, #0
  SET_BIT(SysTick->CTRL, SysTick_CTRL_TICKINT_Msk);
 80071bc:	4b05      	ldr	r3, [pc, #20]	; (80071d4 <LL_SYSTICK_EnableIT+0x1c>)
 80071be:	681b      	ldr	r3, [r3, #0]
 80071c0:	4a04      	ldr	r2, [pc, #16]	; (80071d4 <LL_SYSTICK_EnableIT+0x1c>)
 80071c2:	f043 0302 	orr.w	r3, r3, #2
 80071c6:	6013      	str	r3, [r2, #0]
}
 80071c8:	bf00      	nop
 80071ca:	46bd      	mov	sp, r7
 80071cc:	f85d 7b04 	ldr.w	r7, [sp], #4
 80071d0:	4770      	bx	lr
 80071d2:	bf00      	nop
 80071d4:	e000e010 	.word	0xe000e010

080071d8 <STRHAL_SysTick_Init>:
#include <STRHAL_SysTick.h>

static volatile uint64_t systick_count = 0;

void STRHAL_SysTick_Init()
{
 80071d8:	b580      	push	{r7, lr}
 80071da:	af00      	add	r7, sp, #0
	//LL_Init1msTick(SystemCoreClock);
	//1ms tick already in STRHAL.c sysclock init
	LL_SYSTICK_EnableIT();
 80071dc:	f7ff ffec 	bl	80071b8 <LL_SYSTICK_EnableIT>
	systick_count = 0;
 80071e0:	4904      	ldr	r1, [pc, #16]	; (80071f4 <STRHAL_SysTick_Init+0x1c>)
 80071e2:	f04f 0200 	mov.w	r2, #0
 80071e6:	f04f 0300 	mov.w	r3, #0
 80071ea:	e9c1 2300 	strd	r2, r3, [r1]
}
 80071ee:	bf00      	nop
 80071f0:	bd80      	pop	{r7, pc}
 80071f2:	bf00      	nop
 80071f4:	20000b58 	.word	0x20000b58

080071f8 <STRHAL_Systick_GetTick>:
	uint64_t end = systick_count + ticks;
	while (systick_count < end);
}

uint64_t STRHAL_Systick_GetTick()
{
 80071f8:	b480      	push	{r7}
 80071fa:	af00      	add	r7, sp, #0
	return systick_count;
 80071fc:	4b04      	ldr	r3, [pc, #16]	; (8007210 <STRHAL_Systick_GetTick+0x18>)
 80071fe:	e9d3 2300 	ldrd	r2, r3, [r3]
}
 8007202:	4610      	mov	r0, r2
 8007204:	4619      	mov	r1, r3
 8007206:	46bd      	mov	sp, r7
 8007208:	f85d 7b04 	ldr.w	r7, [sp], #4
 800720c:	4770      	bx	lr
 800720e:	bf00      	nop
 8007210:	20000b58 	.word	0x20000b58

08007214 <SysTick_Handler>:

void SysTick_Handler()
{
 8007214:	b480      	push	{r7}
 8007216:	af00      	add	r7, sp, #0
	systick_count++;
 8007218:	4b06      	ldr	r3, [pc, #24]	; (8007234 <SysTick_Handler+0x20>)
 800721a:	e9d3 2300 	ldrd	r2, r3, [r3]
 800721e:	1c50      	adds	r0, r2, #1
 8007220:	f143 0100 	adc.w	r1, r3, #0
 8007224:	4b03      	ldr	r3, [pc, #12]	; (8007234 <SysTick_Handler+0x20>)
 8007226:	e9c3 0100 	strd	r0, r1, [r3]
}
 800722a:	bf00      	nop
 800722c:	46bd      	mov	sp, r7
 800722e:	f85d 7b04 	ldr.w	r7, [sp], #4
 8007232:	4770      	bx	lr
 8007234:	20000b58 	.word	0x20000b58

08007238 <__NVIC_GetPriorityGrouping>:
{
 8007238:	b480      	push	{r7}
 800723a:	af00      	add	r7, sp, #0
  return ((uint32_t)((SCB->AIRCR & SCB_AIRCR_PRIGROUP_Msk) >> SCB_AIRCR_PRIGROUP_Pos));
 800723c:	4b04      	ldr	r3, [pc, #16]	; (8007250 <__NVIC_GetPriorityGrouping+0x18>)
 800723e:	68db      	ldr	r3, [r3, #12]
 8007240:	0a1b      	lsrs	r3, r3, #8
 8007242:	f003 0307 	and.w	r3, r3, #7
}
 8007246:	4618      	mov	r0, r3
 8007248:	46bd      	mov	sp, r7
 800724a:	f85d 7b04 	ldr.w	r7, [sp], #4
 800724e:	4770      	bx	lr
 8007250:	e000ed00 	.word	0xe000ed00

08007254 <__NVIC_EnableIRQ>:
{
 8007254:	b480      	push	{r7}
 8007256:	b083      	sub	sp, #12
 8007258:	af00      	add	r7, sp, #0
 800725a:	4603      	mov	r3, r0
 800725c:	71fb      	strb	r3, [r7, #7]
  if ((int32_t)(IRQn) >= 0)
 800725e:	f997 3007 	ldrsb.w	r3, [r7, #7]
 8007262:	2b00      	cmp	r3, #0
 8007264:	db0b      	blt.n	800727e <__NVIC_EnableIRQ+0x2a>
    NVIC->ISER[(((uint32_t)IRQn) >> 5UL)] = (uint32_t)(1UL << (((uint32_t)IRQn) & 0x1FUL));
 8007266:	79fb      	ldrb	r3, [r7, #7]
 8007268:	f003 021f 	and.w	r2, r3, #31
 800726c:	4907      	ldr	r1, [pc, #28]	; (800728c <__NVIC_EnableIRQ+0x38>)
 800726e:	f997 3007 	ldrsb.w	r3, [r7, #7]
 8007272:	095b      	lsrs	r3, r3, #5
 8007274:	2001      	movs	r0, #1
 8007276:	fa00 f202 	lsl.w	r2, r0, r2
 800727a:	f841 2023 	str.w	r2, [r1, r3, lsl #2]
}
 800727e:	bf00      	nop
 8007280:	370c      	adds	r7, #12
 8007282:	46bd      	mov	sp, r7
 8007284:	f85d 7b04 	ldr.w	r7, [sp], #4
 8007288:	4770      	bx	lr
 800728a:	bf00      	nop
 800728c:	e000e100 	.word	0xe000e100

08007290 <__NVIC_SetPriority>:
{
 8007290:	b480      	push	{r7}
 8007292:	b083      	sub	sp, #12
 8007294:	af00      	add	r7, sp, #0
 8007296:	4603      	mov	r3, r0
 8007298:	6039      	str	r1, [r7, #0]
 800729a:	71fb      	strb	r3, [r7, #7]
  if ((int32_t)(IRQn) >= 0)
 800729c:	f997 3007 	ldrsb.w	r3, [r7, #7]
 80072a0:	2b00      	cmp	r3, #0
 80072a2:	db0a      	blt.n	80072ba <__NVIC_SetPriority+0x2a>
    NVIC->IP[((uint32_t)IRQn)]               = (uint8_t)((priority << (8U - __NVIC_PRIO_BITS)) & (uint32_t)0xFFUL);
 80072a4:	683b      	ldr	r3, [r7, #0]
 80072a6:	b2da      	uxtb	r2, r3
 80072a8:	490c      	ldr	r1, [pc, #48]	; (80072dc <__NVIC_SetPriority+0x4c>)
 80072aa:	f997 3007 	ldrsb.w	r3, [r7, #7]
 80072ae:	0112      	lsls	r2, r2, #4
 80072b0:	b2d2      	uxtb	r2, r2
 80072b2:	440b      	add	r3, r1
 80072b4:	f883 2300 	strb.w	r2, [r3, #768]	; 0x300
}
 80072b8:	e00a      	b.n	80072d0 <__NVIC_SetPriority+0x40>
    SCB->SHP[(((uint32_t)IRQn) & 0xFUL)-4UL] = (uint8_t)((priority << (8U - __NVIC_PRIO_BITS)) & (uint32_t)0xFFUL);
 80072ba:	683b      	ldr	r3, [r7, #0]
 80072bc:	b2da      	uxtb	r2, r3
 80072be:	4908      	ldr	r1, [pc, #32]	; (80072e0 <__NVIC_SetPriority+0x50>)
 80072c0:	79fb      	ldrb	r3, [r7, #7]
 80072c2:	f003 030f 	and.w	r3, r3, #15
 80072c6:	3b04      	subs	r3, #4
 80072c8:	0112      	lsls	r2, r2, #4
 80072ca:	b2d2      	uxtb	r2, r2
 80072cc:	440b      	add	r3, r1
 80072ce:	761a      	strb	r2, [r3, #24]
}
 80072d0:	bf00      	nop
 80072d2:	370c      	adds	r7, #12
 80072d4:	46bd      	mov	sp, r7
 80072d6:	f85d 7b04 	ldr.w	r7, [sp], #4
 80072da:	4770      	bx	lr
 80072dc:	e000e100 	.word	0xe000e100
 80072e0:	e000ed00 	.word	0xe000ed00

080072e4 <NVIC_EncodePriority>:
{
 80072e4:	b480      	push	{r7}
 80072e6:	b089      	sub	sp, #36	; 0x24
 80072e8:	af00      	add	r7, sp, #0
 80072ea:	60f8      	str	r0, [r7, #12]
 80072ec:	60b9      	str	r1, [r7, #8]
 80072ee:	607a      	str	r2, [r7, #4]
  uint32_t PriorityGroupTmp = (PriorityGroup & (uint32_t)0x07UL);   /* only values 0..7 are used          */
 80072f0:	68fb      	ldr	r3, [r7, #12]
 80072f2:	f003 0307 	and.w	r3, r3, #7
 80072f6:	61fb      	str	r3, [r7, #28]
  PreemptPriorityBits = ((7UL - PriorityGroupTmp) > (uint32_t)(__NVIC_PRIO_BITS)) ? (uint32_t)(__NVIC_PRIO_BITS) : (uint32_t)(7UL - PriorityGroupTmp);
 80072f8:	69fb      	ldr	r3, [r7, #28]
 80072fa:	f1c3 0307 	rsb	r3, r3, #7
 80072fe:	2b04      	cmp	r3, #4
 8007300:	bf28      	it	cs
 8007302:	2304      	movcs	r3, #4
 8007304:	61bb      	str	r3, [r7, #24]
  SubPriorityBits     = ((PriorityGroupTmp + (uint32_t)(__NVIC_PRIO_BITS)) < (uint32_t)7UL) ? (uint32_t)0UL : (uint32_t)((PriorityGroupTmp - 7UL) + (uint32_t)(__NVIC_PRIO_BITS));
 8007306:	69fb      	ldr	r3, [r7, #28]
 8007308:	3304      	adds	r3, #4
 800730a:	2b06      	cmp	r3, #6
 800730c:	d902      	bls.n	8007314 <NVIC_EncodePriority+0x30>
 800730e:	69fb      	ldr	r3, [r7, #28]
 8007310:	3b03      	subs	r3, #3
 8007312:	e000      	b.n	8007316 <NVIC_EncodePriority+0x32>
 8007314:	2300      	movs	r3, #0
 8007316:	617b      	str	r3, [r7, #20]
           ((PreemptPriority & (uint32_t)((1UL << (PreemptPriorityBits)) - 1UL)) << SubPriorityBits) |
 8007318:	f04f 32ff 	mov.w	r2, #4294967295	; 0xffffffff
 800731c:	69bb      	ldr	r3, [r7, #24]
 800731e:	fa02 f303 	lsl.w	r3, r2, r3
 8007322:	43da      	mvns	r2, r3
 8007324:	68bb      	ldr	r3, [r7, #8]
 8007326:	401a      	ands	r2, r3
 8007328:	697b      	ldr	r3, [r7, #20]
 800732a:	409a      	lsls	r2, r3
           ((SubPriority     & (uint32_t)((1UL << (SubPriorityBits    )) - 1UL)))
 800732c:	f04f 31ff 	mov.w	r1, #4294967295	; 0xffffffff
 8007330:	697b      	ldr	r3, [r7, #20]
 8007332:	fa01 f303 	lsl.w	r3, r1, r3
 8007336:	43d9      	mvns	r1, r3
 8007338:	687b      	ldr	r3, [r7, #4]
 800733a:	400b      	ands	r3, r1
           ((PreemptPriority & (uint32_t)((1UL << (PreemptPriorityBits)) - 1UL)) << SubPriorityBits) |
 800733c:	4313      	orrs	r3, r2
}
 800733e:	4618      	mov	r0, r3
 8007340:	3724      	adds	r7, #36	; 0x24
 8007342:	46bd      	mov	sp, r7
 8007344:	f85d 7b04 	ldr.w	r7, [sp], #4
 8007348:	4770      	bx	lr
	...

0800734c <LL_AHB2_GRP1_EnableClock>:
{
 800734c:	b480      	push	{r7}
 800734e:	b085      	sub	sp, #20
 8007350:	af00      	add	r7, sp, #0
 8007352:	6078      	str	r0, [r7, #4]
  SET_BIT(RCC->AHB2ENR, Periphs);
 8007354:	4b08      	ldr	r3, [pc, #32]	; (8007378 <LL_AHB2_GRP1_EnableClock+0x2c>)
 8007356:	6cda      	ldr	r2, [r3, #76]	; 0x4c
 8007358:	4907      	ldr	r1, [pc, #28]	; (8007378 <LL_AHB2_GRP1_EnableClock+0x2c>)
 800735a:	687b      	ldr	r3, [r7, #4]
 800735c:	4313      	orrs	r3, r2
 800735e:	64cb      	str	r3, [r1, #76]	; 0x4c
  tmpreg = READ_BIT(RCC->AHB2ENR, Periphs);
 8007360:	4b05      	ldr	r3, [pc, #20]	; (8007378 <LL_AHB2_GRP1_EnableClock+0x2c>)
 8007362:	6cda      	ldr	r2, [r3, #76]	; 0x4c
 8007364:	687b      	ldr	r3, [r7, #4]
 8007366:	4013      	ands	r3, r2
 8007368:	60fb      	str	r3, [r7, #12]
  (void)tmpreg;
 800736a:	68fb      	ldr	r3, [r7, #12]
}
 800736c:	bf00      	nop
 800736e:	3714      	adds	r7, #20
 8007370:	46bd      	mov	sp, r7
 8007372:	f85d 7b04 	ldr.w	r7, [sp], #4
 8007376:	4770      	bx	lr
 8007378:	40021000 	.word	0x40021000

0800737c <LL_APB1_GRP1_EnableClock>:
{
 800737c:	b480      	push	{r7}
 800737e:	b085      	sub	sp, #20
 8007380:	af00      	add	r7, sp, #0
 8007382:	6078      	str	r0, [r7, #4]
  SET_BIT(RCC->APB1ENR1, Periphs);
 8007384:	4b08      	ldr	r3, [pc, #32]	; (80073a8 <LL_APB1_GRP1_EnableClock+0x2c>)
 8007386:	6d9a      	ldr	r2, [r3, #88]	; 0x58
 8007388:	4907      	ldr	r1, [pc, #28]	; (80073a8 <LL_APB1_GRP1_EnableClock+0x2c>)
 800738a:	687b      	ldr	r3, [r7, #4]
 800738c:	4313      	orrs	r3, r2
 800738e:	658b      	str	r3, [r1, #88]	; 0x58
  tmpreg = READ_BIT(RCC->APB1ENR1, Periphs);
 8007390:	4b05      	ldr	r3, [pc, #20]	; (80073a8 <LL_APB1_GRP1_EnableClock+0x2c>)
 8007392:	6d9a      	ldr	r2, [r3, #88]	; 0x58
 8007394:	687b      	ldr	r3, [r7, #4]
 8007396:	4013      	ands	r3, r2
 8007398:	60fb      	str	r3, [r7, #12]
  (void)tmpreg;
 800739a:	68fb      	ldr	r3, [r7, #12]
}
 800739c:	bf00      	nop
 800739e:	3714      	adds	r7, #20
 80073a0:	46bd      	mov	sp, r7
 80073a2:	f85d 7b04 	ldr.w	r7, [sp], #4
 80073a6:	4770      	bx	lr
 80073a8:	40021000 	.word	0x40021000

080073ac <LL_APB2_GRP1_EnableClock>:
{
 80073ac:	b480      	push	{r7}
 80073ae:	b085      	sub	sp, #20
 80073b0:	af00      	add	r7, sp, #0
 80073b2:	6078      	str	r0, [r7, #4]
  SET_BIT(RCC->APB2ENR, Periphs);
 80073b4:	4b08      	ldr	r3, [pc, #32]	; (80073d8 <LL_APB2_GRP1_EnableClock+0x2c>)
 80073b6:	6e1a      	ldr	r2, [r3, #96]	; 0x60
 80073b8:	4907      	ldr	r1, [pc, #28]	; (80073d8 <LL_APB2_GRP1_EnableClock+0x2c>)
 80073ba:	687b      	ldr	r3, [r7, #4]
 80073bc:	4313      	orrs	r3, r2
 80073be:	660b      	str	r3, [r1, #96]	; 0x60
  tmpreg = READ_BIT(RCC->APB2ENR, Periphs);
 80073c0:	4b05      	ldr	r3, [pc, #20]	; (80073d8 <LL_APB2_GRP1_EnableClock+0x2c>)
 80073c2:	6e1a      	ldr	r2, [r3, #96]	; 0x60
 80073c4:	687b      	ldr	r3, [r7, #4]
 80073c6:	4013      	ands	r3, r2
 80073c8:	60fb      	str	r3, [r7, #12]
  (void)tmpreg;
 80073ca:	68fb      	ldr	r3, [r7, #12]
}
 80073cc:	bf00      	nop
 80073ce:	3714      	adds	r7, #20
 80073d0:	46bd      	mov	sp, r7
 80073d2:	f85d 7b04 	ldr.w	r7, [sp], #4
 80073d6:	4770      	bx	lr
 80073d8:	40021000 	.word	0x40021000

080073dc <LL_TIM_EnableCounter>:
{
 80073dc:	b480      	push	{r7}
 80073de:	b083      	sub	sp, #12
 80073e0:	af00      	add	r7, sp, #0
 80073e2:	6078      	str	r0, [r7, #4]
  SET_BIT(TIMx->CR1, TIM_CR1_CEN);
 80073e4:	687b      	ldr	r3, [r7, #4]
 80073e6:	681b      	ldr	r3, [r3, #0]
 80073e8:	f043 0201 	orr.w	r2, r3, #1
 80073ec:	687b      	ldr	r3, [r7, #4]
 80073ee:	601a      	str	r2, [r3, #0]
}
 80073f0:	bf00      	nop
 80073f2:	370c      	adds	r7, #12
 80073f4:	46bd      	mov	sp, r7
 80073f6:	f85d 7b04 	ldr.w	r7, [sp], #4
 80073fa:	4770      	bx	lr

080073fc <LL_TIM_IsEnabledCounter>:
{
 80073fc:	b480      	push	{r7}
 80073fe:	b083      	sub	sp, #12
 8007400:	af00      	add	r7, sp, #0
 8007402:	6078      	str	r0, [r7, #4]
  return ((READ_BIT(TIMx->CR1, TIM_CR1_CEN) == (TIM_CR1_CEN)) ? 1UL : 0UL);
 8007404:	687b      	ldr	r3, [r7, #4]
 8007406:	681b      	ldr	r3, [r3, #0]
 8007408:	f003 0301 	and.w	r3, r3, #1
 800740c:	2b01      	cmp	r3, #1
 800740e:	d101      	bne.n	8007414 <LL_TIM_IsEnabledCounter+0x18>
 8007410:	2301      	movs	r3, #1
 8007412:	e000      	b.n	8007416 <LL_TIM_IsEnabledCounter+0x1a>
 8007414:	2300      	movs	r3, #0
}
 8007416:	4618      	mov	r0, r3
 8007418:	370c      	adds	r7, #12
 800741a:	46bd      	mov	sp, r7
 800741c:	f85d 7b04 	ldr.w	r7, [sp], #4
 8007420:	4770      	bx	lr

08007422 <LL_TIM_EnableARRPreload>:
{
 8007422:	b480      	push	{r7}
 8007424:	b083      	sub	sp, #12
 8007426:	af00      	add	r7, sp, #0
 8007428:	6078      	str	r0, [r7, #4]
  SET_BIT(TIMx->CR1, TIM_CR1_ARPE);
 800742a:	687b      	ldr	r3, [r7, #4]
 800742c:	681b      	ldr	r3, [r3, #0]
 800742e:	f043 0280 	orr.w	r2, r3, #128	; 0x80
 8007432:	687b      	ldr	r3, [r7, #4]
 8007434:	601a      	str	r2, [r3, #0]
}
 8007436:	bf00      	nop
 8007438:	370c      	adds	r7, #12
 800743a:	46bd      	mov	sp, r7
 800743c:	f85d 7b04 	ldr.w	r7, [sp], #4
 8007440:	4770      	bx	lr

08007442 <LL_TIM_CC_EnableChannel>:
{
 8007442:	b480      	push	{r7}
 8007444:	b083      	sub	sp, #12
 8007446:	af00      	add	r7, sp, #0
 8007448:	6078      	str	r0, [r7, #4]
 800744a:	6039      	str	r1, [r7, #0]
  SET_BIT(TIMx->CCER, Channels);
 800744c:	687b      	ldr	r3, [r7, #4]
 800744e:	6a1a      	ldr	r2, [r3, #32]
 8007450:	683b      	ldr	r3, [r7, #0]
 8007452:	431a      	orrs	r2, r3
 8007454:	687b      	ldr	r3, [r7, #4]
 8007456:	621a      	str	r2, [r3, #32]
}
 8007458:	bf00      	nop
 800745a:	370c      	adds	r7, #12
 800745c:	46bd      	mov	sp, r7
 800745e:	f85d 7b04 	ldr.w	r7, [sp], #4
 8007462:	4770      	bx	lr

08007464 <LL_TIM_CC_DisableChannel>:
{
 8007464:	b480      	push	{r7}
 8007466:	b083      	sub	sp, #12
 8007468:	af00      	add	r7, sp, #0
 800746a:	6078      	str	r0, [r7, #4]
 800746c:	6039      	str	r1, [r7, #0]
  CLEAR_BIT(TIMx->CCER, Channels);
 800746e:	687b      	ldr	r3, [r7, #4]
 8007470:	6a1a      	ldr	r2, [r3, #32]
 8007472:	683b      	ldr	r3, [r7, #0]
 8007474:	43db      	mvns	r3, r3
 8007476:	401a      	ands	r2, r3
 8007478:	687b      	ldr	r3, [r7, #4]
 800747a:	621a      	str	r2, [r3, #32]
}
 800747c:	bf00      	nop
 800747e:	370c      	adds	r7, #12
 8007480:	46bd      	mov	sp, r7
 8007482:	f85d 7b04 	ldr.w	r7, [sp], #4
 8007486:	4770      	bx	lr

08007488 <LL_TIM_OC_DisableFast>:
{
 8007488:	b480      	push	{r7}
 800748a:	b085      	sub	sp, #20
 800748c:	af00      	add	r7, sp, #0
 800748e:	6078      	str	r0, [r7, #4]
 8007490:	6039      	str	r1, [r7, #0]
  uint8_t iChannel = TIM_GET_CHANNEL_INDEX(Channel);
 8007492:	683b      	ldr	r3, [r7, #0]
 8007494:	2b01      	cmp	r3, #1
 8007496:	d02e      	beq.n	80074f6 <LL_TIM_OC_DisableFast+0x6e>
 8007498:	683b      	ldr	r3, [r7, #0]
 800749a:	2b04      	cmp	r3, #4
 800749c:	d029      	beq.n	80074f2 <LL_TIM_OC_DisableFast+0x6a>
 800749e:	683b      	ldr	r3, [r7, #0]
 80074a0:	2b10      	cmp	r3, #16
 80074a2:	d024      	beq.n	80074ee <LL_TIM_OC_DisableFast+0x66>
 80074a4:	683b      	ldr	r3, [r7, #0]
 80074a6:	2b40      	cmp	r3, #64	; 0x40
 80074a8:	d01f      	beq.n	80074ea <LL_TIM_OC_DisableFast+0x62>
 80074aa:	683b      	ldr	r3, [r7, #0]
 80074ac:	f5b3 7f80 	cmp.w	r3, #256	; 0x100
 80074b0:	d019      	beq.n	80074e6 <LL_TIM_OC_DisableFast+0x5e>
 80074b2:	683b      	ldr	r3, [r7, #0]
 80074b4:	f5b3 6f80 	cmp.w	r3, #1024	; 0x400
 80074b8:	d013      	beq.n	80074e2 <LL_TIM_OC_DisableFast+0x5a>
 80074ba:	683b      	ldr	r3, [r7, #0]
 80074bc:	f5b3 5f80 	cmp.w	r3, #4096	; 0x1000
 80074c0:	d00d      	beq.n	80074de <LL_TIM_OC_DisableFast+0x56>
 80074c2:	683b      	ldr	r3, [r7, #0]
 80074c4:	f5b3 4f80 	cmp.w	r3, #16384	; 0x4000
 80074c8:	d007      	beq.n	80074da <LL_TIM_OC_DisableFast+0x52>
 80074ca:	683b      	ldr	r3, [r7, #0]
 80074cc:	f5b3 3f80 	cmp.w	r3, #65536	; 0x10000
 80074d0:	d101      	bne.n	80074d6 <LL_TIM_OC_DisableFast+0x4e>
 80074d2:	2308      	movs	r3, #8
 80074d4:	e010      	b.n	80074f8 <LL_TIM_OC_DisableFast+0x70>
 80074d6:	2309      	movs	r3, #9
 80074d8:	e00e      	b.n	80074f8 <LL_TIM_OC_DisableFast+0x70>
 80074da:	2307      	movs	r3, #7
 80074dc:	e00c      	b.n	80074f8 <LL_TIM_OC_DisableFast+0x70>
 80074de:	2306      	movs	r3, #6
 80074e0:	e00a      	b.n	80074f8 <LL_TIM_OC_DisableFast+0x70>
 80074e2:	2305      	movs	r3, #5
 80074e4:	e008      	b.n	80074f8 <LL_TIM_OC_DisableFast+0x70>
 80074e6:	2304      	movs	r3, #4
 80074e8:	e006      	b.n	80074f8 <LL_TIM_OC_DisableFast+0x70>
 80074ea:	2303      	movs	r3, #3
 80074ec:	e004      	b.n	80074f8 <LL_TIM_OC_DisableFast+0x70>
 80074ee:	2302      	movs	r3, #2
 80074f0:	e002      	b.n	80074f8 <LL_TIM_OC_DisableFast+0x70>
 80074f2:	2301      	movs	r3, #1
 80074f4:	e000      	b.n	80074f8 <LL_TIM_OC_DisableFast+0x70>
 80074f6:	2300      	movs	r3, #0
 80074f8:	73fb      	strb	r3, [r7, #15]
  __IO uint32_t *pReg = (__IO uint32_t *)((uint32_t)((uint32_t)(&TIMx->CCMR1) + OFFSET_TAB_CCMRx[iChannel]));
 80074fa:	687b      	ldr	r3, [r7, #4]
 80074fc:	3318      	adds	r3, #24
 80074fe:	4619      	mov	r1, r3
 8007500:	7bfb      	ldrb	r3, [r7, #15]
 8007502:	4a0b      	ldr	r2, [pc, #44]	; (8007530 <LL_TIM_OC_DisableFast+0xa8>)
 8007504:	5cd3      	ldrb	r3, [r2, r3]
 8007506:	440b      	add	r3, r1
 8007508:	60bb      	str	r3, [r7, #8]
  CLEAR_BIT(*pReg, (TIM_CCMR1_OC1FE << SHIFT_TAB_OCxx[iChannel]));
 800750a:	68bb      	ldr	r3, [r7, #8]
 800750c:	681a      	ldr	r2, [r3, #0]
 800750e:	7bfb      	ldrb	r3, [r7, #15]
 8007510:	4908      	ldr	r1, [pc, #32]	; (8007534 <LL_TIM_OC_DisableFast+0xac>)
 8007512:	5ccb      	ldrb	r3, [r1, r3]
 8007514:	4619      	mov	r1, r3
 8007516:	2304      	movs	r3, #4
 8007518:	408b      	lsls	r3, r1
 800751a:	43db      	mvns	r3, r3
 800751c:	401a      	ands	r2, r3
 800751e:	68bb      	ldr	r3, [r7, #8]
 8007520:	601a      	str	r2, [r3, #0]
}
 8007522:	bf00      	nop
 8007524:	3714      	adds	r7, #20
 8007526:	46bd      	mov	sp, r7
 8007528:	f85d 7b04 	ldr.w	r7, [sp], #4
 800752c:	4770      	bx	lr
 800752e:	bf00      	nop
 8007530:	080097c8 	.word	0x080097c8
 8007534:	080097d4 	.word	0x080097d4

08007538 <LL_TIM_OC_EnablePreload>:
{
 8007538:	b480      	push	{r7}
 800753a:	b085      	sub	sp, #20
 800753c:	af00      	add	r7, sp, #0
 800753e:	6078      	str	r0, [r7, #4]
 8007540:	6039      	str	r1, [r7, #0]
  uint8_t iChannel = TIM_GET_CHANNEL_INDEX(Channel);
 8007542:	683b      	ldr	r3, [r7, #0]
 8007544:	2b01      	cmp	r3, #1
 8007546:	d02e      	beq.n	80075a6 <LL_TIM_OC_EnablePreload+0x6e>
 8007548:	683b      	ldr	r3, [r7, #0]
 800754a:	2b04      	cmp	r3, #4
 800754c:	d029      	beq.n	80075a2 <LL_TIM_OC_EnablePreload+0x6a>
 800754e:	683b      	ldr	r3, [r7, #0]
 8007550:	2b10      	cmp	r3, #16
 8007552:	d024      	beq.n	800759e <LL_TIM_OC_EnablePreload+0x66>
 8007554:	683b      	ldr	r3, [r7, #0]
 8007556:	2b40      	cmp	r3, #64	; 0x40
 8007558:	d01f      	beq.n	800759a <LL_TIM_OC_EnablePreload+0x62>
 800755a:	683b      	ldr	r3, [r7, #0]
 800755c:	f5b3 7f80 	cmp.w	r3, #256	; 0x100
 8007560:	d019      	beq.n	8007596 <LL_TIM_OC_EnablePreload+0x5e>
 8007562:	683b      	ldr	r3, [r7, #0]
 8007564:	f5b3 6f80 	cmp.w	r3, #1024	; 0x400
 8007568:	d013      	beq.n	8007592 <LL_TIM_OC_EnablePreload+0x5a>
 800756a:	683b      	ldr	r3, [r7, #0]
 800756c:	f5b3 5f80 	cmp.w	r3, #4096	; 0x1000
 8007570:	d00d      	beq.n	800758e <LL_TIM_OC_EnablePreload+0x56>
 8007572:	683b      	ldr	r3, [r7, #0]
 8007574:	f5b3 4f80 	cmp.w	r3, #16384	; 0x4000
 8007578:	d007      	beq.n	800758a <LL_TIM_OC_EnablePreload+0x52>
 800757a:	683b      	ldr	r3, [r7, #0]
 800757c:	f5b3 3f80 	cmp.w	r3, #65536	; 0x10000
 8007580:	d101      	bne.n	8007586 <LL_TIM_OC_EnablePreload+0x4e>
 8007582:	2308      	movs	r3, #8
 8007584:	e010      	b.n	80075a8 <LL_TIM_OC_EnablePreload+0x70>
 8007586:	2309      	movs	r3, #9
 8007588:	e00e      	b.n	80075a8 <LL_TIM_OC_EnablePreload+0x70>
 800758a:	2307      	movs	r3, #7
 800758c:	e00c      	b.n	80075a8 <LL_TIM_OC_EnablePreload+0x70>
 800758e:	2306      	movs	r3, #6
 8007590:	e00a      	b.n	80075a8 <LL_TIM_OC_EnablePreload+0x70>
 8007592:	2305      	movs	r3, #5
 8007594:	e008      	b.n	80075a8 <LL_TIM_OC_EnablePreload+0x70>
 8007596:	2304      	movs	r3, #4
 8007598:	e006      	b.n	80075a8 <LL_TIM_OC_EnablePreload+0x70>
 800759a:	2303      	movs	r3, #3
 800759c:	e004      	b.n	80075a8 <LL_TIM_OC_EnablePreload+0x70>
 800759e:	2302      	movs	r3, #2
 80075a0:	e002      	b.n	80075a8 <LL_TIM_OC_EnablePreload+0x70>
 80075a2:	2301      	movs	r3, #1
 80075a4:	e000      	b.n	80075a8 <LL_TIM_OC_EnablePreload+0x70>
 80075a6:	2300      	movs	r3, #0
 80075a8:	73fb      	strb	r3, [r7, #15]
  __IO uint32_t *pReg = (__IO uint32_t *)((uint32_t)((uint32_t)(&TIMx->CCMR1) + OFFSET_TAB_CCMRx[iChannel]));
 80075aa:	687b      	ldr	r3, [r7, #4]
 80075ac:	3318      	adds	r3, #24
 80075ae:	4619      	mov	r1, r3
 80075b0:	7bfb      	ldrb	r3, [r7, #15]
 80075b2:	4a0a      	ldr	r2, [pc, #40]	; (80075dc <LL_TIM_OC_EnablePreload+0xa4>)
 80075b4:	5cd3      	ldrb	r3, [r2, r3]
 80075b6:	440b      	add	r3, r1
 80075b8:	60bb      	str	r3, [r7, #8]
  SET_BIT(*pReg, (TIM_CCMR1_OC1PE << SHIFT_TAB_OCxx[iChannel]));
 80075ba:	68bb      	ldr	r3, [r7, #8]
 80075bc:	681a      	ldr	r2, [r3, #0]
 80075be:	7bfb      	ldrb	r3, [r7, #15]
 80075c0:	4907      	ldr	r1, [pc, #28]	; (80075e0 <LL_TIM_OC_EnablePreload+0xa8>)
 80075c2:	5ccb      	ldrb	r3, [r1, r3]
 80075c4:	4619      	mov	r1, r3
 80075c6:	2308      	movs	r3, #8
 80075c8:	408b      	lsls	r3, r1
 80075ca:	431a      	orrs	r2, r3
 80075cc:	68bb      	ldr	r3, [r7, #8]
 80075ce:	601a      	str	r2, [r3, #0]
}
 80075d0:	bf00      	nop
 80075d2:	3714      	adds	r7, #20
 80075d4:	46bd      	mov	sp, r7
 80075d6:	f85d 7b04 	ldr.w	r7, [sp], #4
 80075da:	4770      	bx	lr
 80075dc:	080097c8 	.word	0x080097c8
 80075e0:	080097d4 	.word	0x080097d4

080075e4 <LL_TIM_DisableMasterSlaveMode>:
{
 80075e4:	b480      	push	{r7}
 80075e6:	b083      	sub	sp, #12
 80075e8:	af00      	add	r7, sp, #0
 80075ea:	6078      	str	r0, [r7, #4]
  CLEAR_BIT(TIMx->SMCR, TIM_SMCR_MSM);
 80075ec:	687b      	ldr	r3, [r7, #4]
 80075ee:	689b      	ldr	r3, [r3, #8]
 80075f0:	f023 0280 	bic.w	r2, r3, #128	; 0x80
 80075f4:	687b      	ldr	r3, [r7, #4]
 80075f6:	609a      	str	r2, [r3, #8]
}
 80075f8:	bf00      	nop
 80075fa:	370c      	adds	r7, #12
 80075fc:	46bd      	mov	sp, r7
 80075fe:	f85d 7b04 	ldr.w	r7, [sp], #4
 8007602:	4770      	bx	lr

08007604 <LL_TIM_EnableAutomaticOutput>:
{
 8007604:	b480      	push	{r7}
 8007606:	b083      	sub	sp, #12
 8007608:	af00      	add	r7, sp, #0
 800760a:	6078      	str	r0, [r7, #4]
  SET_BIT(TIMx->BDTR, TIM_BDTR_AOE);
 800760c:	687b      	ldr	r3, [r7, #4]
 800760e:	6c5b      	ldr	r3, [r3, #68]	; 0x44
 8007610:	f443 4280 	orr.w	r2, r3, #16384	; 0x4000
 8007614:	687b      	ldr	r3, [r7, #4]
 8007616:	645a      	str	r2, [r3, #68]	; 0x44
}
 8007618:	bf00      	nop
 800761a:	370c      	adds	r7, #12
 800761c:	46bd      	mov	sp, r7
 800761e:	f85d 7b04 	ldr.w	r7, [sp], #4
 8007622:	4770      	bx	lr

08007624 <LL_TIM_ClearFlag_UPDATE>:
{
 8007624:	b480      	push	{r7}
 8007626:	b083      	sub	sp, #12
 8007628:	af00      	add	r7, sp, #0
 800762a:	6078      	str	r0, [r7, #4]
  WRITE_REG(TIMx->SR, ~(TIM_SR_UIF));
 800762c:	687b      	ldr	r3, [r7, #4]
 800762e:	f06f 0201 	mvn.w	r2, #1
 8007632:	611a      	str	r2, [r3, #16]
}
 8007634:	bf00      	nop
 8007636:	370c      	adds	r7, #12
 8007638:	46bd      	mov	sp, r7
 800763a:	f85d 7b04 	ldr.w	r7, [sp], #4
 800763e:	4770      	bx	lr

08007640 <LL_TIM_IsActiveFlag_UPDATE>:
{
 8007640:	b480      	push	{r7}
 8007642:	b083      	sub	sp, #12
 8007644:	af00      	add	r7, sp, #0
 8007646:	6078      	str	r0, [r7, #4]
  return ((READ_BIT(TIMx->SR, TIM_SR_UIF) == (TIM_SR_UIF)) ? 1UL : 0UL);
 8007648:	687b      	ldr	r3, [r7, #4]
 800764a:	691b      	ldr	r3, [r3, #16]
 800764c:	f003 0301 	and.w	r3, r3, #1
 8007650:	2b01      	cmp	r3, #1
 8007652:	d101      	bne.n	8007658 <LL_TIM_IsActiveFlag_UPDATE+0x18>
 8007654:	2301      	movs	r3, #1
 8007656:	e000      	b.n	800765a <LL_TIM_IsActiveFlag_UPDATE+0x1a>
 8007658:	2300      	movs	r3, #0
}
 800765a:	4618      	mov	r0, r3
 800765c:	370c      	adds	r7, #12
 800765e:	46bd      	mov	sp, r7
 8007660:	f85d 7b04 	ldr.w	r7, [sp], #4
 8007664:	4770      	bx	lr

08007666 <LL_TIM_EnableIT_UPDATE>:
{
 8007666:	b480      	push	{r7}
 8007668:	b083      	sub	sp, #12
 800766a:	af00      	add	r7, sp, #0
 800766c:	6078      	str	r0, [r7, #4]
  SET_BIT(TIMx->DIER, TIM_DIER_UIE);
 800766e:	687b      	ldr	r3, [r7, #4]
 8007670:	68db      	ldr	r3, [r3, #12]
 8007672:	f043 0201 	orr.w	r2, r3, #1
 8007676:	687b      	ldr	r3, [r7, #4]
 8007678:	60da      	str	r2, [r3, #12]
}
 800767a:	bf00      	nop
 800767c:	370c      	adds	r7, #12
 800767e:	46bd      	mov	sp, r7
 8007680:	f85d 7b04 	ldr.w	r7, [sp], #4
 8007684:	4770      	bx	lr

08007686 <STRHAL_TIM_Init>:
{ .tim = &_tims[STRHAL_TIM_TIM8], .port = GPIOC, .pin = LL_GPIO_PIN_13, .afn = LL_GPIO_AF_4, .n = LL_TIM_CHANNEL_CH4N, .ccr = &TIM8->CCR4, }, [STRHAL_TIM_TIM8_CH4N_PD0] =
{ .tim = &_tims[STRHAL_TIM_TIM8], .port = GPIOC, .pin = LL_GPIO_PIN_0, .afn = LL_GPIO_AF_6, .n = LL_TIM_CHANNEL_CH4N, .ccr = &TIM8->CCR4, }, [STRHAL_TIM_TIM8_CH4_PD1] =
{ .tim = &_tims[STRHAL_TIM_TIM8], .port = GPIOC, .pin = LL_GPIO_PIN_1, .afn = LL_GPIO_AF_4, .n = LL_TIM_CHANNEL_CH4, .ccr = &TIM8->CCR4, }, };

void STRHAL_TIM_Init()
{
 8007686:	b580      	push	{r7, lr}
 8007688:	af00      	add	r7, sp, #0
	/* GPIO Ports Clock Enable */
	LL_AHB2_GRP1_EnableClock(LL_AHB2_GRP1_PERIPH_GPIOC);
 800768a:	2004      	movs	r0, #4
 800768c:	f7ff fe5e 	bl	800734c <LL_AHB2_GRP1_EnableClock>
	LL_AHB2_GRP1_EnableClock(LL_AHB2_GRP1_PERIPH_GPIOF);
 8007690:	2020      	movs	r0, #32
 8007692:	f7ff fe5b 	bl	800734c <LL_AHB2_GRP1_EnableClock>
	LL_AHB2_GRP1_EnableClock(LL_AHB2_GRP1_PERIPH_GPIOA);
 8007696:	2001      	movs	r0, #1
 8007698:	f7ff fe58 	bl	800734c <LL_AHB2_GRP1_EnableClock>
	LL_AHB2_GRP1_EnableClock(LL_AHB2_GRP1_PERIPH_GPIOB);
 800769c:	2002      	movs	r0, #2
 800769e:	f7ff fe55 	bl	800734c <LL_AHB2_GRP1_EnableClock>
	LL_AHB2_GRP1_EnableClock(LL_AHB2_GRP1_PERIPH_GPIOE);
 80076a2:	2010      	movs	r0, #16
 80076a4:	f7ff fe52 	bl	800734c <LL_AHB2_GRP1_EnableClock>
	LL_AHB2_GRP1_EnableClock(LL_AHB2_GRP1_PERIPH_GPIOD);
 80076a8:	2008      	movs	r0, #8
 80076aa:	f7ff fe4f 	bl	800734c <LL_AHB2_GRP1_EnableClock>

	LL_APB1_GRP1_EnableClock(LL_APB1_GRP1_PERIPH_TIM2);
 80076ae:	2001      	movs	r0, #1
 80076b0:	f7ff fe64 	bl	800737c <LL_APB1_GRP1_EnableClock>
	LL_APB1_GRP1_EnableClock(LL_APB1_GRP1_PERIPH_TIM3);
 80076b4:	2002      	movs	r0, #2
 80076b6:	f7ff fe61 	bl	800737c <LL_APB1_GRP1_EnableClock>
	LL_APB1_GRP1_EnableClock(LL_APB1_GRP1_PERIPH_TIM4);
 80076ba:	2004      	movs	r0, #4
 80076bc:	f7ff fe5e 	bl	800737c <LL_APB1_GRP1_EnableClock>
	LL_APB1_GRP1_EnableClock(LL_APB1_GRP1_PERIPH_TIM6);
 80076c0:	2010      	movs	r0, #16
 80076c2:	f7ff fe5b 	bl	800737c <LL_APB1_GRP1_EnableClock>
	LL_APB1_GRP1_EnableClock(LL_APB1_GRP1_PERIPH_TIM7);
 80076c6:	2020      	movs	r0, #32
 80076c8:	f7ff fe58 	bl	800737c <LL_APB1_GRP1_EnableClock>

	LL_APB2_GRP1_EnableClock(LL_APB2_GRP1_PERIPH_TIM1);
 80076cc:	f44f 6000 	mov.w	r0, #2048	; 0x800
 80076d0:	f7ff fe6c 	bl	80073ac <LL_APB2_GRP1_EnableClock>
	LL_APB2_GRP1_EnableClock(LL_APB2_GRP1_PERIPH_TIM8);
 80076d4:	f44f 5000 	mov.w	r0, #8192	; 0x2000
 80076d8:	f7ff fe68 	bl	80073ac <LL_APB2_GRP1_EnableClock>

	NVIC_EnableIRQ(TIM6_DAC_IRQn);
 80076dc:	2036      	movs	r0, #54	; 0x36
 80076de:	f7ff fdb9 	bl	8007254 <__NVIC_EnableIRQ>
	NVIC_EnableIRQ(TIM7_DAC_IRQn);
 80076e2:	2037      	movs	r0, #55	; 0x37
 80076e4:	f7ff fdb6 	bl	8007254 <__NVIC_EnableIRQ>
	NVIC_SetPriority(TIM6_DAC_IRQn, NVIC_EncodePriority(NVIC_GetPriorityGrouping(), 1, 3));
 80076e8:	f7ff fda6 	bl	8007238 <__NVIC_GetPriorityGrouping>
 80076ec:	4603      	mov	r3, r0
 80076ee:	2203      	movs	r2, #3
 80076f0:	2101      	movs	r1, #1
 80076f2:	4618      	mov	r0, r3
 80076f4:	f7ff fdf6 	bl	80072e4 <NVIC_EncodePriority>
 80076f8:	4603      	mov	r3, r0
 80076fa:	4619      	mov	r1, r3
 80076fc:	2036      	movs	r0, #54	; 0x36
 80076fe:	f7ff fdc7 	bl	8007290 <__NVIC_SetPriority>
	NVIC_SetPriority(TIM7_DAC_IRQn, NVIC_EncodePriority(NVIC_GetPriorityGrouping(), 1, 2)); //TODO check priorities
 8007702:	f7ff fd99 	bl	8007238 <__NVIC_GetPriorityGrouping>
 8007706:	4603      	mov	r3, r0
 8007708:	2202      	movs	r2, #2
 800770a:	2101      	movs	r1, #1
 800770c:	4618      	mov	r0, r3
 800770e:	f7ff fde9 	bl	80072e4 <NVIC_EncodePriority>
 8007712:	4603      	mov	r3, r0
 8007714:	4619      	mov	r1, r3
 8007716:	2037      	movs	r0, #55	; 0x37
 8007718:	f7ff fdba 	bl	8007290 <__NVIC_SetPriority>
}
 800771c:	bf00      	nop
 800771e:	bd80      	pop	{r7, pc}

08007720 <STRHAL_TIM_PWM_Init>:

int32_t STRHAL_TIM_PWM_Init(STRHAL_TIM_TimerId_t id, uint16_t psc, uint16_t res)
{
 8007720:	b580      	push	{r7, lr}
 8007722:	b08a      	sub	sp, #40	; 0x28
 8007724:	af00      	add	r7, sp, #0
 8007726:	4603      	mov	r3, r0
 8007728:	71fb      	strb	r3, [r7, #7]
 800772a:	460b      	mov	r3, r1
 800772c:	80bb      	strh	r3, [r7, #4]
 800772e:	4613      	mov	r3, r2
 8007730:	807b      	strh	r3, [r7, #2]
	if (id > STRHAL_TIM_N_TIM || id < 0)
 8007732:	79fb      	ldrb	r3, [r7, #7]
 8007734:	2b05      	cmp	r3, #5
 8007736:	d902      	bls.n	800773e <STRHAL_TIM_PWM_Init+0x1e>
		return -1;
 8007738:	f04f 33ff 	mov.w	r3, #4294967295	; 0xffffffff
 800773c:	e06e      	b.n	800781c <STRHAL_TIM_PWM_Init+0xfc>

	STRHAL_TIM_Timer_t *tim = &_tims[id];
 800773e:	79fb      	ldrb	r3, [r7, #7]
 8007740:	00db      	lsls	r3, r3, #3
 8007742:	4a38      	ldr	r2, [pc, #224]	; (8007824 <STRHAL_TIM_PWM_Init+0x104>)
 8007744:	4413      	add	r3, r2
 8007746:	627b      	str	r3, [r7, #36]	; 0x24
	if (tim->utype == STRHAL_TIM_USAGE_PWM)
 8007748:	6a7b      	ldr	r3, [r7, #36]	; 0x24
 800774a:	79db      	ldrb	r3, [r3, #7]
 800774c:	2b02      	cmp	r3, #2
 800774e:	d101      	bne.n	8007754 <STRHAL_TIM_PWM_Init+0x34>
		return 0; //TODO: return actual hardware Frequency
 8007750:	2300      	movs	r3, #0
 8007752:	e063      	b.n	800781c <STRHAL_TIM_PWM_Init+0xfc>

	if (tim->utype != STRHAL_TIM_USAGE_000)
 8007754:	6a7b      	ldr	r3, [r7, #36]	; 0x24
 8007756:	79db      	ldrb	r3, [r3, #7]
 8007758:	2b00      	cmp	r3, #0
 800775a:	d002      	beq.n	8007762 <STRHAL_TIM_PWM_Init+0x42>
		return -1;
 800775c:	f04f 33ff 	mov.w	r3, #4294967295	; 0xffffffff
 8007760:	e05c      	b.n	800781c <STRHAL_TIM_PWM_Init+0xfc>

	LL_TIM_InitTypeDef TIM_InitStruct =
 8007762:	f107 030c 	add.w	r3, r7, #12
 8007766:	2200      	movs	r2, #0
 8007768:	601a      	str	r2, [r3, #0]
 800776a:	605a      	str	r2, [r3, #4]
 800776c:	609a      	str	r2, [r3, #8]
 800776e:	60da      	str	r2, [r3, #12]
 8007770:	611a      	str	r2, [r3, #16]
	{ 0 };
	TIM_InitStruct.ClockDivision = LL_TIM_CLOCKDIVISION_DIV1;
 8007772:	2300      	movs	r3, #0
 8007774:	61bb      	str	r3, [r7, #24]
	TIM_InitStruct.CounterMode = LL_TIM_COUNTERDIRECTION_UP;
 8007776:	2300      	movs	r3, #0
 8007778:	613b      	str	r3, [r7, #16]
	TIM_InitStruct.Autoreload = res - 1;
 800777a:	887b      	ldrh	r3, [r7, #2]
 800777c:	3b01      	subs	r3, #1
 800777e:	617b      	str	r3, [r7, #20]
	TIM_InitStruct.Prescaler = psc > 0 ? psc - 1 : psc;
 8007780:	88bb      	ldrh	r3, [r7, #4]
 8007782:	2b00      	cmp	r3, #0
 8007784:	d003      	beq.n	800778e <STRHAL_TIM_PWM_Init+0x6e>
 8007786:	88bb      	ldrh	r3, [r7, #4]
 8007788:	3b01      	subs	r3, #1
 800778a:	b29b      	uxth	r3, r3
 800778c:	e000      	b.n	8007790 <STRHAL_TIM_PWM_Init+0x70>
 800778e:	88bb      	ldrh	r3, [r7, #4]
 8007790:	81bb      	strh	r3, [r7, #12]
	LL_TIM_Init(tim->timx, &TIM_InitStruct);
 8007792:	6a7b      	ldr	r3, [r7, #36]	; 0x24
 8007794:	681b      	ldr	r3, [r3, #0]
 8007796:	f107 020c 	add.w	r2, r7, #12
 800779a:	4611      	mov	r1, r2
 800779c:	4618      	mov	r0, r3
 800779e:	f7fc f9eb 	bl	8003b78 <LL_TIM_Init>

	LL_TIM_EnableARRPreload(tim->timx);
 80077a2:	6a7b      	ldr	r3, [r7, #36]	; 0x24
 80077a4:	681b      	ldr	r3, [r3, #0]
 80077a6:	4618      	mov	r0, r3
 80077a8:	f7ff fe3b 	bl	8007422 <LL_TIM_EnableARRPreload>
	if (IS_TIM_BREAK_INSTANCE(tim->timx))
 80077ac:	6a7b      	ldr	r3, [r7, #36]	; 0x24
 80077ae:	681b      	ldr	r3, [r3, #0]
 80077b0:	4a1d      	ldr	r2, [pc, #116]	; (8007828 <STRHAL_TIM_PWM_Init+0x108>)
 80077b2:	4293      	cmp	r3, r2
 80077b4:	d018      	beq.n	80077e8 <STRHAL_TIM_PWM_Init+0xc8>
 80077b6:	6a7b      	ldr	r3, [r7, #36]	; 0x24
 80077b8:	681b      	ldr	r3, [r3, #0]
 80077ba:	4a1c      	ldr	r2, [pc, #112]	; (800782c <STRHAL_TIM_PWM_Init+0x10c>)
 80077bc:	4293      	cmp	r3, r2
 80077be:	d013      	beq.n	80077e8 <STRHAL_TIM_PWM_Init+0xc8>
 80077c0:	6a7b      	ldr	r3, [r7, #36]	; 0x24
 80077c2:	681b      	ldr	r3, [r3, #0]
 80077c4:	4a1a      	ldr	r2, [pc, #104]	; (8007830 <STRHAL_TIM_PWM_Init+0x110>)
 80077c6:	4293      	cmp	r3, r2
 80077c8:	d00e      	beq.n	80077e8 <STRHAL_TIM_PWM_Init+0xc8>
 80077ca:	6a7b      	ldr	r3, [r7, #36]	; 0x24
 80077cc:	681b      	ldr	r3, [r3, #0]
 80077ce:	4a19      	ldr	r2, [pc, #100]	; (8007834 <STRHAL_TIM_PWM_Init+0x114>)
 80077d0:	4293      	cmp	r3, r2
 80077d2:	d009      	beq.n	80077e8 <STRHAL_TIM_PWM_Init+0xc8>
 80077d4:	6a7b      	ldr	r3, [r7, #36]	; 0x24
 80077d6:	681b      	ldr	r3, [r3, #0]
 80077d8:	4a17      	ldr	r2, [pc, #92]	; (8007838 <STRHAL_TIM_PWM_Init+0x118>)
 80077da:	4293      	cmp	r3, r2
 80077dc:	d004      	beq.n	80077e8 <STRHAL_TIM_PWM_Init+0xc8>
 80077de:	6a7b      	ldr	r3, [r7, #36]	; 0x24
 80077e0:	681b      	ldr	r3, [r3, #0]
 80077e2:	4a16      	ldr	r2, [pc, #88]	; (800783c <STRHAL_TIM_PWM_Init+0x11c>)
 80077e4:	4293      	cmp	r3, r2
 80077e6:	d104      	bne.n	80077f2 <STRHAL_TIM_PWM_Init+0xd2>
		LL_TIM_EnableAutomaticOutput(tim->timx);
 80077e8:	6a7b      	ldr	r3, [r7, #36]	; 0x24
 80077ea:	681b      	ldr	r3, [r3, #0]
 80077ec:	4618      	mov	r0, r3
 80077ee:	f7ff ff09 	bl	8007604 <LL_TIM_EnableAutomaticOutput>

	LL_TIM_DisableMasterSlaveMode(tim->timx);
 80077f2:	6a7b      	ldr	r3, [r7, #36]	; 0x24
 80077f4:	681b      	ldr	r3, [r3, #0]
 80077f6:	4618      	mov	r0, r3
 80077f8:	f7ff fef4 	bl	80075e4 <LL_TIM_DisableMasterSlaveMode>

	tim->cfreq = 0;
 80077fc:	6a7b      	ldr	r3, [r7, #36]	; 0x24
 80077fe:	2200      	movs	r2, #0
 8007800:	809a      	strh	r2, [r3, #4]
	tim->utype = STRHAL_TIM_USAGE_PWM;
 8007802:	6a7b      	ldr	r3, [r7, #36]	; 0x24
 8007804:	2202      	movs	r2, #2
 8007806:	71da      	strb	r2, [r3, #7]

	uint16_t freq = SystemCoreClock / (res * psc);
 8007808:	4b0d      	ldr	r3, [pc, #52]	; (8007840 <STRHAL_TIM_PWM_Init+0x120>)
 800780a:	681b      	ldr	r3, [r3, #0]
 800780c:	887a      	ldrh	r2, [r7, #2]
 800780e:	88b9      	ldrh	r1, [r7, #4]
 8007810:	fb01 f202 	mul.w	r2, r1, r2
 8007814:	fbb3 f3f2 	udiv	r3, r3, r2
 8007818:	847b      	strh	r3, [r7, #34]	; 0x22
	return freq;
 800781a:	8c7b      	ldrh	r3, [r7, #34]	; 0x22
}
 800781c:	4618      	mov	r0, r3
 800781e:	3728      	adds	r7, #40	; 0x28
 8007820:	46bd      	mov	sp, r7
 8007822:	bd80      	pop	{r7, pc}
 8007824:	2000004c 	.word	0x2000004c
 8007828:	40012c00 	.word	0x40012c00
 800782c:	40013400 	.word	0x40013400
 8007830:	40014000 	.word	0x40014000
 8007834:	40014400 	.word	0x40014400
 8007838:	40014800 	.word	0x40014800
 800783c:	40015000 	.word	0x40015000
 8007840:	20000000 	.word	0x20000000

08007844 <STRHAL_TIM_PWM_AddChannel>:

int STRHAL_TIM_PWM_AddChannel(STRHAL_TIM_PWM_Channel_t *pwmChannel, STRHAL_TIM_ChannelId_t channelId, STRHAL_TIM_PWM_ChannelType_t pwmType)
{
 8007844:	b580      	push	{r7, lr}
 8007846:	b092      	sub	sp, #72	; 0x48
 8007848:	af00      	add	r7, sp, #0
 800784a:	6078      	str	r0, [r7, #4]
 800784c:	460b      	mov	r3, r1
 800784e:	70fb      	strb	r3, [r7, #3]
 8007850:	4613      	mov	r3, r2
 8007852:	70bb      	strb	r3, [r7, #2]
	if (channelId > STRHAL_TIM_N_TIM_CHANNELS)
 8007854:	78fb      	ldrb	r3, [r7, #3]
 8007856:	2b5b      	cmp	r3, #91	; 0x5b
 8007858:	d902      	bls.n	8007860 <STRHAL_TIM_PWM_AddChannel+0x1c>
		return -1;
 800785a:	f04f 33ff 	mov.w	r3, #4294967295	; 0xffffffff
 800785e:	e060      	b.n	8007922 <STRHAL_TIM_PWM_AddChannel+0xde>

	const STRHAL_TIM_Channel_t *ch = &_tim_channels[channelId];
 8007860:	78fa      	ldrb	r2, [r7, #3]
 8007862:	4613      	mov	r3, r2
 8007864:	005b      	lsls	r3, r3, #1
 8007866:	4413      	add	r3, r2
 8007868:	00db      	lsls	r3, r3, #3
 800786a:	4a30      	ldr	r2, [pc, #192]	; (800792c <STRHAL_TIM_PWM_AddChannel+0xe8>)
 800786c:	4413      	add	r3, r2
 800786e:	647b      	str	r3, [r7, #68]	; 0x44
	if (pwmType == STRHAL_TIM_PWM_CHANNELTYPE_SO)
 8007870:	78bb      	ldrb	r3, [r7, #2]
 8007872:	2b00      	cmp	r3, #0
 8007874:	d14e      	bne.n	8007914 <STRHAL_TIM_PWM_AddChannel+0xd0>
	{

		LL_GPIO_InitTypeDef GPIO_InitStruct =
 8007876:	f107 032c 	add.w	r3, r7, #44	; 0x2c
 800787a:	2200      	movs	r2, #0
 800787c:	601a      	str	r2, [r3, #0]
 800787e:	605a      	str	r2, [r3, #4]
 8007880:	609a      	str	r2, [r3, #8]
 8007882:	60da      	str	r2, [r3, #12]
 8007884:	611a      	str	r2, [r3, #16]
 8007886:	615a      	str	r2, [r3, #20]
		{ 0 };
		GPIO_InitStruct.Mode = LL_GPIO_MODE_ALTERNATE;
 8007888:	2302      	movs	r3, #2
 800788a:	633b      	str	r3, [r7, #48]	; 0x30
		GPIO_InitStruct.Alternate = ch->afn;
 800788c:	6c7b      	ldr	r3, [r7, #68]	; 0x44
 800788e:	68db      	ldr	r3, [r3, #12]
 8007890:	643b      	str	r3, [r7, #64]	; 0x40
		GPIO_InitStruct.Pin = ch->pin;
 8007892:	6c7b      	ldr	r3, [r7, #68]	; 0x44
 8007894:	689b      	ldr	r3, [r3, #8]
 8007896:	62fb      	str	r3, [r7, #44]	; 0x2c
		GPIO_InitStruct.OutputType = LL_GPIO_OUTPUT_PUSHPULL;
 8007898:	2300      	movs	r3, #0
 800789a:	63bb      	str	r3, [r7, #56]	; 0x38
		GPIO_InitStruct.Pull = LL_GPIO_PULL_NO;
 800789c:	2300      	movs	r3, #0
 800789e:	63fb      	str	r3, [r7, #60]	; 0x3c
		GPIO_InitStruct.Speed = LL_GPIO_SPEED_FREQ_HIGH;
 80078a0:	2302      	movs	r3, #2
 80078a2:	637b      	str	r3, [r7, #52]	; 0x34
		LL_GPIO_Init(ch->port, &GPIO_InitStruct);
 80078a4:	6c7b      	ldr	r3, [r7, #68]	; 0x44
 80078a6:	685b      	ldr	r3, [r3, #4]
 80078a8:	f107 022c 	add.w	r2, r7, #44	; 0x2c
 80078ac:	4611      	mov	r1, r2
 80078ae:	4618      	mov	r0, r3
 80078b0:	f7fb fd1d 	bl	80032ee <LL_GPIO_Init>

		LL_TIM_OC_InitTypeDef OC_InitStruct =
 80078b4:	f107 030c 	add.w	r3, r7, #12
 80078b8:	2220      	movs	r2, #32
 80078ba:	2100      	movs	r1, #0
 80078bc:	4618      	mov	r0, r3
 80078be:	f001 f9d5 	bl	8008c6c <memset>
		{ 0 };
		OC_InitStruct.OCMode = LL_TIM_OCMODE_PWM1;
 80078c2:	2360      	movs	r3, #96	; 0x60
 80078c4:	60fb      	str	r3, [r7, #12]
		OC_InitStruct.OCState = LL_TIM_OCSTATE_ENABLE;
 80078c6:	2301      	movs	r3, #1
 80078c8:	613b      	str	r3, [r7, #16]
		OC_InitStruct.OCPolarity = LL_TIM_OCPOLARITY_HIGH;
 80078ca:	2300      	movs	r3, #0
 80078cc:	61fb      	str	r3, [r7, #28]
		OC_InitStruct.OCNPolarity = LL_TIM_OCPOLARITY_LOW;
 80078ce:	2302      	movs	r3, #2
 80078d0:	623b      	str	r3, [r7, #32]
		OC_InitStruct.OCIdleState = LL_TIM_OCIDLESTATE_LOW;
 80078d2:	2300      	movs	r3, #0
 80078d4:	627b      	str	r3, [r7, #36]	; 0x24
		OC_InitStruct.OCNIdleState = LL_TIM_OCIDLESTATE_HIGH;
 80078d6:	f44f 7380 	mov.w	r3, #256	; 0x100
 80078da:	62bb      	str	r3, [r7, #40]	; 0x28
		LL_TIM_OC_Init(ch->tim->timx, ch->n, &OC_InitStruct);
 80078dc:	6c7b      	ldr	r3, [r7, #68]	; 0x44
 80078de:	681b      	ldr	r3, [r3, #0]
 80078e0:	6818      	ldr	r0, [r3, #0]
 80078e2:	6c7b      	ldr	r3, [r7, #68]	; 0x44
 80078e4:	691b      	ldr	r3, [r3, #16]
 80078e6:	f107 020c 	add.w	r2, r7, #12
 80078ea:	4619      	mov	r1, r3
 80078ec:	f7fc f9e6 	bl	8003cbc <LL_TIM_OC_Init>
		LL_TIM_OC_EnablePreload(ch->tim->timx, ch->n);
 80078f0:	6c7b      	ldr	r3, [r7, #68]	; 0x44
 80078f2:	681b      	ldr	r3, [r3, #0]
 80078f4:	681a      	ldr	r2, [r3, #0]
 80078f6:	6c7b      	ldr	r3, [r7, #68]	; 0x44
 80078f8:	691b      	ldr	r3, [r3, #16]
 80078fa:	4619      	mov	r1, r3
 80078fc:	4610      	mov	r0, r2
 80078fe:	f7ff fe1b 	bl	8007538 <LL_TIM_OC_EnablePreload>
		LL_TIM_OC_DisableFast(ch->tim->timx, ch->n);
 8007902:	6c7b      	ldr	r3, [r7, #68]	; 0x44
 8007904:	681b      	ldr	r3, [r3, #0]
 8007906:	681a      	ldr	r2, [r3, #0]
 8007908:	6c7b      	ldr	r3, [r7, #68]	; 0x44
 800790a:	691b      	ldr	r3, [r3, #16]
 800790c:	4619      	mov	r1, r3
 800790e:	4610      	mov	r0, r2
 8007910:	f7ff fdba 	bl	8007488 <LL_TIM_OC_DisableFast>
	else if (pwmType == STRHAL_TIM_PWM_CHANNELTYPE_IN)
	{
		//LL_TIM_IC_InitTypeDef IC_InitStruct = {0};
	}

	pwmChannel->channelId = channelId;
 8007914:	687b      	ldr	r3, [r7, #4]
 8007916:	78fa      	ldrb	r2, [r7, #3]
 8007918:	701a      	strb	r2, [r3, #0]
	pwmChannel->type = pwmType;
 800791a:	687b      	ldr	r3, [r7, #4]
 800791c:	78ba      	ldrb	r2, [r7, #2]
 800791e:	705a      	strb	r2, [r3, #1]
	return 0;
 8007920:	2300      	movs	r3, #0
}
 8007922:	4618      	mov	r0, r3
 8007924:	3748      	adds	r7, #72	; 0x48
 8007926:	46bd      	mov	sp, r7
 8007928:	bd80      	pop	{r7, pc}
 800792a:	bf00      	nop
 800792c:	080097e0 	.word	0x080097e0

08007930 <STRHAL_TIM_PWM_SetDuty>:
	LL_TIM_SetAutoReload(tim->timx, res - 1);
	return SystemCoreClock / (psc * res);
}

int32_t STRHAL_TIM_PWM_SetDuty(STRHAL_TIM_PWM_Channel_t *pwmChannel, uint16_t duty)
{
 8007930:	b480      	push	{r7}
 8007932:	b085      	sub	sp, #20
 8007934:	af00      	add	r7, sp, #0
 8007936:	6078      	str	r0, [r7, #4]
 8007938:	460b      	mov	r3, r1
 800793a:	807b      	strh	r3, [r7, #2]
	if (pwmChannel->channelId > STRHAL_TIM_N_TIM_CHANNELS)
 800793c:	687b      	ldr	r3, [r7, #4]
 800793e:	781b      	ldrb	r3, [r3, #0]
 8007940:	2b5b      	cmp	r3, #91	; 0x5b
 8007942:	d902      	bls.n	800794a <STRHAL_TIM_PWM_SetDuty+0x1a>
		return -1;
 8007944:	f04f 33ff 	mov.w	r3, #4294967295	; 0xffffffff
 8007948:	e016      	b.n	8007978 <STRHAL_TIM_PWM_SetDuty+0x48>

	const STRHAL_TIM_Channel_t *ch = &_tim_channels[pwmChannel->channelId];
 800794a:	687b      	ldr	r3, [r7, #4]
 800794c:	781b      	ldrb	r3, [r3, #0]
 800794e:	461a      	mov	r2, r3
 8007950:	4613      	mov	r3, r2
 8007952:	005b      	lsls	r3, r3, #1
 8007954:	4413      	add	r3, r2
 8007956:	00db      	lsls	r3, r3, #3
 8007958:	4a0a      	ldr	r2, [pc, #40]	; (8007984 <STRHAL_TIM_PWM_SetDuty+0x54>)
 800795a:	4413      	add	r3, r2
 800795c:	60fb      	str	r3, [r7, #12]
	if (ch->tim->utype != STRHAL_TIM_USAGE_PWM)
 800795e:	68fb      	ldr	r3, [r7, #12]
 8007960:	681b      	ldr	r3, [r3, #0]
 8007962:	79db      	ldrb	r3, [r3, #7]
 8007964:	2b02      	cmp	r3, #2
 8007966:	d002      	beq.n	800796e <STRHAL_TIM_PWM_SetDuty+0x3e>
		return -1;
 8007968:	f04f 33ff 	mov.w	r3, #4294967295	; 0xffffffff
 800796c:	e004      	b.n	8007978 <STRHAL_TIM_PWM_SetDuty+0x48>

	*ch->ccr = duty;
 800796e:	68fb      	ldr	r3, [r7, #12]
 8007970:	695b      	ldr	r3, [r3, #20]
 8007972:	887a      	ldrh	r2, [r7, #2]
 8007974:	601a      	str	r2, [r3, #0]
	return duty;
 8007976:	887b      	ldrh	r3, [r7, #2]
}
 8007978:	4618      	mov	r0, r3
 800797a:	3714      	adds	r7, #20
 800797c:	46bd      	mov	sp, r7
 800797e:	f85d 7b04 	ldr.w	r7, [sp], #4
 8007982:	4770      	bx	lr
 8007984:	080097e0 	.word	0x080097e0

08007988 <STRHAL_TIM_PWM_Enable>:

int STRHAL_TIM_PWM_Enable(STRHAL_TIM_PWM_Channel_t *pwmChannel, int enable)
{
 8007988:	b580      	push	{r7, lr}
 800798a:	b084      	sub	sp, #16
 800798c:	af00      	add	r7, sp, #0
 800798e:	6078      	str	r0, [r7, #4]
 8007990:	6039      	str	r1, [r7, #0]
	if (pwmChannel->channelId > STRHAL_TIM_N_TIM_CHANNELS)
 8007992:	687b      	ldr	r3, [r7, #4]
 8007994:	781b      	ldrb	r3, [r3, #0]
 8007996:	2b5b      	cmp	r3, #91	; 0x5b
 8007998:	d902      	bls.n	80079a0 <STRHAL_TIM_PWM_Enable+0x18>
		return -1;
 800799a:	f04f 33ff 	mov.w	r3, #4294967295	; 0xffffffff
 800799e:	e037      	b.n	8007a10 <STRHAL_TIM_PWM_Enable+0x88>

	const STRHAL_TIM_Channel_t *ch = &_tim_channels[pwmChannel->channelId];
 80079a0:	687b      	ldr	r3, [r7, #4]
 80079a2:	781b      	ldrb	r3, [r3, #0]
 80079a4:	461a      	mov	r2, r3
 80079a6:	4613      	mov	r3, r2
 80079a8:	005b      	lsls	r3, r3, #1
 80079aa:	4413      	add	r3, r2
 80079ac:	00db      	lsls	r3, r3, #3
 80079ae:	4a1a      	ldr	r2, [pc, #104]	; (8007a18 <STRHAL_TIM_PWM_Enable+0x90>)
 80079b0:	4413      	add	r3, r2
 80079b2:	60fb      	str	r3, [r7, #12]
	if (ch->tim->utype != STRHAL_TIM_USAGE_PWM)
 80079b4:	68fb      	ldr	r3, [r7, #12]
 80079b6:	681b      	ldr	r3, [r3, #0]
 80079b8:	79db      	ldrb	r3, [r3, #7]
 80079ba:	2b02      	cmp	r3, #2
 80079bc:	d002      	beq.n	80079c4 <STRHAL_TIM_PWM_Enable+0x3c>
		return -1;
 80079be:	f04f 33ff 	mov.w	r3, #4294967295	; 0xffffffff
 80079c2:	e025      	b.n	8007a10 <STRHAL_TIM_PWM_Enable+0x88>

	if (enable)
 80079c4:	683b      	ldr	r3, [r7, #0]
 80079c6:	2b00      	cmp	r3, #0
 80079c8:	d018      	beq.n	80079fc <STRHAL_TIM_PWM_Enable+0x74>
	{
		LL_TIM_CC_EnableChannel(ch->tim->timx, ch->n);
 80079ca:	68fb      	ldr	r3, [r7, #12]
 80079cc:	681b      	ldr	r3, [r3, #0]
 80079ce:	681a      	ldr	r2, [r3, #0]
 80079d0:	68fb      	ldr	r3, [r7, #12]
 80079d2:	691b      	ldr	r3, [r3, #16]
 80079d4:	4619      	mov	r1, r3
 80079d6:	4610      	mov	r0, r2
 80079d8:	f7ff fd33 	bl	8007442 <LL_TIM_CC_EnableChannel>
		if (!LL_TIM_IsEnabledCounter(ch->tim->timx))
 80079dc:	68fb      	ldr	r3, [r7, #12]
 80079de:	681b      	ldr	r3, [r3, #0]
 80079e0:	681b      	ldr	r3, [r3, #0]
 80079e2:	4618      	mov	r0, r3
 80079e4:	f7ff fd0a 	bl	80073fc <LL_TIM_IsEnabledCounter>
 80079e8:	4603      	mov	r3, r0
 80079ea:	2b00      	cmp	r3, #0
 80079ec:	d10f      	bne.n	8007a0e <STRHAL_TIM_PWM_Enable+0x86>
			LL_TIM_EnableCounter(ch->tim->timx);
 80079ee:	68fb      	ldr	r3, [r7, #12]
 80079f0:	681b      	ldr	r3, [r3, #0]
 80079f2:	681b      	ldr	r3, [r3, #0]
 80079f4:	4618      	mov	r0, r3
 80079f6:	f7ff fcf1 	bl	80073dc <LL_TIM_EnableCounter>
 80079fa:	e008      	b.n	8007a0e <STRHAL_TIM_PWM_Enable+0x86>
	}
	else
	{
		LL_TIM_CC_DisableChannel(ch->tim->timx, ch->n);
 80079fc:	68fb      	ldr	r3, [r7, #12]
 80079fe:	681b      	ldr	r3, [r3, #0]
 8007a00:	681a      	ldr	r2, [r3, #0]
 8007a02:	68fb      	ldr	r3, [r7, #12]
 8007a04:	691b      	ldr	r3, [r3, #16]
 8007a06:	4619      	mov	r1, r3
 8007a08:	4610      	mov	r0, r2
 8007a0a:	f7ff fd2b 	bl	8007464 <LL_TIM_CC_DisableChannel>
	}

	return enable;
 8007a0e:	683b      	ldr	r3, [r7, #0]
}
 8007a10:	4618      	mov	r0, r3
 8007a12:	3710      	adds	r7, #16
 8007a14:	46bd      	mov	sp, r7
 8007a16:	bd80      	pop	{r7, pc}
 8007a18:	080097e0 	.word	0x080097e0

08007a1c <STRHAL_TIM_Heartbeat_Init>:

int32_t STRHAL_TIM_Heartbeat_Init(STRHAL_TIM_BasicTimerId_t id, uint16_t psc, uint16_t res)
{
 8007a1c:	b580      	push	{r7, lr}
 8007a1e:	b08a      	sub	sp, #40	; 0x28
 8007a20:	af00      	add	r7, sp, #0
 8007a22:	4603      	mov	r3, r0
 8007a24:	71fb      	strb	r3, [r7, #7]
 8007a26:	460b      	mov	r3, r1
 8007a28:	80bb      	strh	r3, [r7, #4]
 8007a2a:	4613      	mov	r3, r2
 8007a2c:	807b      	strh	r3, [r7, #2]
	if (id > STRHAL_TIM_N_BASICTIM || id < 0)
 8007a2e:	79fb      	ldrb	r3, [r7, #7]
 8007a30:	2b02      	cmp	r3, #2
 8007a32:	d902      	bls.n	8007a3a <STRHAL_TIM_Heartbeat_Init+0x1e>
		return -1;
 8007a34:	f04f 33ff 	mov.w	r3, #4294967295	; 0xffffffff
 8007a38:	e043      	b.n	8007ac2 <STRHAL_TIM_Heartbeat_Init+0xa6>

	STRHAL_TIM_BasicTimer_t *tim = &_basicTims[id];
 8007a3a:	79fa      	ldrb	r2, [r7, #7]
 8007a3c:	4613      	mov	r3, r2
 8007a3e:	005b      	lsls	r3, r3, #1
 8007a40:	4413      	add	r3, r2
 8007a42:	009b      	lsls	r3, r3, #2
 8007a44:	4a21      	ldr	r2, [pc, #132]	; (8007acc <STRHAL_TIM_Heartbeat_Init+0xb0>)
 8007a46:	4413      	add	r3, r2
 8007a48:	627b      	str	r3, [r7, #36]	; 0x24
	if (tim->utype != STRHAL_TIM_USAGE_000)
 8007a4a:	6a7b      	ldr	r3, [r7, #36]	; 0x24
 8007a4c:	799b      	ldrb	r3, [r3, #6]
 8007a4e:	2b00      	cmp	r3, #0
 8007a50:	d002      	beq.n	8007a58 <STRHAL_TIM_Heartbeat_Init+0x3c>
		return -1;
 8007a52:	f04f 33ff 	mov.w	r3, #4294967295	; 0xffffffff
 8007a56:	e034      	b.n	8007ac2 <STRHAL_TIM_Heartbeat_Init+0xa6>

	LL_TIM_InitTypeDef TIM_InitStruct =
 8007a58:	f107 030c 	add.w	r3, r7, #12
 8007a5c:	2200      	movs	r2, #0
 8007a5e:	601a      	str	r2, [r3, #0]
 8007a60:	605a      	str	r2, [r3, #4]
 8007a62:	609a      	str	r2, [r3, #8]
 8007a64:	60da      	str	r2, [r3, #12]
 8007a66:	611a      	str	r2, [r3, #16]
	{ 0 };
	TIM_InitStruct.ClockDivision = LL_TIM_CLOCKDIVISION_DIV1;
 8007a68:	2300      	movs	r3, #0
 8007a6a:	61bb      	str	r3, [r7, #24]
	TIM_InitStruct.CounterMode = LL_TIM_COUNTERDIRECTION_UP;
 8007a6c:	2300      	movs	r3, #0
 8007a6e:	613b      	str	r3, [r7, #16]
	TIM_InitStruct.Autoreload = res - 1;
 8007a70:	887b      	ldrh	r3, [r7, #2]
 8007a72:	3b01      	subs	r3, #1
 8007a74:	617b      	str	r3, [r7, #20]
	TIM_InitStruct.Prescaler = psc > 0 ? psc - 1 : psc;
 8007a76:	88bb      	ldrh	r3, [r7, #4]
 8007a78:	2b00      	cmp	r3, #0
 8007a7a:	d003      	beq.n	8007a84 <STRHAL_TIM_Heartbeat_Init+0x68>
 8007a7c:	88bb      	ldrh	r3, [r7, #4]
 8007a7e:	3b01      	subs	r3, #1
 8007a80:	b29b      	uxth	r3, r3
 8007a82:	e000      	b.n	8007a86 <STRHAL_TIM_Heartbeat_Init+0x6a>
 8007a84:	88bb      	ldrh	r3, [r7, #4]
 8007a86:	81bb      	strh	r3, [r7, #12]
	LL_TIM_Init(tim->timx, &TIM_InitStruct);
 8007a88:	6a7b      	ldr	r3, [r7, #36]	; 0x24
 8007a8a:	681b      	ldr	r3, [r3, #0]
 8007a8c:	f107 020c 	add.w	r2, r7, #12
 8007a90:	4611      	mov	r1, r2
 8007a92:	4618      	mov	r0, r3
 8007a94:	f7fc f870 	bl	8003b78 <LL_TIM_Init>

	LL_TIM_EnableARRPreload(tim->timx);
 8007a98:	6a7b      	ldr	r3, [r7, #36]	; 0x24
 8007a9a:	681b      	ldr	r3, [r3, #0]
 8007a9c:	4618      	mov	r0, r3
 8007a9e:	f7ff fcc0 	bl	8007422 <LL_TIM_EnableARRPreload>

	tim->cfreq = 0;
 8007aa2:	6a7b      	ldr	r3, [r7, #36]	; 0x24
 8007aa4:	2200      	movs	r2, #0
 8007aa6:	809a      	strh	r2, [r3, #4]
	tim->utype = STRHAL_TIM_USAGE_BRN;
 8007aa8:	6a7b      	ldr	r3, [r7, #36]	; 0x24
 8007aaa:	2203      	movs	r2, #3
 8007aac:	719a      	strb	r2, [r3, #6]

	uint16_t freq = SystemCoreClock / (res * psc);
 8007aae:	4b08      	ldr	r3, [pc, #32]	; (8007ad0 <STRHAL_TIM_Heartbeat_Init+0xb4>)
 8007ab0:	681b      	ldr	r3, [r3, #0]
 8007ab2:	887a      	ldrh	r2, [r7, #2]
 8007ab4:	88b9      	ldrh	r1, [r7, #4]
 8007ab6:	fb01 f202 	mul.w	r2, r1, r2
 8007aba:	fbb3 f3f2 	udiv	r3, r3, r2
 8007abe:	847b      	strh	r3, [r7, #34]	; 0x22
	return freq;
 8007ac0:	8c7b      	ldrh	r3, [r7, #34]	; 0x22
}
 8007ac2:	4618      	mov	r0, r3
 8007ac4:	3728      	adds	r7, #40	; 0x28
 8007ac6:	46bd      	mov	sp, r7
 8007ac8:	bd80      	pop	{r7, pc}
 8007aca:	bf00      	nop
 8007acc:	20000034 	.word	0x20000034
 8007ad0:	20000000 	.word	0x20000000

08007ad4 <STRHAL_TIM_Heartbeat_Subscribe>:

int STRHAL_TIM_Heartbeat_Subscribe(STRHAL_TIM_BasicTimerId_t id, STRHAL_TIM_Burnable_t burn)
{
 8007ad4:	b480      	push	{r7}
 8007ad6:	b085      	sub	sp, #20
 8007ad8:	af00      	add	r7, sp, #0
 8007ada:	4603      	mov	r3, r0
 8007adc:	6039      	str	r1, [r7, #0]
 8007ade:	71fb      	strb	r3, [r7, #7]
	if (id > STRHAL_TIM_N_BASICTIM || id < 0)
 8007ae0:	79fb      	ldrb	r3, [r7, #7]
 8007ae2:	2b02      	cmp	r3, #2
 8007ae4:	d902      	bls.n	8007aec <STRHAL_TIM_Heartbeat_Subscribe+0x18>
		return -1;
 8007ae6:	f04f 33ff 	mov.w	r3, #4294967295	; 0xffffffff
 8007aea:	e012      	b.n	8007b12 <STRHAL_TIM_Heartbeat_Subscribe+0x3e>

	STRHAL_TIM_BasicTimer_t *tim = &_basicTims[id];
 8007aec:	79fa      	ldrb	r2, [r7, #7]
 8007aee:	4613      	mov	r3, r2
 8007af0:	005b      	lsls	r3, r3, #1
 8007af2:	4413      	add	r3, r2
 8007af4:	009b      	lsls	r3, r3, #2
 8007af6:	4a0a      	ldr	r2, [pc, #40]	; (8007b20 <STRHAL_TIM_Heartbeat_Subscribe+0x4c>)
 8007af8:	4413      	add	r3, r2
 8007afa:	60fb      	str	r3, [r7, #12]
	if (tim->utype != STRHAL_TIM_USAGE_BRN)
 8007afc:	68fb      	ldr	r3, [r7, #12]
 8007afe:	799b      	ldrb	r3, [r3, #6]
 8007b00:	2b03      	cmp	r3, #3
 8007b02:	d002      	beq.n	8007b0a <STRHAL_TIM_Heartbeat_Subscribe+0x36>
		return -1;
 8007b04:	f04f 33ff 	mov.w	r3, #4294967295	; 0xffffffff
 8007b08:	e003      	b.n	8007b12 <STRHAL_TIM_Heartbeat_Subscribe+0x3e>

	tim->burnie = burn;
 8007b0a:	68fb      	ldr	r3, [r7, #12]
 8007b0c:	683a      	ldr	r2, [r7, #0]
 8007b0e:	609a      	str	r2, [r3, #8]
	return 0;
 8007b10:	2300      	movs	r3, #0
}
 8007b12:	4618      	mov	r0, r3
 8007b14:	3714      	adds	r7, #20
 8007b16:	46bd      	mov	sp, r7
 8007b18:	f85d 7b04 	ldr.w	r7, [sp], #4
 8007b1c:	4770      	bx	lr
 8007b1e:	bf00      	nop
 8007b20:	20000034 	.word	0x20000034

08007b24 <STRHAL_TIM_Heartbeat_StartHeartbeat>:

int STRHAL_TIM_Heartbeat_StartHeartbeat(STRHAL_TIM_BasicTimerId_t id)
{
 8007b24:	b580      	push	{r7, lr}
 8007b26:	b084      	sub	sp, #16
 8007b28:	af00      	add	r7, sp, #0
 8007b2a:	4603      	mov	r3, r0
 8007b2c:	71fb      	strb	r3, [r7, #7]
	if (id > STRHAL_TIM_N_BASICTIM || id < 0)
 8007b2e:	79fb      	ldrb	r3, [r7, #7]
 8007b30:	2b02      	cmp	r3, #2
 8007b32:	d902      	bls.n	8007b3a <STRHAL_TIM_Heartbeat_StartHeartbeat+0x16>
		return -1;
 8007b34:	f04f 33ff 	mov.w	r3, #4294967295	; 0xffffffff
 8007b38:	e01e      	b.n	8007b78 <STRHAL_TIM_Heartbeat_StartHeartbeat+0x54>

	STRHAL_TIM_BasicTimer_t *tim = &_basicTims[id];
 8007b3a:	79fa      	ldrb	r2, [r7, #7]
 8007b3c:	4613      	mov	r3, r2
 8007b3e:	005b      	lsls	r3, r3, #1
 8007b40:	4413      	add	r3, r2
 8007b42:	009b      	lsls	r3, r3, #2
 8007b44:	4a0e      	ldr	r2, [pc, #56]	; (8007b80 <STRHAL_TIM_Heartbeat_StartHeartbeat+0x5c>)
 8007b46:	4413      	add	r3, r2
 8007b48:	60fb      	str	r3, [r7, #12]
	if (tim->utype != STRHAL_TIM_USAGE_BRN)
 8007b4a:	68fb      	ldr	r3, [r7, #12]
 8007b4c:	799b      	ldrb	r3, [r3, #6]
 8007b4e:	2b03      	cmp	r3, #3
 8007b50:	d002      	beq.n	8007b58 <STRHAL_TIM_Heartbeat_StartHeartbeat+0x34>
		return -1;
 8007b52:	f04f 33ff 	mov.w	r3, #4294967295	; 0xffffffff
 8007b56:	e00f      	b.n	8007b78 <STRHAL_TIM_Heartbeat_StartHeartbeat+0x54>

	LL_TIM_ClearFlag_UPDATE(tim->timx);
 8007b58:	68fb      	ldr	r3, [r7, #12]
 8007b5a:	681b      	ldr	r3, [r3, #0]
 8007b5c:	4618      	mov	r0, r3
 8007b5e:	f7ff fd61 	bl	8007624 <LL_TIM_ClearFlag_UPDATE>
	LL_TIM_EnableIT_UPDATE(tim->timx);
 8007b62:	68fb      	ldr	r3, [r7, #12]
 8007b64:	681b      	ldr	r3, [r3, #0]
 8007b66:	4618      	mov	r0, r3
 8007b68:	f7ff fd7d 	bl	8007666 <LL_TIM_EnableIT_UPDATE>
	LL_TIM_EnableCounter(tim->timx);
 8007b6c:	68fb      	ldr	r3, [r7, #12]
 8007b6e:	681b      	ldr	r3, [r3, #0]
 8007b70:	4618      	mov	r0, r3
 8007b72:	f7ff fc33 	bl	80073dc <LL_TIM_EnableCounter>
	return 0;
 8007b76:	2300      	movs	r3, #0
}
 8007b78:	4618      	mov	r0, r3
 8007b7a:	3710      	adds	r7, #16
 8007b7c:	46bd      	mov	sp, r7
 8007b7e:	bd80      	pop	{r7, pc}
 8007b80:	20000034 	.word	0x20000034

08007b84 <TIM6_DAC_IRQHandler>:

void TIM6_DAC_IRQHandler(void)
{
 8007b84:	b580      	push	{r7, lr}
 8007b86:	b082      	sub	sp, #8
 8007b88:	af00      	add	r7, sp, #0
	if (LL_TIM_IsActiveFlag_UPDATE(TIM6))
 8007b8a:	480b      	ldr	r0, [pc, #44]	; (8007bb8 <TIM6_DAC_IRQHandler+0x34>)
 8007b8c:	f7ff fd58 	bl	8007640 <LL_TIM_IsActiveFlag_UPDATE>
 8007b90:	4603      	mov	r3, r0
 8007b92:	2b00      	cmp	r3, #0
 8007b94:	d00b      	beq.n	8007bae <TIM6_DAC_IRQHandler+0x2a>
	{
		STRHAL_TIM_BasicTimer_t *tim = &_basicTims[STRHAL_TIM_TIM6];
 8007b96:	4b09      	ldr	r3, [pc, #36]	; (8007bbc <TIM6_DAC_IRQHandler+0x38>)
 8007b98:	607b      	str	r3, [r7, #4]

		if (tim->burnie != NULL)
 8007b9a:	687b      	ldr	r3, [r7, #4]
 8007b9c:	689b      	ldr	r3, [r3, #8]
 8007b9e:	2b00      	cmp	r3, #0
 8007ba0:	d002      	beq.n	8007ba8 <TIM6_DAC_IRQHandler+0x24>
			tim->burnie();
 8007ba2:	687b      	ldr	r3, [r7, #4]
 8007ba4:	689b      	ldr	r3, [r3, #8]
 8007ba6:	4798      	blx	r3

		LL_TIM_ClearFlag_UPDATE(TIM6);
 8007ba8:	4803      	ldr	r0, [pc, #12]	; (8007bb8 <TIM6_DAC_IRQHandler+0x34>)
 8007baa:	f7ff fd3b 	bl	8007624 <LL_TIM_ClearFlag_UPDATE>
	}
}
 8007bae:	bf00      	nop
 8007bb0:	3708      	adds	r7, #8
 8007bb2:	46bd      	mov	sp, r7
 8007bb4:	bd80      	pop	{r7, pc}
 8007bb6:	bf00      	nop
 8007bb8:	40001000 	.word	0x40001000
 8007bbc:	20000034 	.word	0x20000034

08007bc0 <TIM7_IRQHandler>:

void TIM7_IRQHandler(void)
{
 8007bc0:	b580      	push	{r7, lr}
 8007bc2:	b082      	sub	sp, #8
 8007bc4:	af00      	add	r7, sp, #0
	if (LL_TIM_IsActiveFlag_UPDATE(TIM7))
 8007bc6:	480b      	ldr	r0, [pc, #44]	; (8007bf4 <TIM7_IRQHandler+0x34>)
 8007bc8:	f7ff fd3a 	bl	8007640 <LL_TIM_IsActiveFlag_UPDATE>
 8007bcc:	4603      	mov	r3, r0
 8007bce:	2b00      	cmp	r3, #0
 8007bd0:	d00b      	beq.n	8007bea <TIM7_IRQHandler+0x2a>
	{
		STRHAL_TIM_BasicTimer_t *tim = &_basicTims[STRHAL_TIM_TIM7];
 8007bd2:	4b09      	ldr	r3, [pc, #36]	; (8007bf8 <TIM7_IRQHandler+0x38>)
 8007bd4:	607b      	str	r3, [r7, #4]

		if (tim->burnie != NULL)
 8007bd6:	687b      	ldr	r3, [r7, #4]
 8007bd8:	689b      	ldr	r3, [r3, #8]
 8007bda:	2b00      	cmp	r3, #0
 8007bdc:	d002      	beq.n	8007be4 <TIM7_IRQHandler+0x24>
			tim->burnie();
 8007bde:	687b      	ldr	r3, [r7, #4]
 8007be0:	689b      	ldr	r3, [r3, #8]
 8007be2:	4798      	blx	r3

		LL_TIM_ClearFlag_UPDATE(TIM7);
 8007be4:	4803      	ldr	r0, [pc, #12]	; (8007bf4 <TIM7_IRQHandler+0x34>)
 8007be6:	f7ff fd1d 	bl	8007624 <LL_TIM_ClearFlag_UPDATE>
	}
}
 8007bea:	bf00      	nop
 8007bec:	3708      	adds	r7, #8
 8007bee:	46bd      	mov	sp, r7
 8007bf0:	bd80      	pop	{r7, pc}
 8007bf2:	bf00      	nop
 8007bf4:	40001400 	.word	0x40001400
 8007bf8:	20000040 	.word	0x20000040

08007bfc <__NVIC_GetPriorityGrouping>:
{
 8007bfc:	b480      	push	{r7}
 8007bfe:	af00      	add	r7, sp, #0
  return ((uint32_t)((SCB->AIRCR & SCB_AIRCR_PRIGROUP_Msk) >> SCB_AIRCR_PRIGROUP_Pos));
 8007c00:	4b04      	ldr	r3, [pc, #16]	; (8007c14 <__NVIC_GetPriorityGrouping+0x18>)
 8007c02:	68db      	ldr	r3, [r3, #12]
 8007c04:	0a1b      	lsrs	r3, r3, #8
 8007c06:	f003 0307 	and.w	r3, r3, #7
}
 8007c0a:	4618      	mov	r0, r3
 8007c0c:	46bd      	mov	sp, r7
 8007c0e:	f85d 7b04 	ldr.w	r7, [sp], #4
 8007c12:	4770      	bx	lr
 8007c14:	e000ed00 	.word	0xe000ed00

08007c18 <__NVIC_EnableIRQ>:
{
 8007c18:	b480      	push	{r7}
 8007c1a:	b083      	sub	sp, #12
 8007c1c:	af00      	add	r7, sp, #0
 8007c1e:	4603      	mov	r3, r0
 8007c20:	71fb      	strb	r3, [r7, #7]
  if ((int32_t)(IRQn) >= 0)
 8007c22:	f997 3007 	ldrsb.w	r3, [r7, #7]
 8007c26:	2b00      	cmp	r3, #0
 8007c28:	db0b      	blt.n	8007c42 <__NVIC_EnableIRQ+0x2a>
    NVIC->ISER[(((uint32_t)IRQn) >> 5UL)] = (uint32_t)(1UL << (((uint32_t)IRQn) & 0x1FUL));
 8007c2a:	79fb      	ldrb	r3, [r7, #7]
 8007c2c:	f003 021f 	and.w	r2, r3, #31
 8007c30:	4907      	ldr	r1, [pc, #28]	; (8007c50 <__NVIC_EnableIRQ+0x38>)
 8007c32:	f997 3007 	ldrsb.w	r3, [r7, #7]
 8007c36:	095b      	lsrs	r3, r3, #5
 8007c38:	2001      	movs	r0, #1
 8007c3a:	fa00 f202 	lsl.w	r2, r0, r2
 8007c3e:	f841 2023 	str.w	r2, [r1, r3, lsl #2]
}
 8007c42:	bf00      	nop
 8007c44:	370c      	adds	r7, #12
 8007c46:	46bd      	mov	sp, r7
 8007c48:	f85d 7b04 	ldr.w	r7, [sp], #4
 8007c4c:	4770      	bx	lr
 8007c4e:	bf00      	nop
 8007c50:	e000e100 	.word	0xe000e100

08007c54 <__NVIC_SetPriority>:
{
 8007c54:	b480      	push	{r7}
 8007c56:	b083      	sub	sp, #12
 8007c58:	af00      	add	r7, sp, #0
 8007c5a:	4603      	mov	r3, r0
 8007c5c:	6039      	str	r1, [r7, #0]
 8007c5e:	71fb      	strb	r3, [r7, #7]
  if ((int32_t)(IRQn) >= 0)
 8007c60:	f997 3007 	ldrsb.w	r3, [r7, #7]
 8007c64:	2b00      	cmp	r3, #0
 8007c66:	db0a      	blt.n	8007c7e <__NVIC_SetPriority+0x2a>
    NVIC->IP[((uint32_t)IRQn)]               = (uint8_t)((priority << (8U - __NVIC_PRIO_BITS)) & (uint32_t)0xFFUL);
 8007c68:	683b      	ldr	r3, [r7, #0]
 8007c6a:	b2da      	uxtb	r2, r3
 8007c6c:	490c      	ldr	r1, [pc, #48]	; (8007ca0 <__NVIC_SetPriority+0x4c>)
 8007c6e:	f997 3007 	ldrsb.w	r3, [r7, #7]
 8007c72:	0112      	lsls	r2, r2, #4
 8007c74:	b2d2      	uxtb	r2, r2
 8007c76:	440b      	add	r3, r1
 8007c78:	f883 2300 	strb.w	r2, [r3, #768]	; 0x300
}
 8007c7c:	e00a      	b.n	8007c94 <__NVIC_SetPriority+0x40>
    SCB->SHP[(((uint32_t)IRQn) & 0xFUL)-4UL] = (uint8_t)((priority << (8U - __NVIC_PRIO_BITS)) & (uint32_t)0xFFUL);
 8007c7e:	683b      	ldr	r3, [r7, #0]
 8007c80:	b2da      	uxtb	r2, r3
 8007c82:	4908      	ldr	r1, [pc, #32]	; (8007ca4 <__NVIC_SetPriority+0x50>)
 8007c84:	79fb      	ldrb	r3, [r7, #7]
 8007c86:	f003 030f 	and.w	r3, r3, #15
 8007c8a:	3b04      	subs	r3, #4
 8007c8c:	0112      	lsls	r2, r2, #4
 8007c8e:	b2d2      	uxtb	r2, r2
 8007c90:	440b      	add	r3, r1
 8007c92:	761a      	strb	r2, [r3, #24]
}
 8007c94:	bf00      	nop
 8007c96:	370c      	adds	r7, #12
 8007c98:	46bd      	mov	sp, r7
 8007c9a:	f85d 7b04 	ldr.w	r7, [sp], #4
 8007c9e:	4770      	bx	lr
 8007ca0:	e000e100 	.word	0xe000e100
 8007ca4:	e000ed00 	.word	0xe000ed00

08007ca8 <NVIC_EncodePriority>:
{
 8007ca8:	b480      	push	{r7}
 8007caa:	b089      	sub	sp, #36	; 0x24
 8007cac:	af00      	add	r7, sp, #0
 8007cae:	60f8      	str	r0, [r7, #12]
 8007cb0:	60b9      	str	r1, [r7, #8]
 8007cb2:	607a      	str	r2, [r7, #4]
  uint32_t PriorityGroupTmp = (PriorityGroup & (uint32_t)0x07UL);   /* only values 0..7 are used          */
 8007cb4:	68fb      	ldr	r3, [r7, #12]
 8007cb6:	f003 0307 	and.w	r3, r3, #7
 8007cba:	61fb      	str	r3, [r7, #28]
  PreemptPriorityBits = ((7UL - PriorityGroupTmp) > (uint32_t)(__NVIC_PRIO_BITS)) ? (uint32_t)(__NVIC_PRIO_BITS) : (uint32_t)(7UL - PriorityGroupTmp);
 8007cbc:	69fb      	ldr	r3, [r7, #28]
 8007cbe:	f1c3 0307 	rsb	r3, r3, #7
 8007cc2:	2b04      	cmp	r3, #4
 8007cc4:	bf28      	it	cs
 8007cc6:	2304      	movcs	r3, #4
 8007cc8:	61bb      	str	r3, [r7, #24]
  SubPriorityBits     = ((PriorityGroupTmp + (uint32_t)(__NVIC_PRIO_BITS)) < (uint32_t)7UL) ? (uint32_t)0UL : (uint32_t)((PriorityGroupTmp - 7UL) + (uint32_t)(__NVIC_PRIO_BITS));
 8007cca:	69fb      	ldr	r3, [r7, #28]
 8007ccc:	3304      	adds	r3, #4
 8007cce:	2b06      	cmp	r3, #6
 8007cd0:	d902      	bls.n	8007cd8 <NVIC_EncodePriority+0x30>
 8007cd2:	69fb      	ldr	r3, [r7, #28]
 8007cd4:	3b03      	subs	r3, #3
 8007cd6:	e000      	b.n	8007cda <NVIC_EncodePriority+0x32>
 8007cd8:	2300      	movs	r3, #0
 8007cda:	617b      	str	r3, [r7, #20]
           ((PreemptPriority & (uint32_t)((1UL << (PreemptPriorityBits)) - 1UL)) << SubPriorityBits) |
 8007cdc:	f04f 32ff 	mov.w	r2, #4294967295	; 0xffffffff
 8007ce0:	69bb      	ldr	r3, [r7, #24]
 8007ce2:	fa02 f303 	lsl.w	r3, r2, r3
 8007ce6:	43da      	mvns	r2, r3
 8007ce8:	68bb      	ldr	r3, [r7, #8]
 8007cea:	401a      	ands	r2, r3
 8007cec:	697b      	ldr	r3, [r7, #20]
 8007cee:	409a      	lsls	r2, r3
           ((SubPriority     & (uint32_t)((1UL << (SubPriorityBits    )) - 1UL)))
 8007cf0:	f04f 31ff 	mov.w	r1, #4294967295	; 0xffffffff
 8007cf4:	697b      	ldr	r3, [r7, #20]
 8007cf6:	fa01 f303 	lsl.w	r3, r1, r3
 8007cfa:	43d9      	mvns	r1, r3
 8007cfc:	687b      	ldr	r3, [r7, #4]
 8007cfe:	400b      	ands	r3, r1
           ((PreemptPriority & (uint32_t)((1UL << (PreemptPriorityBits)) - 1UL)) << SubPriorityBits) |
 8007d00:	4313      	orrs	r3, r2
}
 8007d02:	4618      	mov	r0, r3
 8007d04:	3724      	adds	r7, #36	; 0x24
 8007d06:	46bd      	mov	sp, r7
 8007d08:	f85d 7b04 	ldr.w	r7, [sp], #4
 8007d0c:	4770      	bx	lr
	...

08007d10 <LL_AHB1_GRP1_EnableClock>:
{
 8007d10:	b480      	push	{r7}
 8007d12:	b085      	sub	sp, #20
 8007d14:	af00      	add	r7, sp, #0
 8007d16:	6078      	str	r0, [r7, #4]
  SET_BIT(RCC->AHB1ENR, Periphs);
 8007d18:	4b08      	ldr	r3, [pc, #32]	; (8007d3c <LL_AHB1_GRP1_EnableClock+0x2c>)
 8007d1a:	6c9a      	ldr	r2, [r3, #72]	; 0x48
 8007d1c:	4907      	ldr	r1, [pc, #28]	; (8007d3c <LL_AHB1_GRP1_EnableClock+0x2c>)
 8007d1e:	687b      	ldr	r3, [r7, #4]
 8007d20:	4313      	orrs	r3, r2
 8007d22:	648b      	str	r3, [r1, #72]	; 0x48
  tmpreg = READ_BIT(RCC->AHB1ENR, Periphs);
 8007d24:	4b05      	ldr	r3, [pc, #20]	; (8007d3c <LL_AHB1_GRP1_EnableClock+0x2c>)
 8007d26:	6c9a      	ldr	r2, [r3, #72]	; 0x48
 8007d28:	687b      	ldr	r3, [r7, #4]
 8007d2a:	4013      	ands	r3, r2
 8007d2c:	60fb      	str	r3, [r7, #12]
  (void)tmpreg;
 8007d2e:	68fb      	ldr	r3, [r7, #12]
}
 8007d30:	bf00      	nop
 8007d32:	3714      	adds	r7, #20
 8007d34:	46bd      	mov	sp, r7
 8007d36:	f85d 7b04 	ldr.w	r7, [sp], #4
 8007d3a:	4770      	bx	lr
 8007d3c:	40021000 	.word	0x40021000

08007d40 <LL_AHB2_GRP1_EnableClock>:
{
 8007d40:	b480      	push	{r7}
 8007d42:	b085      	sub	sp, #20
 8007d44:	af00      	add	r7, sp, #0
 8007d46:	6078      	str	r0, [r7, #4]
  SET_BIT(RCC->AHB2ENR, Periphs);
 8007d48:	4b08      	ldr	r3, [pc, #32]	; (8007d6c <LL_AHB2_GRP1_EnableClock+0x2c>)
 8007d4a:	6cda      	ldr	r2, [r3, #76]	; 0x4c
 8007d4c:	4907      	ldr	r1, [pc, #28]	; (8007d6c <LL_AHB2_GRP1_EnableClock+0x2c>)
 8007d4e:	687b      	ldr	r3, [r7, #4]
 8007d50:	4313      	orrs	r3, r2
 8007d52:	64cb      	str	r3, [r1, #76]	; 0x4c
  tmpreg = READ_BIT(RCC->AHB2ENR, Periphs);
 8007d54:	4b05      	ldr	r3, [pc, #20]	; (8007d6c <LL_AHB2_GRP1_EnableClock+0x2c>)
 8007d56:	6cda      	ldr	r2, [r3, #76]	; 0x4c
 8007d58:	687b      	ldr	r3, [r7, #4]
 8007d5a:	4013      	ands	r3, r2
 8007d5c:	60fb      	str	r3, [r7, #12]
  (void)tmpreg;
 8007d5e:	68fb      	ldr	r3, [r7, #12]
}
 8007d60:	bf00      	nop
 8007d62:	3714      	adds	r7, #20
 8007d64:	46bd      	mov	sp, r7
 8007d66:	f85d 7b04 	ldr.w	r7, [sp], #4
 8007d6a:	4770      	bx	lr
 8007d6c:	40021000 	.word	0x40021000

08007d70 <LL_APB1_GRP1_EnableClock>:
{
 8007d70:	b480      	push	{r7}
 8007d72:	b085      	sub	sp, #20
 8007d74:	af00      	add	r7, sp, #0
 8007d76:	6078      	str	r0, [r7, #4]
  SET_BIT(RCC->APB1ENR1, Periphs);
 8007d78:	4b08      	ldr	r3, [pc, #32]	; (8007d9c <LL_APB1_GRP1_EnableClock+0x2c>)
 8007d7a:	6d9a      	ldr	r2, [r3, #88]	; 0x58
 8007d7c:	4907      	ldr	r1, [pc, #28]	; (8007d9c <LL_APB1_GRP1_EnableClock+0x2c>)
 8007d7e:	687b      	ldr	r3, [r7, #4]
 8007d80:	4313      	orrs	r3, r2
 8007d82:	658b      	str	r3, [r1, #88]	; 0x58
  tmpreg = READ_BIT(RCC->APB1ENR1, Periphs);
 8007d84:	4b05      	ldr	r3, [pc, #20]	; (8007d9c <LL_APB1_GRP1_EnableClock+0x2c>)
 8007d86:	6d9a      	ldr	r2, [r3, #88]	; 0x58
 8007d88:	687b      	ldr	r3, [r7, #4]
 8007d8a:	4013      	ands	r3, r2
 8007d8c:	60fb      	str	r3, [r7, #12]
  (void)tmpreg;
 8007d8e:	68fb      	ldr	r3, [r7, #12]
}
 8007d90:	bf00      	nop
 8007d92:	3714      	adds	r7, #20
 8007d94:	46bd      	mov	sp, r7
 8007d96:	f85d 7b04 	ldr.w	r7, [sp], #4
 8007d9a:	4770      	bx	lr
 8007d9c:	40021000 	.word	0x40021000

08007da0 <LL_DMA_EnableChannel>:
{
 8007da0:	b480      	push	{r7}
 8007da2:	b085      	sub	sp, #20
 8007da4:	af00      	add	r7, sp, #0
 8007da6:	6078      	str	r0, [r7, #4]
 8007da8:	6039      	str	r1, [r7, #0]
  uint32_t dma_base_addr = (uint32_t)DMAx;
 8007daa:	687b      	ldr	r3, [r7, #4]
 8007dac:	60fb      	str	r3, [r7, #12]
  SET_BIT(((DMA_Channel_TypeDef *)((uint32_t)(dma_base_addr + CHANNEL_OFFSET_TAB[Channel])))->CCR, DMA_CCR_EN);
 8007dae:	4a0c      	ldr	r2, [pc, #48]	; (8007de0 <LL_DMA_EnableChannel+0x40>)
 8007db0:	683b      	ldr	r3, [r7, #0]
 8007db2:	4413      	add	r3, r2
 8007db4:	781b      	ldrb	r3, [r3, #0]
 8007db6:	461a      	mov	r2, r3
 8007db8:	68fb      	ldr	r3, [r7, #12]
 8007dba:	4413      	add	r3, r2
 8007dbc:	681b      	ldr	r3, [r3, #0]
 8007dbe:	4908      	ldr	r1, [pc, #32]	; (8007de0 <LL_DMA_EnableChannel+0x40>)
 8007dc0:	683a      	ldr	r2, [r7, #0]
 8007dc2:	440a      	add	r2, r1
 8007dc4:	7812      	ldrb	r2, [r2, #0]
 8007dc6:	4611      	mov	r1, r2
 8007dc8:	68fa      	ldr	r2, [r7, #12]
 8007dca:	440a      	add	r2, r1
 8007dcc:	f043 0301 	orr.w	r3, r3, #1
 8007dd0:	6013      	str	r3, [r2, #0]
}
 8007dd2:	bf00      	nop
 8007dd4:	3714      	adds	r7, #20
 8007dd6:	46bd      	mov	sp, r7
 8007dd8:	f85d 7b04 	ldr.w	r7, [sp], #4
 8007ddc:	4770      	bx	lr
 8007dde:	bf00      	nop
 8007de0:	0800a068 	.word	0x0800a068

08007de4 <LL_DMA_DisableChannel>:
{
 8007de4:	b480      	push	{r7}
 8007de6:	b085      	sub	sp, #20
 8007de8:	af00      	add	r7, sp, #0
 8007dea:	6078      	str	r0, [r7, #4]
 8007dec:	6039      	str	r1, [r7, #0]
  uint32_t dma_base_addr = (uint32_t)DMAx;
 8007dee:	687b      	ldr	r3, [r7, #4]
 8007df0:	60fb      	str	r3, [r7, #12]
  CLEAR_BIT(((DMA_Channel_TypeDef *)((uint32_t)(dma_base_addr + CHANNEL_OFFSET_TAB[Channel])))->CCR, DMA_CCR_EN);
 8007df2:	4a0c      	ldr	r2, [pc, #48]	; (8007e24 <LL_DMA_DisableChannel+0x40>)
 8007df4:	683b      	ldr	r3, [r7, #0]
 8007df6:	4413      	add	r3, r2
 8007df8:	781b      	ldrb	r3, [r3, #0]
 8007dfa:	461a      	mov	r2, r3
 8007dfc:	68fb      	ldr	r3, [r7, #12]
 8007dfe:	4413      	add	r3, r2
 8007e00:	681b      	ldr	r3, [r3, #0]
 8007e02:	4908      	ldr	r1, [pc, #32]	; (8007e24 <LL_DMA_DisableChannel+0x40>)
 8007e04:	683a      	ldr	r2, [r7, #0]
 8007e06:	440a      	add	r2, r1
 8007e08:	7812      	ldrb	r2, [r2, #0]
 8007e0a:	4611      	mov	r1, r2
 8007e0c:	68fa      	ldr	r2, [r7, #12]
 8007e0e:	440a      	add	r2, r1
 8007e10:	f023 0301 	bic.w	r3, r3, #1
 8007e14:	6013      	str	r3, [r2, #0]
}
 8007e16:	bf00      	nop
 8007e18:	3714      	adds	r7, #20
 8007e1a:	46bd      	mov	sp, r7
 8007e1c:	f85d 7b04 	ldr.w	r7, [sp], #4
 8007e20:	4770      	bx	lr
 8007e22:	bf00      	nop
 8007e24:	0800a068 	.word	0x0800a068

08007e28 <LL_DMA_IsEnabledChannel>:
{
 8007e28:	b480      	push	{r7}
 8007e2a:	b085      	sub	sp, #20
 8007e2c:	af00      	add	r7, sp, #0
 8007e2e:	6078      	str	r0, [r7, #4]
 8007e30:	6039      	str	r1, [r7, #0]
  uint32_t dma_base_addr = (uint32_t)DMAx;
 8007e32:	687b      	ldr	r3, [r7, #4]
 8007e34:	60fb      	str	r3, [r7, #12]
  return ((READ_BIT(((DMA_Channel_TypeDef *)((uint32_t)(dma_base_addr + CHANNEL_OFFSET_TAB[Channel])))->CCR,
 8007e36:	4a0a      	ldr	r2, [pc, #40]	; (8007e60 <LL_DMA_IsEnabledChannel+0x38>)
 8007e38:	683b      	ldr	r3, [r7, #0]
 8007e3a:	4413      	add	r3, r2
 8007e3c:	781b      	ldrb	r3, [r3, #0]
 8007e3e:	461a      	mov	r2, r3
 8007e40:	68fb      	ldr	r3, [r7, #12]
 8007e42:	4413      	add	r3, r2
 8007e44:	681b      	ldr	r3, [r3, #0]
 8007e46:	f003 0301 	and.w	r3, r3, #1
                    DMA_CCR_EN) == (DMA_CCR_EN)) ? 1UL : 0UL);
 8007e4a:	2b01      	cmp	r3, #1
 8007e4c:	d101      	bne.n	8007e52 <LL_DMA_IsEnabledChannel+0x2a>
 8007e4e:	2301      	movs	r3, #1
 8007e50:	e000      	b.n	8007e54 <LL_DMA_IsEnabledChannel+0x2c>
 8007e52:	2300      	movs	r3, #0
}
 8007e54:	4618      	mov	r0, r3
 8007e56:	3714      	adds	r7, #20
 8007e58:	46bd      	mov	sp, r7
 8007e5a:	f85d 7b04 	ldr.w	r7, [sp], #4
 8007e5e:	4770      	bx	lr
 8007e60:	0800a068 	.word	0x0800a068

08007e64 <LL_DMA_SetDataLength>:
{
 8007e64:	b480      	push	{r7}
 8007e66:	b087      	sub	sp, #28
 8007e68:	af00      	add	r7, sp, #0
 8007e6a:	60f8      	str	r0, [r7, #12]
 8007e6c:	60b9      	str	r1, [r7, #8]
 8007e6e:	607a      	str	r2, [r7, #4]
  uint32_t dma_base_addr = (uint32_t)DMAx;
 8007e70:	68fb      	ldr	r3, [r7, #12]
 8007e72:	617b      	str	r3, [r7, #20]
  MODIFY_REG(((DMA_Channel_TypeDef *)((uint32_t)(dma_base_addr + CHANNEL_OFFSET_TAB[Channel])))->CNDTR,
 8007e74:	4a0d      	ldr	r2, [pc, #52]	; (8007eac <LL_DMA_SetDataLength+0x48>)
 8007e76:	68bb      	ldr	r3, [r7, #8]
 8007e78:	4413      	add	r3, r2
 8007e7a:	781b      	ldrb	r3, [r3, #0]
 8007e7c:	461a      	mov	r2, r3
 8007e7e:	697b      	ldr	r3, [r7, #20]
 8007e80:	4413      	add	r3, r2
 8007e82:	685b      	ldr	r3, [r3, #4]
 8007e84:	0c1b      	lsrs	r3, r3, #16
 8007e86:	041b      	lsls	r3, r3, #16
 8007e88:	4908      	ldr	r1, [pc, #32]	; (8007eac <LL_DMA_SetDataLength+0x48>)
 8007e8a:	68ba      	ldr	r2, [r7, #8]
 8007e8c:	440a      	add	r2, r1
 8007e8e:	7812      	ldrb	r2, [r2, #0]
 8007e90:	4611      	mov	r1, r2
 8007e92:	697a      	ldr	r2, [r7, #20]
 8007e94:	440a      	add	r2, r1
 8007e96:	4611      	mov	r1, r2
 8007e98:	687a      	ldr	r2, [r7, #4]
 8007e9a:	4313      	orrs	r3, r2
 8007e9c:	604b      	str	r3, [r1, #4]
}
 8007e9e:	bf00      	nop
 8007ea0:	371c      	adds	r7, #28
 8007ea2:	46bd      	mov	sp, r7
 8007ea4:	f85d 7b04 	ldr.w	r7, [sp], #4
 8007ea8:	4770      	bx	lr
 8007eaa:	bf00      	nop
 8007eac:	0800a068 	.word	0x0800a068

08007eb0 <LL_DMA_GetDataLength>:
{
 8007eb0:	b480      	push	{r7}
 8007eb2:	b085      	sub	sp, #20
 8007eb4:	af00      	add	r7, sp, #0
 8007eb6:	6078      	str	r0, [r7, #4]
 8007eb8:	6039      	str	r1, [r7, #0]
  uint32_t dma_base_addr = (uint32_t)DMAx;
 8007eba:	687b      	ldr	r3, [r7, #4]
 8007ebc:	60fb      	str	r3, [r7, #12]
  return (READ_BIT(((DMA_Channel_TypeDef *)((uint32_t)(dma_base_addr + CHANNEL_OFFSET_TAB[Channel])))->CNDTR,
 8007ebe:	4a07      	ldr	r2, [pc, #28]	; (8007edc <LL_DMA_GetDataLength+0x2c>)
 8007ec0:	683b      	ldr	r3, [r7, #0]
 8007ec2:	4413      	add	r3, r2
 8007ec4:	781b      	ldrb	r3, [r3, #0]
 8007ec6:	461a      	mov	r2, r3
 8007ec8:	68fb      	ldr	r3, [r7, #12]
 8007eca:	4413      	add	r3, r2
 8007ecc:	685b      	ldr	r3, [r3, #4]
 8007ece:	b29b      	uxth	r3, r3
}
 8007ed0:	4618      	mov	r0, r3
 8007ed2:	3714      	adds	r7, #20
 8007ed4:	46bd      	mov	sp, r7
 8007ed6:	f85d 7b04 	ldr.w	r7, [sp], #4
 8007eda:	4770      	bx	lr
 8007edc:	0800a068 	.word	0x0800a068

08007ee0 <LL_DMA_SetMemoryAddress>:
{
 8007ee0:	b480      	push	{r7}
 8007ee2:	b087      	sub	sp, #28
 8007ee4:	af00      	add	r7, sp, #0
 8007ee6:	60f8      	str	r0, [r7, #12]
 8007ee8:	60b9      	str	r1, [r7, #8]
 8007eea:	607a      	str	r2, [r7, #4]
  uint32_t dma_base_addr = (uint32_t)DMAx;
 8007eec:	68fb      	ldr	r3, [r7, #12]
 8007eee:	617b      	str	r3, [r7, #20]
  WRITE_REG(((DMA_Channel_TypeDef *)((uint32_t)(dma_base_addr + CHANNEL_OFFSET_TAB[Channel])))->CMAR, MemoryAddress);
 8007ef0:	4a07      	ldr	r2, [pc, #28]	; (8007f10 <LL_DMA_SetMemoryAddress+0x30>)
 8007ef2:	68bb      	ldr	r3, [r7, #8]
 8007ef4:	4413      	add	r3, r2
 8007ef6:	781b      	ldrb	r3, [r3, #0]
 8007ef8:	461a      	mov	r2, r3
 8007efa:	697b      	ldr	r3, [r7, #20]
 8007efc:	4413      	add	r3, r2
 8007efe:	461a      	mov	r2, r3
 8007f00:	687b      	ldr	r3, [r7, #4]
 8007f02:	60d3      	str	r3, [r2, #12]
}
 8007f04:	bf00      	nop
 8007f06:	371c      	adds	r7, #28
 8007f08:	46bd      	mov	sp, r7
 8007f0a:	f85d 7b04 	ldr.w	r7, [sp], #4
 8007f0e:	4770      	bx	lr
 8007f10:	0800a068 	.word	0x0800a068

08007f14 <LL_DMA_IsActiveFlag_TC1>:
  * @rmtoll ISR          TCIF1         LL_DMA_IsActiveFlag_TC1
  * @param  DMAx DMAx Instance
  * @retval State of bit (1 or 0).
  */
__STATIC_INLINE uint32_t LL_DMA_IsActiveFlag_TC1(DMA_TypeDef *DMAx)
{
 8007f14:	b480      	push	{r7}
 8007f16:	b083      	sub	sp, #12
 8007f18:	af00      	add	r7, sp, #0
 8007f1a:	6078      	str	r0, [r7, #4]
  return ((READ_BIT(DMAx->ISR, DMA_ISR_TCIF1) == (DMA_ISR_TCIF1)) ? 1UL : 0UL);
 8007f1c:	687b      	ldr	r3, [r7, #4]
 8007f1e:	681b      	ldr	r3, [r3, #0]
 8007f20:	f003 0302 	and.w	r3, r3, #2
 8007f24:	2b02      	cmp	r3, #2
 8007f26:	d101      	bne.n	8007f2c <LL_DMA_IsActiveFlag_TC1+0x18>
 8007f28:	2301      	movs	r3, #1
 8007f2a:	e000      	b.n	8007f2e <LL_DMA_IsActiveFlag_TC1+0x1a>
 8007f2c:	2300      	movs	r3, #0
}
 8007f2e:	4618      	mov	r0, r3
 8007f30:	370c      	adds	r7, #12
 8007f32:	46bd      	mov	sp, r7
 8007f34:	f85d 7b04 	ldr.w	r7, [sp], #4
 8007f38:	4770      	bx	lr

08007f3a <LL_DMA_IsActiveFlag_TC2>:
  * @rmtoll ISR          TCIF2         LL_DMA_IsActiveFlag_TC2
  * @param  DMAx DMAx Instance
  * @retval State of bit (1 or 0).
  */
__STATIC_INLINE uint32_t LL_DMA_IsActiveFlag_TC2(DMA_TypeDef *DMAx)
{
 8007f3a:	b480      	push	{r7}
 8007f3c:	b083      	sub	sp, #12
 8007f3e:	af00      	add	r7, sp, #0
 8007f40:	6078      	str	r0, [r7, #4]
  return ((READ_BIT(DMAx->ISR, DMA_ISR_TCIF2) == (DMA_ISR_TCIF2)) ? 1UL : 0UL);
 8007f42:	687b      	ldr	r3, [r7, #4]
 8007f44:	681b      	ldr	r3, [r3, #0]
 8007f46:	f003 0320 	and.w	r3, r3, #32
 8007f4a:	2b20      	cmp	r3, #32
 8007f4c:	d101      	bne.n	8007f52 <LL_DMA_IsActiveFlag_TC2+0x18>
 8007f4e:	2301      	movs	r3, #1
 8007f50:	e000      	b.n	8007f54 <LL_DMA_IsActiveFlag_TC2+0x1a>
 8007f52:	2300      	movs	r3, #0
}
 8007f54:	4618      	mov	r0, r3
 8007f56:	370c      	adds	r7, #12
 8007f58:	46bd      	mov	sp, r7
 8007f5a:	f85d 7b04 	ldr.w	r7, [sp], #4
 8007f5e:	4770      	bx	lr

08007f60 <LL_DMA_IsActiveFlag_TE1>:
  * @rmtoll ISR          TEIF1         LL_DMA_IsActiveFlag_TE1
  * @param  DMAx DMAx Instance
  * @retval State of bit (1 or 0).
  */
__STATIC_INLINE uint32_t LL_DMA_IsActiveFlag_TE1(DMA_TypeDef *DMAx)
{
 8007f60:	b480      	push	{r7}
 8007f62:	b083      	sub	sp, #12
 8007f64:	af00      	add	r7, sp, #0
 8007f66:	6078      	str	r0, [r7, #4]
  return ((READ_BIT(DMAx->ISR, DMA_ISR_TEIF1) == (DMA_ISR_TEIF1)) ? 1UL : 0UL);
 8007f68:	687b      	ldr	r3, [r7, #4]
 8007f6a:	681b      	ldr	r3, [r3, #0]
 8007f6c:	f003 0308 	and.w	r3, r3, #8
 8007f70:	2b08      	cmp	r3, #8
 8007f72:	d101      	bne.n	8007f78 <LL_DMA_IsActiveFlag_TE1+0x18>
 8007f74:	2301      	movs	r3, #1
 8007f76:	e000      	b.n	8007f7a <LL_DMA_IsActiveFlag_TE1+0x1a>
 8007f78:	2300      	movs	r3, #0
}
 8007f7a:	4618      	mov	r0, r3
 8007f7c:	370c      	adds	r7, #12
 8007f7e:	46bd      	mov	sp, r7
 8007f80:	f85d 7b04 	ldr.w	r7, [sp], #4
 8007f84:	4770      	bx	lr

08007f86 <LL_DMA_IsActiveFlag_TE2>:
  * @rmtoll ISR          TEIF2         LL_DMA_IsActiveFlag_TE2
  * @param  DMAx DMAx Instance
  * @retval State of bit (1 or 0).
  */
__STATIC_INLINE uint32_t LL_DMA_IsActiveFlag_TE2(DMA_TypeDef *DMAx)
{
 8007f86:	b480      	push	{r7}
 8007f88:	b083      	sub	sp, #12
 8007f8a:	af00      	add	r7, sp, #0
 8007f8c:	6078      	str	r0, [r7, #4]
  return ((READ_BIT(DMAx->ISR, DMA_ISR_TEIF2) == (DMA_ISR_TEIF2)) ? 1UL : 0UL);
 8007f8e:	687b      	ldr	r3, [r7, #4]
 8007f90:	681b      	ldr	r3, [r3, #0]
 8007f92:	f003 0380 	and.w	r3, r3, #128	; 0x80
 8007f96:	2b80      	cmp	r3, #128	; 0x80
 8007f98:	d101      	bne.n	8007f9e <LL_DMA_IsActiveFlag_TE2+0x18>
 8007f9a:	2301      	movs	r3, #1
 8007f9c:	e000      	b.n	8007fa0 <LL_DMA_IsActiveFlag_TE2+0x1a>
 8007f9e:	2300      	movs	r3, #0
}
 8007fa0:	4618      	mov	r0, r3
 8007fa2:	370c      	adds	r7, #12
 8007fa4:	46bd      	mov	sp, r7
 8007fa6:	f85d 7b04 	ldr.w	r7, [sp], #4
 8007faa:	4770      	bx	lr

08007fac <LL_DMA_ClearFlag_TC1>:
  * @rmtoll IFCR         CTCIF1        LL_DMA_ClearFlag_TC1
  * @param  DMAx DMAx Instance
  * @retval None
  */
__STATIC_INLINE void LL_DMA_ClearFlag_TC1(DMA_TypeDef *DMAx)
{
 8007fac:	b480      	push	{r7}
 8007fae:	b083      	sub	sp, #12
 8007fb0:	af00      	add	r7, sp, #0
 8007fb2:	6078      	str	r0, [r7, #4]
  WRITE_REG(DMAx->IFCR, DMA_IFCR_CTCIF1);
 8007fb4:	687b      	ldr	r3, [r7, #4]
 8007fb6:	2202      	movs	r2, #2
 8007fb8:	605a      	str	r2, [r3, #4]
}
 8007fba:	bf00      	nop
 8007fbc:	370c      	adds	r7, #12
 8007fbe:	46bd      	mov	sp, r7
 8007fc0:	f85d 7b04 	ldr.w	r7, [sp], #4
 8007fc4:	4770      	bx	lr

08007fc6 <LL_DMA_ClearFlag_TC2>:
  * @rmtoll IFCR         CTCIF2        LL_DMA_ClearFlag_TC2
  * @param  DMAx DMAx Instance
  * @retval None
  */
__STATIC_INLINE void LL_DMA_ClearFlag_TC2(DMA_TypeDef *DMAx)
{
 8007fc6:	b480      	push	{r7}
 8007fc8:	b083      	sub	sp, #12
 8007fca:	af00      	add	r7, sp, #0
 8007fcc:	6078      	str	r0, [r7, #4]
  WRITE_REG(DMAx->IFCR, DMA_IFCR_CTCIF2);
 8007fce:	687b      	ldr	r3, [r7, #4]
 8007fd0:	2220      	movs	r2, #32
 8007fd2:	605a      	str	r2, [r3, #4]
}
 8007fd4:	bf00      	nop
 8007fd6:	370c      	adds	r7, #12
 8007fd8:	46bd      	mov	sp, r7
 8007fda:	f85d 7b04 	ldr.w	r7, [sp], #4
 8007fde:	4770      	bx	lr

08007fe0 <LL_DMA_ClearFlag_TC4>:
  * @rmtoll IFCR         CTCIF4        LL_DMA_ClearFlag_TC4
  * @param  DMAx DMAx Instance
  * @retval None
  */
__STATIC_INLINE void LL_DMA_ClearFlag_TC4(DMA_TypeDef *DMAx)
{
 8007fe0:	b480      	push	{r7}
 8007fe2:	b083      	sub	sp, #12
 8007fe4:	af00      	add	r7, sp, #0
 8007fe6:	6078      	str	r0, [r7, #4]
  WRITE_REG(DMAx->IFCR, DMA_IFCR_CTCIF4);
 8007fe8:	687b      	ldr	r3, [r7, #4]
 8007fea:	f44f 5200 	mov.w	r2, #8192	; 0x2000
 8007fee:	605a      	str	r2, [r3, #4]
}
 8007ff0:	bf00      	nop
 8007ff2:	370c      	adds	r7, #12
 8007ff4:	46bd      	mov	sp, r7
 8007ff6:	f85d 7b04 	ldr.w	r7, [sp], #4
 8007ffa:	4770      	bx	lr

08007ffc <LL_DMA_ClearFlag_TE1>:
  * @rmtoll IFCR         CTEIF1        LL_DMA_ClearFlag_TE1
  * @param  DMAx DMAx Instance
  * @retval None
  */
__STATIC_INLINE void LL_DMA_ClearFlag_TE1(DMA_TypeDef *DMAx)
{
 8007ffc:	b480      	push	{r7}
 8007ffe:	b083      	sub	sp, #12
 8008000:	af00      	add	r7, sp, #0
 8008002:	6078      	str	r0, [r7, #4]
  WRITE_REG(DMAx->IFCR, DMA_IFCR_CTEIF1);
 8008004:	687b      	ldr	r3, [r7, #4]
 8008006:	2208      	movs	r2, #8
 8008008:	605a      	str	r2, [r3, #4]
}
 800800a:	bf00      	nop
 800800c:	370c      	adds	r7, #12
 800800e:	46bd      	mov	sp, r7
 8008010:	f85d 7b04 	ldr.w	r7, [sp], #4
 8008014:	4770      	bx	lr

08008016 <LL_DMA_ClearFlag_TE2>:
  * @rmtoll IFCR         CTEIF2        LL_DMA_ClearFlag_TE2
  * @param  DMAx DMAx Instance
  * @retval None
  */
__STATIC_INLINE void LL_DMA_ClearFlag_TE2(DMA_TypeDef *DMAx)
{
 8008016:	b480      	push	{r7}
 8008018:	b083      	sub	sp, #12
 800801a:	af00      	add	r7, sp, #0
 800801c:	6078      	str	r0, [r7, #4]
  WRITE_REG(DMAx->IFCR, DMA_IFCR_CTEIF2);
 800801e:	687b      	ldr	r3, [r7, #4]
 8008020:	2280      	movs	r2, #128	; 0x80
 8008022:	605a      	str	r2, [r3, #4]
}
 8008024:	bf00      	nop
 8008026:	370c      	adds	r7, #12
 8008028:	46bd      	mov	sp, r7
 800802a:	f85d 7b04 	ldr.w	r7, [sp], #4
 800802e:	4770      	bx	lr

08008030 <LL_DMA_ClearFlag_TE4>:
  * @rmtoll IFCR         CTEIF4        LL_DMA_ClearFlag_TE4
  * @param  DMAx DMAx Instance
  * @retval None
  */
__STATIC_INLINE void LL_DMA_ClearFlag_TE4(DMA_TypeDef *DMAx)
{
 8008030:	b480      	push	{r7}
 8008032:	b083      	sub	sp, #12
 8008034:	af00      	add	r7, sp, #0
 8008036:	6078      	str	r0, [r7, #4]
  WRITE_REG(DMAx->IFCR, DMA_IFCR_CTEIF4);
 8008038:	687b      	ldr	r3, [r7, #4]
 800803a:	f44f 4200 	mov.w	r2, #32768	; 0x8000
 800803e:	605a      	str	r2, [r3, #4]
}
 8008040:	bf00      	nop
 8008042:	370c      	adds	r7, #12
 8008044:	46bd      	mov	sp, r7
 8008046:	f85d 7b04 	ldr.w	r7, [sp], #4
 800804a:	4770      	bx	lr

0800804c <LL_DMA_EnableIT_TC>:
  *         @arg @ref LL_DMA_CHANNEL_8 (*)
  *         (*) Not on all G4 devices
  * @retval None
  */
__STATIC_INLINE void LL_DMA_EnableIT_TC(DMA_TypeDef *DMAx, uint32_t Channel)
{
 800804c:	b480      	push	{r7}
 800804e:	b085      	sub	sp, #20
 8008050:	af00      	add	r7, sp, #0
 8008052:	6078      	str	r0, [r7, #4]
 8008054:	6039      	str	r1, [r7, #0]
  uint32_t dma_base_addr = (uint32_t)DMAx;
 8008056:	687b      	ldr	r3, [r7, #4]
 8008058:	60fb      	str	r3, [r7, #12]
  SET_BIT(((DMA_Channel_TypeDef *)((uint32_t)(dma_base_addr + CHANNEL_OFFSET_TAB[Channel])))->CCR, DMA_CCR_TCIE);
 800805a:	4a0c      	ldr	r2, [pc, #48]	; (800808c <LL_DMA_EnableIT_TC+0x40>)
 800805c:	683b      	ldr	r3, [r7, #0]
 800805e:	4413      	add	r3, r2
 8008060:	781b      	ldrb	r3, [r3, #0]
 8008062:	461a      	mov	r2, r3
 8008064:	68fb      	ldr	r3, [r7, #12]
 8008066:	4413      	add	r3, r2
 8008068:	681b      	ldr	r3, [r3, #0]
 800806a:	4908      	ldr	r1, [pc, #32]	; (800808c <LL_DMA_EnableIT_TC+0x40>)
 800806c:	683a      	ldr	r2, [r7, #0]
 800806e:	440a      	add	r2, r1
 8008070:	7812      	ldrb	r2, [r2, #0]
 8008072:	4611      	mov	r1, r2
 8008074:	68fa      	ldr	r2, [r7, #12]
 8008076:	440a      	add	r2, r1
 8008078:	f043 0302 	orr.w	r3, r3, #2
 800807c:	6013      	str	r3, [r2, #0]
}
 800807e:	bf00      	nop
 8008080:	3714      	adds	r7, #20
 8008082:	46bd      	mov	sp, r7
 8008084:	f85d 7b04 	ldr.w	r7, [sp], #4
 8008088:	4770      	bx	lr
 800808a:	bf00      	nop
 800808c:	0800a068 	.word	0x0800a068

08008090 <LL_DMA_EnableIT_TE>:
  *         @arg @ref LL_DMA_CHANNEL_8 (*)
  *         (*) Not on all G4 devices
  * @retval None
  */
__STATIC_INLINE void LL_DMA_EnableIT_TE(DMA_TypeDef *DMAx, uint32_t Channel)
{
 8008090:	b480      	push	{r7}
 8008092:	b085      	sub	sp, #20
 8008094:	af00      	add	r7, sp, #0
 8008096:	6078      	str	r0, [r7, #4]
 8008098:	6039      	str	r1, [r7, #0]
  uint32_t dma_base_addr = (uint32_t)DMAx;
 800809a:	687b      	ldr	r3, [r7, #4]
 800809c:	60fb      	str	r3, [r7, #12]
  SET_BIT(((DMA_Channel_TypeDef *)((uint32_t)(dma_base_addr + CHANNEL_OFFSET_TAB[Channel])))->CCR, DMA_CCR_TEIE);
 800809e:	4a0c      	ldr	r2, [pc, #48]	; (80080d0 <LL_DMA_EnableIT_TE+0x40>)
 80080a0:	683b      	ldr	r3, [r7, #0]
 80080a2:	4413      	add	r3, r2
 80080a4:	781b      	ldrb	r3, [r3, #0]
 80080a6:	461a      	mov	r2, r3
 80080a8:	68fb      	ldr	r3, [r7, #12]
 80080aa:	4413      	add	r3, r2
 80080ac:	681b      	ldr	r3, [r3, #0]
 80080ae:	4908      	ldr	r1, [pc, #32]	; (80080d0 <LL_DMA_EnableIT_TE+0x40>)
 80080b0:	683a      	ldr	r2, [r7, #0]
 80080b2:	440a      	add	r2, r1
 80080b4:	7812      	ldrb	r2, [r2, #0]
 80080b6:	4611      	mov	r1, r2
 80080b8:	68fa      	ldr	r2, [r7, #12]
 80080ba:	440a      	add	r2, r1
 80080bc:	f043 0308 	orr.w	r3, r3, #8
 80080c0:	6013      	str	r3, [r2, #0]
}
 80080c2:	bf00      	nop
 80080c4:	3714      	adds	r7, #20
 80080c6:	46bd      	mov	sp, r7
 80080c8:	f85d 7b04 	ldr.w	r7, [sp], #4
 80080cc:	4770      	bx	lr
 80080ce:	bf00      	nop
 80080d0:	0800a068 	.word	0x0800a068

080080d4 <LL_DMA_IsEnabledIT_TC>:
  *         @arg @ref LL_DMA_CHANNEL_8 (*)
  *         (*) Not on all G4 devices
  * @retval State of bit (1 or 0).
  */
__STATIC_INLINE uint32_t LL_DMA_IsEnabledIT_TC(DMA_TypeDef *DMAx, uint32_t Channel)
{
 80080d4:	b480      	push	{r7}
 80080d6:	b085      	sub	sp, #20
 80080d8:	af00      	add	r7, sp, #0
 80080da:	6078      	str	r0, [r7, #4]
 80080dc:	6039      	str	r1, [r7, #0]
  uint32_t dma_base_addr = (uint32_t)DMAx;
 80080de:	687b      	ldr	r3, [r7, #4]
 80080e0:	60fb      	str	r3, [r7, #12]
  return ((READ_BIT(((DMA_Channel_TypeDef *)((uint32_t)(dma_base_addr + CHANNEL_OFFSET_TAB[Channel])))->CCR,
 80080e2:	4a0a      	ldr	r2, [pc, #40]	; (800810c <LL_DMA_IsEnabledIT_TC+0x38>)
 80080e4:	683b      	ldr	r3, [r7, #0]
 80080e6:	4413      	add	r3, r2
 80080e8:	781b      	ldrb	r3, [r3, #0]
 80080ea:	461a      	mov	r2, r3
 80080ec:	68fb      	ldr	r3, [r7, #12]
 80080ee:	4413      	add	r3, r2
 80080f0:	681b      	ldr	r3, [r3, #0]
 80080f2:	f003 0302 	and.w	r3, r3, #2
                    DMA_CCR_TCIE) == (DMA_CCR_TCIE)) ? 1UL : 0UL);
 80080f6:	2b02      	cmp	r3, #2
 80080f8:	d101      	bne.n	80080fe <LL_DMA_IsEnabledIT_TC+0x2a>
 80080fa:	2301      	movs	r3, #1
 80080fc:	e000      	b.n	8008100 <LL_DMA_IsEnabledIT_TC+0x2c>
 80080fe:	2300      	movs	r3, #0
}
 8008100:	4618      	mov	r0, r3
 8008102:	3714      	adds	r7, #20
 8008104:	46bd      	mov	sp, r7
 8008106:	f85d 7b04 	ldr.w	r7, [sp], #4
 800810a:	4770      	bx	lr
 800810c:	0800a068 	.word	0x0800a068

08008110 <LL_DMA_IsEnabledIT_TE>:
  *         @arg @ref LL_DMA_CHANNEL_8 (*)
  *         (*) Not on all G4 devices
  * @retval State of bit (1 or 0).
  */
__STATIC_INLINE uint32_t LL_DMA_IsEnabledIT_TE(DMA_TypeDef *DMAx, uint32_t Channel)
{
 8008110:	b480      	push	{r7}
 8008112:	b085      	sub	sp, #20
 8008114:	af00      	add	r7, sp, #0
 8008116:	6078      	str	r0, [r7, #4]
 8008118:	6039      	str	r1, [r7, #0]
  uint32_t dma_base_addr = (uint32_t)DMAx;
 800811a:	687b      	ldr	r3, [r7, #4]
 800811c:	60fb      	str	r3, [r7, #12]
  return ((READ_BIT(((DMA_Channel_TypeDef *)((uint32_t)(dma_base_addr + CHANNEL_OFFSET_TAB[Channel])))->CCR,
 800811e:	4a0a      	ldr	r2, [pc, #40]	; (8008148 <LL_DMA_IsEnabledIT_TE+0x38>)
 8008120:	683b      	ldr	r3, [r7, #0]
 8008122:	4413      	add	r3, r2
 8008124:	781b      	ldrb	r3, [r3, #0]
 8008126:	461a      	mov	r2, r3
 8008128:	68fb      	ldr	r3, [r7, #12]
 800812a:	4413      	add	r3, r2
 800812c:	681b      	ldr	r3, [r3, #0]
 800812e:	f003 0308 	and.w	r3, r3, #8
                    DMA_CCR_TEIE) == (DMA_CCR_TEIE)) ? 1UL : 0UL);
 8008132:	2b08      	cmp	r3, #8
 8008134:	d101      	bne.n	800813a <LL_DMA_IsEnabledIT_TE+0x2a>
 8008136:	2301      	movs	r3, #1
 8008138:	e000      	b.n	800813c <LL_DMA_IsEnabledIT_TE+0x2c>
 800813a:	2300      	movs	r3, #0
}
 800813c:	4618      	mov	r0, r3
 800813e:	3714      	adds	r7, #20
 8008140:	46bd      	mov	sp, r7
 8008142:	f85d 7b04 	ldr.w	r7, [sp], #4
 8008146:	4770      	bx	lr
 8008148:	0800a068 	.word	0x0800a068

0800814c <LL_USART_Enable>:
{
 800814c:	b480      	push	{r7}
 800814e:	b083      	sub	sp, #12
 8008150:	af00      	add	r7, sp, #0
 8008152:	6078      	str	r0, [r7, #4]
  SET_BIT(USARTx->CR1, USART_CR1_UE);
 8008154:	687b      	ldr	r3, [r7, #4]
 8008156:	681b      	ldr	r3, [r3, #0]
 8008158:	f043 0201 	orr.w	r2, r3, #1
 800815c:	687b      	ldr	r3, [r7, #4]
 800815e:	601a      	str	r2, [r3, #0]
}
 8008160:	bf00      	nop
 8008162:	370c      	adds	r7, #12
 8008164:	46bd      	mov	sp, r7
 8008166:	f85d 7b04 	ldr.w	r7, [sp], #4
 800816a:	4770      	bx	lr

0800816c <LL_USART_Disable>:
{
 800816c:	b480      	push	{r7}
 800816e:	b083      	sub	sp, #12
 8008170:	af00      	add	r7, sp, #0
 8008172:	6078      	str	r0, [r7, #4]
  CLEAR_BIT(USARTx->CR1, USART_CR1_UE);
 8008174:	687b      	ldr	r3, [r7, #4]
 8008176:	681b      	ldr	r3, [r3, #0]
 8008178:	f023 0201 	bic.w	r2, r3, #1
 800817c:	687b      	ldr	r3, [r7, #4]
 800817e:	601a      	str	r2, [r3, #0]
}
 8008180:	bf00      	nop
 8008182:	370c      	adds	r7, #12
 8008184:	46bd      	mov	sp, r7
 8008186:	f85d 7b04 	ldr.w	r7, [sp], #4
 800818a:	4770      	bx	lr

0800818c <LL_USART_DisableFIFO>:
{
 800818c:	b480      	push	{r7}
 800818e:	b083      	sub	sp, #12
 8008190:	af00      	add	r7, sp, #0
 8008192:	6078      	str	r0, [r7, #4]
  CLEAR_BIT(USARTx->CR1, USART_CR1_FIFOEN);
 8008194:	687b      	ldr	r3, [r7, #4]
 8008196:	681b      	ldr	r3, [r3, #0]
 8008198:	f023 5200 	bic.w	r2, r3, #536870912	; 0x20000000
 800819c:	687b      	ldr	r3, [r7, #4]
 800819e:	601a      	str	r2, [r3, #0]
}
 80081a0:	bf00      	nop
 80081a2:	370c      	adds	r7, #12
 80081a4:	46bd      	mov	sp, r7
 80081a6:	f85d 7b04 	ldr.w	r7, [sp], #4
 80081aa:	4770      	bx	lr

080081ac <LL_USART_SetTXFIFOThreshold>:
{
 80081ac:	b480      	push	{r7}
 80081ae:	b089      	sub	sp, #36	; 0x24
 80081b0:	af00      	add	r7, sp, #0
 80081b2:	6078      	str	r0, [r7, #4]
 80081b4:	6039      	str	r1, [r7, #0]
  ATOMIC_MODIFY_REG(USARTx->CR3, USART_CR3_TXFTCFG, Threshold << USART_CR3_TXFTCFG_Pos);
 80081b6:	687b      	ldr	r3, [r7, #4]
 80081b8:	3308      	adds	r3, #8
 80081ba:	60fb      	str	r3, [r7, #12]
 */
__STATIC_FORCEINLINE uint32_t __LDREXW(volatile uint32_t *addr)
{
    uint32_t result;

   __ASM volatile ("ldrex %0, %1" : "=r" (result) : "Q" (*addr) );
 80081bc:	68fb      	ldr	r3, [r7, #12]
 80081be:	e853 3f00 	ldrex	r3, [r3]
 80081c2:	60bb      	str	r3, [r7, #8]
   return(result);
 80081c4:	68bb      	ldr	r3, [r7, #8]
 80081c6:	f023 4260 	bic.w	r2, r3, #3758096384	; 0xe0000000
 80081ca:	683b      	ldr	r3, [r7, #0]
 80081cc:	075b      	lsls	r3, r3, #29
 80081ce:	4313      	orrs	r3, r2
 80081d0:	61fb      	str	r3, [r7, #28]
 80081d2:	687b      	ldr	r3, [r7, #4]
 80081d4:	3308      	adds	r3, #8
 80081d6:	69fa      	ldr	r2, [r7, #28]
 80081d8:	61ba      	str	r2, [r7, #24]
 80081da:	617b      	str	r3, [r7, #20]
 */
__STATIC_FORCEINLINE uint32_t __STREXW(uint32_t value, volatile uint32_t *addr)
{
   uint32_t result;

   __ASM volatile ("strex %0, %2, %1" : "=&r" (result), "=Q" (*addr) : "r" (value) );
 80081dc:	6979      	ldr	r1, [r7, #20]
 80081de:	69ba      	ldr	r2, [r7, #24]
 80081e0:	e841 2300 	strex	r3, r2, [r1]
 80081e4:	613b      	str	r3, [r7, #16]
   return(result);
 80081e6:	693b      	ldr	r3, [r7, #16]
 80081e8:	2b00      	cmp	r3, #0
 80081ea:	d1e4      	bne.n	80081b6 <LL_USART_SetTXFIFOThreshold+0xa>
}
 80081ec:	bf00      	nop
 80081ee:	bf00      	nop
 80081f0:	3724      	adds	r7, #36	; 0x24
 80081f2:	46bd      	mov	sp, r7
 80081f4:	f85d 7b04 	ldr.w	r7, [sp], #4
 80081f8:	4770      	bx	lr

080081fa <LL_USART_SetRXFIFOThreshold>:
{
 80081fa:	b480      	push	{r7}
 80081fc:	b089      	sub	sp, #36	; 0x24
 80081fe:	af00      	add	r7, sp, #0
 8008200:	6078      	str	r0, [r7, #4]
 8008202:	6039      	str	r1, [r7, #0]
  ATOMIC_MODIFY_REG(USARTx->CR3, USART_CR3_RXFTCFG, Threshold << USART_CR3_RXFTCFG_Pos);
 8008204:	687b      	ldr	r3, [r7, #4]
 8008206:	3308      	adds	r3, #8
 8008208:	60fb      	str	r3, [r7, #12]
   __ASM volatile ("ldrex %0, %1" : "=r" (result) : "Q" (*addr) );
 800820a:	68fb      	ldr	r3, [r7, #12]
 800820c:	e853 3f00 	ldrex	r3, [r3]
 8008210:	60bb      	str	r3, [r7, #8]
   return(result);
 8008212:	68bb      	ldr	r3, [r7, #8]
 8008214:	f023 6260 	bic.w	r2, r3, #234881024	; 0xe000000
 8008218:	683b      	ldr	r3, [r7, #0]
 800821a:	065b      	lsls	r3, r3, #25
 800821c:	4313      	orrs	r3, r2
 800821e:	61fb      	str	r3, [r7, #28]
 8008220:	687b      	ldr	r3, [r7, #4]
 8008222:	3308      	adds	r3, #8
 8008224:	69fa      	ldr	r2, [r7, #28]
 8008226:	61ba      	str	r2, [r7, #24]
 8008228:	617b      	str	r3, [r7, #20]
   __ASM volatile ("strex %0, %2, %1" : "=&r" (result), "=Q" (*addr) : "r" (value) );
 800822a:	6979      	ldr	r1, [r7, #20]
 800822c:	69ba      	ldr	r2, [r7, #24]
 800822e:	e841 2300 	strex	r3, r2, [r1]
 8008232:	613b      	str	r3, [r7, #16]
   return(result);
 8008234:	693b      	ldr	r3, [r7, #16]
 8008236:	2b00      	cmp	r3, #0
 8008238:	d1e4      	bne.n	8008204 <LL_USART_SetRXFIFOThreshold+0xa>
}
 800823a:	bf00      	nop
 800823c:	bf00      	nop
 800823e:	3724      	adds	r7, #36	; 0x24
 8008240:	46bd      	mov	sp, r7
 8008242:	f85d 7b04 	ldr.w	r7, [sp], #4
 8008246:	4770      	bx	lr

08008248 <LL_USART_EnableDirectionRx>:
{
 8008248:	b480      	push	{r7}
 800824a:	b089      	sub	sp, #36	; 0x24
 800824c:	af00      	add	r7, sp, #0
 800824e:	6078      	str	r0, [r7, #4]
  ATOMIC_SET_BIT(USARTx->CR1, USART_CR1_RE);
 8008250:	687b      	ldr	r3, [r7, #4]
 8008252:	60fb      	str	r3, [r7, #12]
   __ASM volatile ("ldrex %0, %1" : "=r" (result) : "Q" (*addr) );
 8008254:	68fb      	ldr	r3, [r7, #12]
 8008256:	e853 3f00 	ldrex	r3, [r3]
 800825a:	60bb      	str	r3, [r7, #8]
   return(result);
 800825c:	68bb      	ldr	r3, [r7, #8]
 800825e:	f043 0304 	orr.w	r3, r3, #4
 8008262:	61fb      	str	r3, [r7, #28]
 8008264:	687b      	ldr	r3, [r7, #4]
 8008266:	69fa      	ldr	r2, [r7, #28]
 8008268:	61ba      	str	r2, [r7, #24]
 800826a:	617b      	str	r3, [r7, #20]
   __ASM volatile ("strex %0, %2, %1" : "=&r" (result), "=Q" (*addr) : "r" (value) );
 800826c:	6979      	ldr	r1, [r7, #20]
 800826e:	69ba      	ldr	r2, [r7, #24]
 8008270:	e841 2300 	strex	r3, r2, [r1]
 8008274:	613b      	str	r3, [r7, #16]
   return(result);
 8008276:	693b      	ldr	r3, [r7, #16]
 8008278:	2b00      	cmp	r3, #0
 800827a:	d1e9      	bne.n	8008250 <LL_USART_EnableDirectionRx+0x8>
}
 800827c:	bf00      	nop
 800827e:	bf00      	nop
 8008280:	3724      	adds	r7, #36	; 0x24
 8008282:	46bd      	mov	sp, r7
 8008284:	f85d 7b04 	ldr.w	r7, [sp], #4
 8008288:	4770      	bx	lr

0800828a <LL_USART_EnableDirectionTx>:
{
 800828a:	b480      	push	{r7}
 800828c:	b089      	sub	sp, #36	; 0x24
 800828e:	af00      	add	r7, sp, #0
 8008290:	6078      	str	r0, [r7, #4]
  ATOMIC_SET_BIT(USARTx->CR1, USART_CR1_TE);
 8008292:	687b      	ldr	r3, [r7, #4]
 8008294:	60fb      	str	r3, [r7, #12]
   __ASM volatile ("ldrex %0, %1" : "=r" (result) : "Q" (*addr) );
 8008296:	68fb      	ldr	r3, [r7, #12]
 8008298:	e853 3f00 	ldrex	r3, [r3]
 800829c:	60bb      	str	r3, [r7, #8]
   return(result);
 800829e:	68bb      	ldr	r3, [r7, #8]
 80082a0:	f043 0308 	orr.w	r3, r3, #8
 80082a4:	61fb      	str	r3, [r7, #28]
 80082a6:	687b      	ldr	r3, [r7, #4]
 80082a8:	69fa      	ldr	r2, [r7, #28]
 80082aa:	61ba      	str	r2, [r7, #24]
 80082ac:	617b      	str	r3, [r7, #20]
   __ASM volatile ("strex %0, %2, %1" : "=&r" (result), "=Q" (*addr) : "r" (value) );
 80082ae:	6979      	ldr	r1, [r7, #20]
 80082b0:	69ba      	ldr	r2, [r7, #24]
 80082b2:	e841 2300 	strex	r3, r2, [r1]
 80082b6:	613b      	str	r3, [r7, #16]
   return(result);
 80082b8:	693b      	ldr	r3, [r7, #16]
 80082ba:	2b00      	cmp	r3, #0
 80082bc:	d1e9      	bne.n	8008292 <LL_USART_EnableDirectionTx+0x8>
}
 80082be:	bf00      	nop
 80082c0:	bf00      	nop
 80082c2:	3724      	adds	r7, #36	; 0x24
 80082c4:	46bd      	mov	sp, r7
 80082c6:	f85d 7b04 	ldr.w	r7, [sp], #4
 80082ca:	4770      	bx	lr

080082cc <LL_USART_SetTXRXSwap>:
{
 80082cc:	b480      	push	{r7}
 80082ce:	b083      	sub	sp, #12
 80082d0:	af00      	add	r7, sp, #0
 80082d2:	6078      	str	r0, [r7, #4]
 80082d4:	6039      	str	r1, [r7, #0]
  MODIFY_REG(USARTx->CR2, USART_CR2_SWAP, SwapConfig);
 80082d6:	687b      	ldr	r3, [r7, #4]
 80082d8:	685b      	ldr	r3, [r3, #4]
 80082da:	f423 4200 	bic.w	r2, r3, #32768	; 0x8000
 80082de:	683b      	ldr	r3, [r7, #0]
 80082e0:	431a      	orrs	r2, r3
 80082e2:	687b      	ldr	r3, [r7, #4]
 80082e4:	605a      	str	r2, [r3, #4]
}
 80082e6:	bf00      	nop
 80082e8:	370c      	adds	r7, #12
 80082ea:	46bd      	mov	sp, r7
 80082ec:	f85d 7b04 	ldr.w	r7, [sp], #4
 80082f0:	4770      	bx	lr

080082f2 <LL_USART_ConfigAsyncMode>:
  *         CR3          HDSEL         LL_USART_ConfigAsyncMode
  * @param  USARTx USART Instance
  * @retval None
  */
__STATIC_INLINE void LL_USART_ConfigAsyncMode(USART_TypeDef *USARTx)
{
 80082f2:	b480      	push	{r7}
 80082f4:	b083      	sub	sp, #12
 80082f6:	af00      	add	r7, sp, #0
 80082f8:	6078      	str	r0, [r7, #4]
  /* In Asynchronous mode, the following bits must be kept cleared:
  - LINEN, CLKEN bits in the USART_CR2 register,
  - SCEN, IREN and HDSEL bits in the USART_CR3 register.
  */
  CLEAR_BIT(USARTx->CR2, (USART_CR2_LINEN | USART_CR2_CLKEN));
 80082fa:	687b      	ldr	r3, [r7, #4]
 80082fc:	685b      	ldr	r3, [r3, #4]
 80082fe:	f423 4290 	bic.w	r2, r3, #18432	; 0x4800
 8008302:	687b      	ldr	r3, [r7, #4]
 8008304:	605a      	str	r2, [r3, #4]
  CLEAR_BIT(USARTx->CR3, (USART_CR3_SCEN | USART_CR3_IREN | USART_CR3_HDSEL));
 8008306:	687b      	ldr	r3, [r7, #4]
 8008308:	689b      	ldr	r3, [r3, #8]
 800830a:	f023 022a 	bic.w	r2, r3, #42	; 0x2a
 800830e:	687b      	ldr	r3, [r7, #4]
 8008310:	609a      	str	r2, [r3, #8]
}
 8008312:	bf00      	nop
 8008314:	370c      	adds	r7, #12
 8008316:	46bd      	mov	sp, r7
 8008318:	f85d 7b04 	ldr.w	r7, [sp], #4
 800831c:	4770      	bx	lr

0800831e <LL_USART_IsActiveFlag_TC>:
  * @rmtoll ISR          TC            LL_USART_IsActiveFlag_TC
  * @param  USARTx USART Instance
  * @retval State of bit (1 or 0).
  */
__STATIC_INLINE uint32_t LL_USART_IsActiveFlag_TC(USART_TypeDef *USARTx)
{
 800831e:	b480      	push	{r7}
 8008320:	b083      	sub	sp, #12
 8008322:	af00      	add	r7, sp, #0
 8008324:	6078      	str	r0, [r7, #4]
  return ((READ_BIT(USARTx->ISR, USART_ISR_TC) == (USART_ISR_TC)) ? 1UL : 0UL);
 8008326:	687b      	ldr	r3, [r7, #4]
 8008328:	69db      	ldr	r3, [r3, #28]
 800832a:	f003 0340 	and.w	r3, r3, #64	; 0x40
 800832e:	2b40      	cmp	r3, #64	; 0x40
 8008330:	d101      	bne.n	8008336 <LL_USART_IsActiveFlag_TC+0x18>
 8008332:	2301      	movs	r3, #1
 8008334:	e000      	b.n	8008338 <LL_USART_IsActiveFlag_TC+0x1a>
 8008336:	2300      	movs	r3, #0
}
 8008338:	4618      	mov	r0, r3
 800833a:	370c      	adds	r7, #12
 800833c:	46bd      	mov	sp, r7
 800833e:	f85d 7b04 	ldr.w	r7, [sp], #4
 8008342:	4770      	bx	lr

08008344 <LL_USART_IsActiveFlag_TXE_TXFNF>:
  * @rmtoll ISR          TXE_TXFNF     LL_USART_IsActiveFlag_TXE_TXFNF
  * @param  USARTx USART Instance
  * @retval State of bit (1 or 0).
  */
__STATIC_INLINE uint32_t LL_USART_IsActiveFlag_TXE_TXFNF(USART_TypeDef *USARTx)
{
 8008344:	b480      	push	{r7}
 8008346:	b083      	sub	sp, #12
 8008348:	af00      	add	r7, sp, #0
 800834a:	6078      	str	r0, [r7, #4]
  return ((READ_BIT(USARTx->ISR, USART_ISR_TXE_TXFNF) == (USART_ISR_TXE_TXFNF)) ? 1UL : 0UL);
 800834c:	687b      	ldr	r3, [r7, #4]
 800834e:	69db      	ldr	r3, [r3, #28]
 8008350:	f003 0380 	and.w	r3, r3, #128	; 0x80
 8008354:	2b80      	cmp	r3, #128	; 0x80
 8008356:	d101      	bne.n	800835c <LL_USART_IsActiveFlag_TXE_TXFNF+0x18>
 8008358:	2301      	movs	r3, #1
 800835a:	e000      	b.n	800835e <LL_USART_IsActiveFlag_TXE_TXFNF+0x1a>
 800835c:	2300      	movs	r3, #0
}
 800835e:	4618      	mov	r0, r3
 8008360:	370c      	adds	r7, #12
 8008362:	46bd      	mov	sp, r7
 8008364:	f85d 7b04 	ldr.w	r7, [sp], #4
 8008368:	4770      	bx	lr

0800836a <LL_USART_EnableDMAReq_RX>:
  * @rmtoll CR3          DMAR          LL_USART_EnableDMAReq_RX
  * @param  USARTx USART Instance
  * @retval None
  */
__STATIC_INLINE void LL_USART_EnableDMAReq_RX(USART_TypeDef *USARTx)
{
 800836a:	b480      	push	{r7}
 800836c:	b089      	sub	sp, #36	; 0x24
 800836e:	af00      	add	r7, sp, #0
 8008370:	6078      	str	r0, [r7, #4]
  ATOMIC_SET_BIT(USARTx->CR3, USART_CR3_DMAR);
 8008372:	687b      	ldr	r3, [r7, #4]
 8008374:	3308      	adds	r3, #8
 8008376:	60fb      	str	r3, [r7, #12]
   __ASM volatile ("ldrex %0, %1" : "=r" (result) : "Q" (*addr) );
 8008378:	68fb      	ldr	r3, [r7, #12]
 800837a:	e853 3f00 	ldrex	r3, [r3]
 800837e:	60bb      	str	r3, [r7, #8]
   return(result);
 8008380:	68bb      	ldr	r3, [r7, #8]
 8008382:	f043 0340 	orr.w	r3, r3, #64	; 0x40
 8008386:	61fb      	str	r3, [r7, #28]
 8008388:	687b      	ldr	r3, [r7, #4]
 800838a:	3308      	adds	r3, #8
 800838c:	69fa      	ldr	r2, [r7, #28]
 800838e:	61ba      	str	r2, [r7, #24]
 8008390:	617b      	str	r3, [r7, #20]
   __ASM volatile ("strex %0, %2, %1" : "=&r" (result), "=Q" (*addr) : "r" (value) );
 8008392:	6979      	ldr	r1, [r7, #20]
 8008394:	69ba      	ldr	r2, [r7, #24]
 8008396:	e841 2300 	strex	r3, r2, [r1]
 800839a:	613b      	str	r3, [r7, #16]
   return(result);
 800839c:	693b      	ldr	r3, [r7, #16]
 800839e:	2b00      	cmp	r3, #0
 80083a0:	d1e7      	bne.n	8008372 <LL_USART_EnableDMAReq_RX+0x8>
}
 80083a2:	bf00      	nop
 80083a4:	bf00      	nop
 80083a6:	3724      	adds	r7, #36	; 0x24
 80083a8:	46bd      	mov	sp, r7
 80083aa:	f85d 7b04 	ldr.w	r7, [sp], #4
 80083ae:	4770      	bx	lr

080083b0 <LL_USART_EnableDMAReq_TX>:
  * @rmtoll CR3          DMAT          LL_USART_EnableDMAReq_TX
  * @param  USARTx USART Instance
  * @retval None
  */
__STATIC_INLINE void LL_USART_EnableDMAReq_TX(USART_TypeDef *USARTx)
{
 80083b0:	b480      	push	{r7}
 80083b2:	b089      	sub	sp, #36	; 0x24
 80083b4:	af00      	add	r7, sp, #0
 80083b6:	6078      	str	r0, [r7, #4]
  ATOMIC_SET_BIT(USARTx->CR3, USART_CR3_DMAT);
 80083b8:	687b      	ldr	r3, [r7, #4]
 80083ba:	3308      	adds	r3, #8
 80083bc:	60fb      	str	r3, [r7, #12]
   __ASM volatile ("ldrex %0, %1" : "=r" (result) : "Q" (*addr) );
 80083be:	68fb      	ldr	r3, [r7, #12]
 80083c0:	e853 3f00 	ldrex	r3, [r3]
 80083c4:	60bb      	str	r3, [r7, #8]
   return(result);
 80083c6:	68bb      	ldr	r3, [r7, #8]
 80083c8:	f043 0380 	orr.w	r3, r3, #128	; 0x80
 80083cc:	61fb      	str	r3, [r7, #28]
 80083ce:	687b      	ldr	r3, [r7, #4]
 80083d0:	3308      	adds	r3, #8
 80083d2:	69fa      	ldr	r2, [r7, #28]
 80083d4:	61ba      	str	r2, [r7, #24]
 80083d6:	617b      	str	r3, [r7, #20]
   __ASM volatile ("strex %0, %2, %1" : "=&r" (result), "=Q" (*addr) : "r" (value) );
 80083d8:	6979      	ldr	r1, [r7, #20]
 80083da:	69ba      	ldr	r2, [r7, #24]
 80083dc:	e841 2300 	strex	r3, r2, [r1]
 80083e0:	613b      	str	r3, [r7, #16]
   return(result);
 80083e2:	693b      	ldr	r3, [r7, #16]
 80083e4:	2b00      	cmp	r3, #0
 80083e6:	d1e7      	bne.n	80083b8 <LL_USART_EnableDMAReq_TX+0x8>
}
 80083e8:	bf00      	nop
 80083ea:	bf00      	nop
 80083ec:	3724      	adds	r7, #36	; 0x24
 80083ee:	46bd      	mov	sp, r7
 80083f0:	f85d 7b04 	ldr.w	r7, [sp], #4
 80083f4:	4770      	bx	lr
	...

080083f8 <STRHAL_UART_Init>:
//{ .uart = USART3, .dma_rx_channel = LL_DMA_CHANNEL_1, .dma_tx_channel = LL_DMA_CHANNEL_2, .dma_rx_request = LL_DMAMUX_REQ_USART3_RX, .dma_tx_request = LL_DMAMUX_REQ_USART3_TX, .it_rx_handler = DMA1_Channel3_IRQn, .it_tx_handler = DMA1_Channel4_IRQn, .baud_rate = 115200, .swap = 0 },
[STRHAL_UART4] =
{ .uart = UART4, .dma_rx_channel = LL_DMA_CHANNEL_1, .dma_tx_channel = LL_DMA_CHANNEL_2, .dma_rx_request = LL_DMAMUX_REQ_UART4_RX, .dma_tx_request = LL_DMAMUX_REQ_UART4_TX, .it_rx_handler = DMA1_Channel3_IRQn, .it_tx_handler = DMA1_Channel4_IRQn, .baud_rate = 115200, .swap = 0 } };

void STRHAL_UART_Init()
{
 80083f8:	b580      	push	{r7, lr}
 80083fa:	b086      	sub	sp, #24
 80083fc:	af00      	add	r7, sp, #0
	//LL_APB2_GRP1_EnableClock(LL_APB2_GRP1_PERIPH_USART3);
	LL_APB1_GRP1_EnableClock(LL_APB1_GRP1_PERIPH_UART4);
 80083fe:	f44f 2000 	mov.w	r0, #524288	; 0x80000
 8008402:	f7ff fcb5 	bl	8007d70 <LL_APB1_GRP1_EnableClock>
	//LL_AHB2_GRP1_EnableClock(LL_AHB2_GRP1_PERIPH_GPIOB);
	LL_AHB2_GRP1_EnableClock(LL_AHB2_GRP1_PERIPH_GPIOC);
 8008406:	2004      	movs	r0, #4
 8008408:	f7ff fc9a 	bl	8007d40 <LL_AHB2_GRP1_EnableClock>
	LL_AHB1_GRP1_EnableClock(LL_AHB1_GRP1_PERIPH_DMAMUX1);
 800840c:	2004      	movs	r0, #4
 800840e:	f7ff fc7f 	bl	8007d10 <LL_AHB1_GRP1_EnableClock>
	LL_AHB1_GRP1_EnableClock(LL_AHB1_GRP1_PERIPH_DMA1);
 8008412:	2001      	movs	r0, #1
 8008414:	f7ff fc7c 	bl	8007d10 <LL_AHB1_GRP1_EnableClock>

	LL_GPIO_InitTypeDef GPIO_InitStruct =
 8008418:	463b      	mov	r3, r7
 800841a:	2200      	movs	r2, #0
 800841c:	601a      	str	r2, [r3, #0]
 800841e:	605a      	str	r2, [r3, #4]
 8008420:	609a      	str	r2, [r3, #8]
 8008422:	60da      	str	r2, [r3, #12]
 8008424:	611a      	str	r2, [r3, #16]
 8008426:	615a      	str	r2, [r3, #20]
	{ 0 };
	GPIO_InitStruct.Pin = LL_GPIO_PIN_10 | LL_GPIO_PIN_11;
 8008428:	f44f 6340 	mov.w	r3, #3072	; 0xc00
 800842c:	603b      	str	r3, [r7, #0]
	GPIO_InitStruct.Mode = LL_GPIO_MODE_ALTERNATE;
 800842e:	2302      	movs	r3, #2
 8008430:	607b      	str	r3, [r7, #4]
	GPIO_InitStruct.Speed = LL_GPIO_SPEED_FREQ_HIGH;
 8008432:	2302      	movs	r3, #2
 8008434:	60bb      	str	r3, [r7, #8]
	GPIO_InitStruct.OutputType = LL_GPIO_OUTPUT_PUSHPULL;
 8008436:	2300      	movs	r3, #0
 8008438:	60fb      	str	r3, [r7, #12]
	GPIO_InitStruct.Pull = LL_GPIO_PULL_UP;
 800843a:	2301      	movs	r3, #1
 800843c:	613b      	str	r3, [r7, #16]
	GPIO_InitStruct.Alternate = LL_GPIO_AF_5;
 800843e:	2305      	movs	r3, #5
 8008440:	617b      	str	r3, [r7, #20]
	LL_GPIO_Init(GPIOC, &GPIO_InitStruct);
 8008442:	463b      	mov	r3, r7
 8008444:	4619      	mov	r1, r3
 8008446:	4803      	ldr	r0, [pc, #12]	; (8008454 <STRHAL_UART_Init+0x5c>)
 8008448:	f7fa ff51 	bl	80032ee <LL_GPIO_Init>

//	GPIO_InitStruct.Pin = LL_GPIO_PIN_3 | LL_GPIO_PIN_4;
//	LL_GPIO_Init(GPIOB, &GPIO_InitStruct);
}
 800844c:	bf00      	nop
 800844e:	3718      	adds	r7, #24
 8008450:	46bd      	mov	sp, r7
 8008452:	bd80      	pop	{r7, pc}
 8008454:	48000800 	.word	0x48000800

08008458 <STRHAL_UART_Instance_Init>:

int STRHAL_UART_Instance_Init(STRHAL_UART_Id_t uart_id)
{
 8008458:	b590      	push	{r4, r7, lr}
 800845a:	b097      	sub	sp, #92	; 0x5c
 800845c:	af00      	add	r7, sp, #0
 800845e:	4603      	mov	r3, r0
 8008460:	71fb      	strb	r3, [r7, #7]
	if (uart_id < 0 || uart_id >= STRHAL_N_UART)
 8008462:	79fb      	ldrb	r3, [r7, #7]
 8008464:	2b02      	cmp	r3, #2
 8008466:	d902      	bls.n	800846e <STRHAL_UART_Instance_Init+0x16>
		return -1;
 8008468:	f04f 33ff 	mov.w	r3, #4294967295	; 0xffffffff
 800846c:	e126      	b.n	80086bc <STRHAL_UART_Instance_Init+0x264>

	STRHAL_UART_Handle_t *_uart = &_uarts[uart_id];
 800846e:	79fb      	ldrb	r3, [r7, #7]
 8008470:	f44f 720e 	mov.w	r2, #568	; 0x238
 8008474:	fb02 f303 	mul.w	r3, r2, r3
 8008478:	4a92      	ldr	r2, [pc, #584]	; (80086c4 <STRHAL_UART_Instance_Init+0x26c>)
 800847a:	4413      	add	r3, r2
 800847c:	657b      	str	r3, [r7, #84]	; 0x54

	LL_USART_Disable(_uart->uart);
 800847e:	6d7b      	ldr	r3, [r7, #84]	; 0x54
 8008480:	681b      	ldr	r3, [r3, #0]
 8008482:	4618      	mov	r0, r3
 8008484:	f7ff fe72 	bl	800816c <LL_USART_Disable>

	LL_USART_InitTypeDef UART_InitStruct =
 8008488:	f107 0334 	add.w	r3, r7, #52	; 0x34
 800848c:	2220      	movs	r2, #32
 800848e:	2100      	movs	r1, #0
 8008490:	4618      	mov	r0, r3
 8008492:	f000 fbeb 	bl	8008c6c <memset>
	{ 0 };
	UART_InitStruct.DataWidth = LL_USART_DATAWIDTH_8B;
 8008496:	2300      	movs	r3, #0
 8008498:	63fb      	str	r3, [r7, #60]	; 0x3c
	UART_InitStruct.StopBits = LL_USART_STOPBITS_1;
 800849a:	2300      	movs	r3, #0
 800849c:	643b      	str	r3, [r7, #64]	; 0x40
	UART_InitStruct.Parity = LL_USART_PARITY_NONE;
 800849e:	2300      	movs	r3, #0
 80084a0:	647b      	str	r3, [r7, #68]	; 0x44
	UART_InitStruct.TransferDirection = LL_USART_DIRECTION_TX_RX;
 80084a2:	230c      	movs	r3, #12
 80084a4:	64bb      	str	r3, [r7, #72]	; 0x48
	UART_InitStruct.HardwareFlowControl = LL_USART_HWCONTROL_NONE;
 80084a6:	2300      	movs	r3, #0
 80084a8:	64fb      	str	r3, [r7, #76]	; 0x4c
	UART_InitStruct.BaudRate = _uart->baud_rate;
 80084aa:	6d7b      	ldr	r3, [r7, #84]	; 0x54
 80084ac:	f8d3 3230 	ldr.w	r3, [r3, #560]	; 0x230
 80084b0:	63bb      	str	r3, [r7, #56]	; 0x38
	UART_InitStruct.PrescalerValue = LL_USART_PRESCALER_DIV1;
 80084b2:	2300      	movs	r3, #0
 80084b4:	637b      	str	r3, [r7, #52]	; 0x34
	UART_InitStruct.OverSampling = LL_USART_OVERSAMPLING_16;
 80084b6:	2300      	movs	r3, #0
 80084b8:	653b      	str	r3, [r7, #80]	; 0x50
	LL_USART_Init(_uart->uart, &UART_InitStruct);
 80084ba:	6d7b      	ldr	r3, [r7, #84]	; 0x54
 80084bc:	681b      	ldr	r3, [r3, #0]
 80084be:	f107 0234 	add.w	r2, r7, #52	; 0x34
 80084c2:	4611      	mov	r1, r2
 80084c4:	4618      	mov	r0, r3
 80084c6:	f7fb ffef 	bl	80044a8 <LL_USART_Init>

	LL_USART_SetTXFIFOThreshold(_uart->uart, LL_USART_FIFOTHRESHOLD_1_8);
 80084ca:	6d7b      	ldr	r3, [r7, #84]	; 0x54
 80084cc:	681b      	ldr	r3, [r3, #0]
 80084ce:	2100      	movs	r1, #0
 80084d0:	4618      	mov	r0, r3
 80084d2:	f7ff fe6b 	bl	80081ac <LL_USART_SetTXFIFOThreshold>
	LL_USART_SetRXFIFOThreshold(_uart->uart, LL_USART_FIFOTHRESHOLD_1_8);
 80084d6:	6d7b      	ldr	r3, [r7, #84]	; 0x54
 80084d8:	681b      	ldr	r3, [r3, #0]
 80084da:	2100      	movs	r1, #0
 80084dc:	4618      	mov	r0, r3
 80084de:	f7ff fe8c 	bl	80081fa <LL_USART_SetRXFIFOThreshold>
	LL_USART_DisableFIFO(_uart->uart);
 80084e2:	6d7b      	ldr	r3, [r7, #84]	; 0x54
 80084e4:	681b      	ldr	r3, [r3, #0]
 80084e6:	4618      	mov	r0, r3
 80084e8:	f7ff fe50 	bl	800818c <LL_USART_DisableFIFO>
	LL_USART_ConfigAsyncMode(_uart->uart);
 80084ec:	6d7b      	ldr	r3, [r7, #84]	; 0x54
 80084ee:	681b      	ldr	r3, [r3, #0]
 80084f0:	4618      	mov	r0, r3
 80084f2:	f7ff fefe 	bl	80082f2 <LL_USART_ConfigAsyncMode>
	if (_uart->swap)
 80084f6:	6d7b      	ldr	r3, [r7, #84]	; 0x54
 80084f8:	f893 3234 	ldrb.w	r3, [r3, #564]	; 0x234
 80084fc:	2b00      	cmp	r3, #0
 80084fe:	d006      	beq.n	800850e <STRHAL_UART_Instance_Init+0xb6>
		LL_USART_SetTXRXSwap(_uart->uart, LL_USART_TXRX_SWAPPED);
 8008500:	6d7b      	ldr	r3, [r7, #84]	; 0x54
 8008502:	681b      	ldr	r3, [r3, #0]
 8008504:	f44f 4100 	mov.w	r1, #32768	; 0x8000
 8008508:	4618      	mov	r0, r3
 800850a:	f7ff fedf 	bl	80082cc <LL_USART_SetTXRXSwap>

	LL_DMA_InitTypeDef DMA_InitStruct =
 800850e:	f107 0308 	add.w	r3, r7, #8
 8008512:	222c      	movs	r2, #44	; 0x2c
 8008514:	2100      	movs	r1, #0
 8008516:	4618      	mov	r0, r3
 8008518:	f000 fba8 	bl	8008c6c <memset>
	{ 0 };

	DMA_InitStruct.Direction = LL_DMA_DIRECTION_PERIPH_TO_MEMORY;
 800851c:	2300      	movs	r3, #0
 800851e:	613b      	str	r3, [r7, #16]
	DMA_InitStruct.MemoryOrM2MDstAddress = (uint32_t) _uart->rx_buf.data;
 8008520:	6d7b      	ldr	r3, [r7, #84]	; 0x54
 8008522:	f503 7384 	add.w	r3, r3, #264	; 0x108
 8008526:	60fb      	str	r3, [r7, #12]
	DMA_InitStruct.MemoryOrM2MDstDataSize = LL_DMA_MDATAALIGN_BYTE;
 8008528:	2300      	movs	r3, #0
 800852a:	627b      	str	r3, [r7, #36]	; 0x24
	DMA_InitStruct.MemoryOrM2MDstIncMode = LL_DMA_MEMORY_INCREMENT;
 800852c:	2380      	movs	r3, #128	; 0x80
 800852e:	61fb      	str	r3, [r7, #28]
	DMA_InitStruct.Mode = LL_DMA_MODE_CIRCULAR;
 8008530:	2320      	movs	r3, #32
 8008532:	617b      	str	r3, [r7, #20]
	DMA_InitStruct.NbData = STRHAL_UART_BUF_SIZE;
 8008534:	f44f 7380 	mov.w	r3, #256	; 0x100
 8008538:	62bb      	str	r3, [r7, #40]	; 0x28
	DMA_InitStruct.PeriphOrM2MSrcAddress = (uint32_t) &(_uart->uart->RDR);
 800853a:	6d7b      	ldr	r3, [r7, #84]	; 0x54
 800853c:	681b      	ldr	r3, [r3, #0]
 800853e:	3324      	adds	r3, #36	; 0x24
 8008540:	60bb      	str	r3, [r7, #8]
	DMA_InitStruct.PeriphOrM2MSrcDataSize = (uint32_t) LL_DMA_PDATAALIGN_BYTE;
 8008542:	2300      	movs	r3, #0
 8008544:	623b      	str	r3, [r7, #32]
	DMA_InitStruct.PeriphOrM2MSrcIncMode = LL_DMA_MEMORY_NOINCREMENT;
 8008546:	2300      	movs	r3, #0
 8008548:	61bb      	str	r3, [r7, #24]
	DMA_InitStruct.PeriphRequest = _uart->dma_rx_request;
 800854a:	6d7b      	ldr	r3, [r7, #84]	; 0x54
 800854c:	f8d3 3220 	ldr.w	r3, [r3, #544]	; 0x220
 8008550:	62fb      	str	r3, [r7, #44]	; 0x2c
	DMA_InitStruct.Priority = LL_DMA_PRIORITY_HIGH;
 8008552:	f44f 5300 	mov.w	r3, #8192	; 0x2000
 8008556:	633b      	str	r3, [r7, #48]	; 0x30

	LL_DMA_Init(DMA1, _uart->dma_rx_channel, &DMA_InitStruct);
 8008558:	6d7b      	ldr	r3, [r7, #84]	; 0x54
 800855a:	f8d3 3218 	ldr.w	r3, [r3, #536]	; 0x218
 800855e:	f107 0208 	add.w	r2, r7, #8
 8008562:	4619      	mov	r1, r3
 8008564:	4858      	ldr	r0, [pc, #352]	; (80086c8 <STRHAL_UART_Instance_Init+0x270>)
 8008566:	f7fa fd37 	bl	8002fd8 <LL_DMA_Init>

	LL_USART_EnableDMAReq_RX(_uart->uart);
 800856a:	6d7b      	ldr	r3, [r7, #84]	; 0x54
 800856c:	681b      	ldr	r3, [r3, #0]
 800856e:	4618      	mov	r0, r3
 8008570:	f7ff fefb 	bl	800836a <LL_USART_EnableDMAReq_RX>

	LL_DMA_EnableIT_TC(DMA1, _uart->dma_rx_channel);
 8008574:	6d7b      	ldr	r3, [r7, #84]	; 0x54
 8008576:	f8d3 3218 	ldr.w	r3, [r3, #536]	; 0x218
 800857a:	4619      	mov	r1, r3
 800857c:	4852      	ldr	r0, [pc, #328]	; (80086c8 <STRHAL_UART_Instance_Init+0x270>)
 800857e:	f7ff fd65 	bl	800804c <LL_DMA_EnableIT_TC>
	LL_DMA_EnableIT_TE(DMA1, _uart->dma_rx_channel);
 8008582:	6d7b      	ldr	r3, [r7, #84]	; 0x54
 8008584:	f8d3 3218 	ldr.w	r3, [r3, #536]	; 0x218
 8008588:	4619      	mov	r1, r3
 800858a:	484f      	ldr	r0, [pc, #316]	; (80086c8 <STRHAL_UART_Instance_Init+0x270>)
 800858c:	f7ff fd80 	bl	8008090 <LL_DMA_EnableIT_TE>

	NVIC_SetPriority(_uart->it_rx_handler, NVIC_EncodePriority(NVIC_GetPriorityGrouping(), 1, 1));
 8008590:	6d7b      	ldr	r3, [r7, #84]	; 0x54
 8008592:	f8d3 3228 	ldr.w	r3, [r3, #552]	; 0x228
 8008596:	b25c      	sxtb	r4, r3
 8008598:	f7ff fb30 	bl	8007bfc <__NVIC_GetPriorityGrouping>
 800859c:	4603      	mov	r3, r0
 800859e:	2201      	movs	r2, #1
 80085a0:	2101      	movs	r1, #1
 80085a2:	4618      	mov	r0, r3
 80085a4:	f7ff fb80 	bl	8007ca8 <NVIC_EncodePriority>
 80085a8:	4603      	mov	r3, r0
 80085aa:	4619      	mov	r1, r3
 80085ac:	4620      	mov	r0, r4
 80085ae:	f7ff fb51 	bl	8007c54 <__NVIC_SetPriority>
	NVIC_EnableIRQ(_uart->it_rx_handler);
 80085b2:	6d7b      	ldr	r3, [r7, #84]	; 0x54
 80085b4:	f8d3 3228 	ldr.w	r3, [r3, #552]	; 0x228
 80085b8:	b25b      	sxtb	r3, r3
 80085ba:	4618      	mov	r0, r3
 80085bc:	f7ff fb2c 	bl	8007c18 <__NVIC_EnableIRQ>

	/*DMA configuration for TX */
	DMA_InitStruct.Direction = LL_DMA_DIRECTION_MEMORY_TO_PERIPH;
 80085c0:	2310      	movs	r3, #16
 80085c2:	613b      	str	r3, [r7, #16]
	DMA_InitStruct.MemoryOrM2MDstAddress = (uint32_t) _uart->tx_buf.data;
 80085c4:	6d7b      	ldr	r3, [r7, #84]	; 0x54
 80085c6:	3304      	adds	r3, #4
 80085c8:	60fb      	str	r3, [r7, #12]
	DMA_InitStruct.MemoryOrM2MDstDataSize = LL_DMA_MDATAALIGN_BYTE;
 80085ca:	2300      	movs	r3, #0
 80085cc:	627b      	str	r3, [r7, #36]	; 0x24
	DMA_InitStruct.MemoryOrM2MDstIncMode = LL_DMA_MEMORY_INCREMENT;
 80085ce:	2380      	movs	r3, #128	; 0x80
 80085d0:	61fb      	str	r3, [r7, #28]
	DMA_InitStruct.Mode = LL_DMA_MODE_NORMAL;
 80085d2:	2300      	movs	r3, #0
 80085d4:	617b      	str	r3, [r7, #20]
	DMA_InitStruct.NbData = STRHAL_UART_BUF_SIZE;
 80085d6:	f44f 7380 	mov.w	r3, #256	; 0x100
 80085da:	62bb      	str	r3, [r7, #40]	; 0x28
	DMA_InitStruct.PeriphOrM2MSrcAddress = (uint32_t) &(_uart->uart->TDR);
 80085dc:	6d7b      	ldr	r3, [r7, #84]	; 0x54
 80085de:	681b      	ldr	r3, [r3, #0]
 80085e0:	3328      	adds	r3, #40	; 0x28
 80085e2:	60bb      	str	r3, [r7, #8]
	DMA_InitStruct.PeriphOrM2MSrcDataSize = LL_DMA_PDATAALIGN_BYTE;
 80085e4:	2300      	movs	r3, #0
 80085e6:	623b      	str	r3, [r7, #32]
	DMA_InitStruct.PeriphOrM2MSrcIncMode = LL_DMA_MEMORY_NOINCREMENT;
 80085e8:	2300      	movs	r3, #0
 80085ea:	61bb      	str	r3, [r7, #24]
	DMA_InitStruct.PeriphRequest = _uart->dma_tx_request;
 80085ec:	6d7b      	ldr	r3, [r7, #84]	; 0x54
 80085ee:	f8d3 3224 	ldr.w	r3, [r3, #548]	; 0x224
 80085f2:	62fb      	str	r3, [r7, #44]	; 0x2c
	DMA_InitStruct.Priority = LL_DMA_PRIORITY_HIGH;
 80085f4:	f44f 5300 	mov.w	r3, #8192	; 0x2000
 80085f8:	633b      	str	r3, [r7, #48]	; 0x30
	LL_DMA_Init(DMA1, _uart->dma_tx_channel, &DMA_InitStruct);
 80085fa:	6d7b      	ldr	r3, [r7, #84]	; 0x54
 80085fc:	f8d3 321c 	ldr.w	r3, [r3, #540]	; 0x21c
 8008600:	f107 0208 	add.w	r2, r7, #8
 8008604:	4619      	mov	r1, r3
 8008606:	4830      	ldr	r0, [pc, #192]	; (80086c8 <STRHAL_UART_Instance_Init+0x270>)
 8008608:	f7fa fce6 	bl	8002fd8 <LL_DMA_Init>

	LL_USART_EnableDMAReq_TX(_uart->uart);
 800860c:	6d7b      	ldr	r3, [r7, #84]	; 0x54
 800860e:	681b      	ldr	r3, [r3, #0]
 8008610:	4618      	mov	r0, r3
 8008612:	f7ff fecd 	bl	80083b0 <LL_USART_EnableDMAReq_TX>

	LL_DMA_EnableIT_TC(DMA1, _uart->dma_tx_channel);
 8008616:	6d7b      	ldr	r3, [r7, #84]	; 0x54
 8008618:	f8d3 321c 	ldr.w	r3, [r3, #540]	; 0x21c
 800861c:	4619      	mov	r1, r3
 800861e:	482a      	ldr	r0, [pc, #168]	; (80086c8 <STRHAL_UART_Instance_Init+0x270>)
 8008620:	f7ff fd14 	bl	800804c <LL_DMA_EnableIT_TC>
	LL_DMA_EnableIT_TE(DMA1, _uart->dma_tx_channel);
 8008624:	6d7b      	ldr	r3, [r7, #84]	; 0x54
 8008626:	f8d3 321c 	ldr.w	r3, [r3, #540]	; 0x21c
 800862a:	4619      	mov	r1, r3
 800862c:	4826      	ldr	r0, [pc, #152]	; (80086c8 <STRHAL_UART_Instance_Init+0x270>)
 800862e:	f7ff fd2f 	bl	8008090 <LL_DMA_EnableIT_TE>

	NVIC_SetPriority(_uart->it_tx_handler, NVIC_EncodePriority(NVIC_GetPriorityGrouping(), 1, 2));
 8008632:	6d7b      	ldr	r3, [r7, #84]	; 0x54
 8008634:	f8d3 322c 	ldr.w	r3, [r3, #556]	; 0x22c
 8008638:	b25c      	sxtb	r4, r3
 800863a:	f7ff fadf 	bl	8007bfc <__NVIC_GetPriorityGrouping>
 800863e:	4603      	mov	r3, r0
 8008640:	2202      	movs	r2, #2
 8008642:	2101      	movs	r1, #1
 8008644:	4618      	mov	r0, r3
 8008646:	f7ff fb2f 	bl	8007ca8 <NVIC_EncodePriority>
 800864a:	4603      	mov	r3, r0
 800864c:	4619      	mov	r1, r3
 800864e:	4620      	mov	r0, r4
 8008650:	f7ff fb00 	bl	8007c54 <__NVIC_SetPriority>
	NVIC_EnableIRQ(_uart->it_tx_handler);
 8008654:	6d7b      	ldr	r3, [r7, #84]	; 0x54
 8008656:	f8d3 322c 	ldr.w	r3, [r3, #556]	; 0x22c
 800865a:	b25b      	sxtb	r3, r3
 800865c:	4618      	mov	r0, r3
 800865e:	f7ff fadb 	bl	8007c18 <__NVIC_EnableIRQ>

	LL_USART_EnableDirectionTx(_uart->uart);
 8008662:	6d7b      	ldr	r3, [r7, #84]	; 0x54
 8008664:	681b      	ldr	r3, [r3, #0]
 8008666:	4618      	mov	r0, r3
 8008668:	f7ff fe0f 	bl	800828a <LL_USART_EnableDirectionTx>
	LL_USART_EnableDirectionRx(_uart->uart);
 800866c:	6d7b      	ldr	r3, [r7, #84]	; 0x54
 800866e:	681b      	ldr	r3, [r3, #0]
 8008670:	4618      	mov	r0, r3
 8008672:	f7ff fde9 	bl	8008248 <LL_USART_EnableDirectionRx>
	LL_USART_Enable(_uart->uart);
 8008676:	6d7b      	ldr	r3, [r7, #84]	; 0x54
 8008678:	681b      	ldr	r3, [r3, #0]
 800867a:	4618      	mov	r0, r3
 800867c:	f7ff fd66 	bl	800814c <LL_USART_Enable>

	_uart->state = STRHAL_UART_STATE_00;
 8008680:	6d7b      	ldr	r3, [r7, #84]	; 0x54
 8008682:	2200      	movs	r2, #0
 8008684:	f883 2214 	strb.w	r2, [r3, #532]	; 0x214
	_uart->rx_buf.h = _uart->rx_buf.n = _uart->tx_buf.n = 0;
 8008688:	6d7b      	ldr	r3, [r7, #84]	; 0x54
 800868a:	2200      	movs	r2, #0
 800868c:	f8c3 2104 	str.w	r2, [r3, #260]	; 0x104
 8008690:	6d7b      	ldr	r3, [r7, #84]	; 0x54
 8008692:	f8d3 2104 	ldr.w	r2, [r3, #260]	; 0x104
 8008696:	6d7b      	ldr	r3, [r7, #84]	; 0x54
 8008698:	f8c3 220c 	str.w	r2, [r3, #524]	; 0x20c
 800869c:	6d7b      	ldr	r3, [r7, #84]	; 0x54
 800869e:	f8d3 220c 	ldr.w	r2, [r3, #524]	; 0x20c
 80086a2:	6d7b      	ldr	r3, [r7, #84]	; 0x54
 80086a4:	f8c3 2208 	str.w	r2, [r3, #520]	; 0x208
	_uart->rx_buf.n_dma = STRHAL_UART_BUF_SIZE;
 80086a8:	6d7b      	ldr	r3, [r7, #84]	; 0x54
 80086aa:	f44f 7280 	mov.w	r2, #256	; 0x100
 80086ae:	f8c3 2210 	str.w	r2, [r3, #528]	; 0x210
	_uart->tx_buf.n = 0;
 80086b2:	6d7b      	ldr	r3, [r7, #84]	; 0x54
 80086b4:	2200      	movs	r2, #0
 80086b6:	f8c3 2104 	str.w	r2, [r3, #260]	; 0x104
	return 0;
 80086ba:	2300      	movs	r3, #0
}
 80086bc:	4618      	mov	r0, r3
 80086be:	375c      	adds	r7, #92	; 0x5c
 80086c0:	46bd      	mov	sp, r7
 80086c2:	bd90      	pop	{r4, r7, pc}
 80086c4:	20000074 	.word	0x20000074
 80086c8:	40020000 	.word	0x40020000

080086cc <STRHAL_UART_Debug_Write_DMA>:

int32_t STRHAL_UART_Debug_Write_DMA(const char *data, uint32_t n)
{
 80086cc:	b580      	push	{r7, lr}
 80086ce:	b082      	sub	sp, #8
 80086d0:	af00      	add	r7, sp, #0
 80086d2:	6078      	str	r0, [r7, #4]
 80086d4:	6039      	str	r1, [r7, #0]
	return STRHAL_UART_Write_DMA(STRHAL_UART_DEBUG, data, n);
 80086d6:	683a      	ldr	r2, [r7, #0]
 80086d8:	6879      	ldr	r1, [r7, #4]
 80086da:	2002      	movs	r0, #2
 80086dc:	f000 f818 	bl	8008710 <STRHAL_UART_Write_DMA>
 80086e0:	4603      	mov	r3, r0
}
 80086e2:	4618      	mov	r0, r3
 80086e4:	3708      	adds	r7, #8
 80086e6:	46bd      	mov	sp, r7
 80086e8:	bd80      	pop	{r7, pc}

080086ea <STRHAL_UART_Debug_Write_Blocking>:

int32_t STRHAL_UART_Debug_Write_Blocking(const char *data, uint32_t n, uint16_t timeout)
{
 80086ea:	b580      	push	{r7, lr}
 80086ec:	b084      	sub	sp, #16
 80086ee:	af00      	add	r7, sp, #0
 80086f0:	60f8      	str	r0, [r7, #12]
 80086f2:	60b9      	str	r1, [r7, #8]
 80086f4:	4613      	mov	r3, r2
 80086f6:	80fb      	strh	r3, [r7, #6]
	return STRHAL_UART_Write_Blocking(STRHAL_UART_DEBUG, data, n, timeout);
 80086f8:	88fb      	ldrh	r3, [r7, #6]
 80086fa:	68ba      	ldr	r2, [r7, #8]
 80086fc:	68f9      	ldr	r1, [r7, #12]
 80086fe:	2002      	movs	r0, #2
 8008700:	f000 f8a8 	bl	8008854 <STRHAL_UART_Write_Blocking>
 8008704:	4603      	mov	r3, r0
}
 8008706:	4618      	mov	r0, r3
 8008708:	3710      	adds	r7, #16
 800870a:	46bd      	mov	sp, r7
 800870c:	bd80      	pop	{r7, pc}
	...

08008710 <STRHAL_UART_Write_DMA>:

int32_t STRHAL_UART_Write_DMA(STRHAL_UART_Id_t uart_id, const char *data, uint32_t n)
{
 8008710:	b580      	push	{r7, lr}
 8008712:	b086      	sub	sp, #24
 8008714:	af00      	add	r7, sp, #0
 8008716:	4603      	mov	r3, r0
 8008718:	60b9      	str	r1, [r7, #8]
 800871a:	607a      	str	r2, [r7, #4]
 800871c:	73fb      	strb	r3, [r7, #15]
	if (uart_id < 0 || uart_id >= STRHAL_N_UART)
 800871e:	7bfb      	ldrb	r3, [r7, #15]
 8008720:	2b02      	cmp	r3, #2
 8008722:	d902      	bls.n	800872a <STRHAL_UART_Write_DMA+0x1a>
		return -1;
 8008724:	f04f 33ff 	mov.w	r3, #4294967295	; 0xffffffff
 8008728:	e08b      	b.n	8008842 <STRHAL_UART_Write_DMA+0x132>

	STRHAL_UART_Handle_t *_uart = &_uarts[uart_id];
 800872a:	7bfb      	ldrb	r3, [r7, #15]
 800872c:	f44f 720e 	mov.w	r2, #568	; 0x238
 8008730:	fb02 f303 	mul.w	r3, r2, r3
 8008734:	4a45      	ldr	r2, [pc, #276]	; (800884c <STRHAL_UART_Write_DMA+0x13c>)
 8008736:	4413      	add	r3, r2
 8008738:	613b      	str	r3, [r7, #16]

	if (_uart->state & (STRHAL_UART_STATE_TX | STRHAL_UART_STATE_TE) || n > STRHAL_UART_BUF_SIZE)
 800873a:	693b      	ldr	r3, [r7, #16]
 800873c:	f893 3214 	ldrb.w	r3, [r3, #532]	; 0x214
 8008740:	f003 03a0 	and.w	r3, r3, #160	; 0xa0
 8008744:	2b00      	cmp	r3, #0
 8008746:	d103      	bne.n	8008750 <STRHAL_UART_Write_DMA+0x40>
 8008748:	687b      	ldr	r3, [r7, #4]
 800874a:	f5b3 7f80 	cmp.w	r3, #256	; 0x100
 800874e:	d901      	bls.n	8008754 <STRHAL_UART_Write_DMA+0x44>
		return 0;
 8008750:	2300      	movs	r3, #0
 8008752:	e076      	b.n	8008842 <STRHAL_UART_Write_DMA+0x132>

	uint32_t i;
	for (i = 0; i < n; ++i)
 8008754:	2300      	movs	r3, #0
 8008756:	617b      	str	r3, [r7, #20]
 8008758:	e00c      	b.n	8008774 <STRHAL_UART_Write_DMA+0x64>
		_uart->tx_buf.data[i] = data[i];
 800875a:	68ba      	ldr	r2, [r7, #8]
 800875c:	697b      	ldr	r3, [r7, #20]
 800875e:	4413      	add	r3, r2
 8008760:	7819      	ldrb	r1, [r3, #0]
 8008762:	693a      	ldr	r2, [r7, #16]
 8008764:	697b      	ldr	r3, [r7, #20]
 8008766:	4413      	add	r3, r2
 8008768:	3304      	adds	r3, #4
 800876a:	460a      	mov	r2, r1
 800876c:	701a      	strb	r2, [r3, #0]
	for (i = 0; i < n; ++i)
 800876e:	697b      	ldr	r3, [r7, #20]
 8008770:	3301      	adds	r3, #1
 8008772:	617b      	str	r3, [r7, #20]
 8008774:	697a      	ldr	r2, [r7, #20]
 8008776:	687b      	ldr	r3, [r7, #4]
 8008778:	429a      	cmp	r2, r3
 800877a:	d3ee      	bcc.n	800875a <STRHAL_UART_Write_DMA+0x4a>

	_uart->tx_buf.n = n;
 800877c:	693b      	ldr	r3, [r7, #16]
 800877e:	687a      	ldr	r2, [r7, #4]
 8008780:	f8c3 2104 	str.w	r2, [r3, #260]	; 0x104

	LL_DMA_DisableChannel(DMA1, _uart->dma_tx_channel);
 8008784:	693b      	ldr	r3, [r7, #16]
 8008786:	f8d3 321c 	ldr.w	r3, [r3, #540]	; 0x21c
 800878a:	4619      	mov	r1, r3
 800878c:	4830      	ldr	r0, [pc, #192]	; (8008850 <STRHAL_UART_Write_DMA+0x140>)
 800878e:	f7ff fb29 	bl	8007de4 <LL_DMA_DisableChannel>
	while (LL_DMA_IsEnabledChannel(DMA1, _uart->dma_tx_channel));
 8008792:	bf00      	nop
 8008794:	693b      	ldr	r3, [r7, #16]
 8008796:	f8d3 321c 	ldr.w	r3, [r3, #540]	; 0x21c
 800879a:	4619      	mov	r1, r3
 800879c:	482c      	ldr	r0, [pc, #176]	; (8008850 <STRHAL_UART_Write_DMA+0x140>)
 800879e:	f7ff fb43 	bl	8007e28 <LL_DMA_IsEnabledChannel>
 80087a2:	4603      	mov	r3, r0
 80087a4:	2b00      	cmp	r3, #0
 80087a6:	d1f5      	bne.n	8008794 <STRHAL_UART_Write_DMA+0x84>

	if (_uart->dma_tx_channel == 1U)
 80087a8:	693b      	ldr	r3, [r7, #16]
 80087aa:	f8d3 321c 	ldr.w	r3, [r3, #540]	; 0x21c
 80087ae:	2b01      	cmp	r3, #1
 80087b0:	d106      	bne.n	80087c0 <STRHAL_UART_Write_DMA+0xb0>
	{
		LL_DMA_ClearFlag_TC2(DMA1);
 80087b2:	4827      	ldr	r0, [pc, #156]	; (8008850 <STRHAL_UART_Write_DMA+0x140>)
 80087b4:	f7ff fc07 	bl	8007fc6 <LL_DMA_ClearFlag_TC2>
		LL_DMA_ClearFlag_TE2(DMA1);
 80087b8:	4825      	ldr	r0, [pc, #148]	; (8008850 <STRHAL_UART_Write_DMA+0x140>)
 80087ba:	f7ff fc2c 	bl	8008016 <LL_DMA_ClearFlag_TE2>
 80087be:	e00a      	b.n	80087d6 <STRHAL_UART_Write_DMA+0xc6>
	}
	else if (_uart->dma_tx_channel == 3U)
 80087c0:	693b      	ldr	r3, [r7, #16]
 80087c2:	f8d3 321c 	ldr.w	r3, [r3, #540]	; 0x21c
 80087c6:	2b03      	cmp	r3, #3
 80087c8:	d105      	bne.n	80087d6 <STRHAL_UART_Write_DMA+0xc6>
	{
		LL_DMA_ClearFlag_TC4(DMA1);
 80087ca:	4821      	ldr	r0, [pc, #132]	; (8008850 <STRHAL_UART_Write_DMA+0x140>)
 80087cc:	f7ff fc08 	bl	8007fe0 <LL_DMA_ClearFlag_TC4>
		LL_DMA_ClearFlag_TE4(DMA1);
 80087d0:	481f      	ldr	r0, [pc, #124]	; (8008850 <STRHAL_UART_Write_DMA+0x140>)
 80087d2:	f7ff fc2d 	bl	8008030 <LL_DMA_ClearFlag_TE4>
	}

	_uart->state &= ~STRHAL_UART_STATE_TC;
 80087d6:	693b      	ldr	r3, [r7, #16]
 80087d8:	f893 3214 	ldrb.w	r3, [r3, #532]	; 0x214
 80087dc:	f023 0340 	bic.w	r3, r3, #64	; 0x40
 80087e0:	b2da      	uxtb	r2, r3
 80087e2:	693b      	ldr	r3, [r7, #16]
 80087e4:	f883 2214 	strb.w	r2, [r3, #532]	; 0x214
	_uart->state |= STRHAL_UART_STATE_TX;
 80087e8:	693b      	ldr	r3, [r7, #16]
 80087ea:	f893 3214 	ldrb.w	r3, [r3, #532]	; 0x214
 80087ee:	f043 0320 	orr.w	r3, r3, #32
 80087f2:	b2da      	uxtb	r2, r3
 80087f4:	693b      	ldr	r3, [r7, #16]
 80087f6:	f883 2214 	strb.w	r2, [r3, #532]	; 0x214

	LL_DMA_SetMemoryAddress(DMA1, _uart->dma_tx_channel, (uint32_t) _uart->tx_buf.data);
 80087fa:	693b      	ldr	r3, [r7, #16]
 80087fc:	f8d3 121c 	ldr.w	r1, [r3, #540]	; 0x21c
 8008800:	693b      	ldr	r3, [r7, #16]
 8008802:	3304      	adds	r3, #4
 8008804:	461a      	mov	r2, r3
 8008806:	4812      	ldr	r0, [pc, #72]	; (8008850 <STRHAL_UART_Write_DMA+0x140>)
 8008808:	f7ff fb6a 	bl	8007ee0 <LL_DMA_SetMemoryAddress>
	LL_DMA_SetDataLength(DMA1, _uart->dma_tx_channel, n);
 800880c:	693b      	ldr	r3, [r7, #16]
 800880e:	f8d3 321c 	ldr.w	r3, [r3, #540]	; 0x21c
 8008812:	687a      	ldr	r2, [r7, #4]
 8008814:	4619      	mov	r1, r3
 8008816:	480e      	ldr	r0, [pc, #56]	; (8008850 <STRHAL_UART_Write_DMA+0x140>)
 8008818:	f7ff fb24 	bl	8007e64 <LL_DMA_SetDataLength>

	LL_DMA_EnableChannel(DMA1, _uart->dma_tx_channel);
 800881c:	693b      	ldr	r3, [r7, #16]
 800881e:	f8d3 321c 	ldr.w	r3, [r3, #540]	; 0x21c
 8008822:	4619      	mov	r1, r3
 8008824:	480a      	ldr	r0, [pc, #40]	; (8008850 <STRHAL_UART_Write_DMA+0x140>)
 8008826:	f7ff fabb 	bl	8007da0 <LL_DMA_EnableChannel>
	while (!LL_DMA_IsEnabledChannel(DMA1, _uart->dma_tx_channel));
 800882a:	bf00      	nop
 800882c:	693b      	ldr	r3, [r7, #16]
 800882e:	f8d3 321c 	ldr.w	r3, [r3, #540]	; 0x21c
 8008832:	4619      	mov	r1, r3
 8008834:	4806      	ldr	r0, [pc, #24]	; (8008850 <STRHAL_UART_Write_DMA+0x140>)
 8008836:	f7ff faf7 	bl	8007e28 <LL_DMA_IsEnabledChannel>
 800883a:	4603      	mov	r3, r0
 800883c:	2b00      	cmp	r3, #0
 800883e:	d0f5      	beq.n	800882c <STRHAL_UART_Write_DMA+0x11c>

	return n;
 8008840:	687b      	ldr	r3, [r7, #4]
}
 8008842:	4618      	mov	r0, r3
 8008844:	3718      	adds	r7, #24
 8008846:	46bd      	mov	sp, r7
 8008848:	bd80      	pop	{r7, pc}
 800884a:	bf00      	nop
 800884c:	20000074 	.word	0x20000074
 8008850:	40020000 	.word	0x40020000

08008854 <STRHAL_UART_Write_Blocking>:

int32_t STRHAL_UART_Write_Blocking(STRHAL_UART_Id_t uart_id, const char *data, uint32_t n, uint16_t timeout)
{
 8008854:	e92d 43b0 	stmdb	sp!, {r4, r5, r7, r8, r9, lr}
 8008858:	b08a      	sub	sp, #40	; 0x28
 800885a:	af00      	add	r7, sp, #0
 800885c:	60b9      	str	r1, [r7, #8]
 800885e:	607a      	str	r2, [r7, #4]
 8008860:	461a      	mov	r2, r3
 8008862:	4603      	mov	r3, r0
 8008864:	73fb      	strb	r3, [r7, #15]
 8008866:	4613      	mov	r3, r2
 8008868:	81bb      	strh	r3, [r7, #12]
	if (uart_id < 0 || uart_id >= STRHAL_N_UART)
 800886a:	7bfb      	ldrb	r3, [r7, #15]
 800886c:	2b02      	cmp	r3, #2
 800886e:	d902      	bls.n	8008876 <STRHAL_UART_Write_Blocking+0x22>
		return -1;
 8008870:	f04f 33ff 	mov.w	r3, #4294967295	; 0xffffffff
 8008874:	e0a1      	b.n	80089ba <STRHAL_UART_Write_Blocking+0x166>

	STRHAL_UART_Handle_t *_uart = &_uarts[uart_id];
 8008876:	7bfb      	ldrb	r3, [r7, #15]
 8008878:	f44f 720e 	mov.w	r2, #568	; 0x238
 800887c:	fb02 f303 	mul.w	r3, r2, r3
 8008880:	4a50      	ldr	r2, [pc, #320]	; (80089c4 <STRHAL_UART_Write_Blocking+0x170>)
 8008882:	4413      	add	r3, r2
 8008884:	61fb      	str	r3, [r7, #28]

	if (_uart->state & (STRHAL_UART_STATE_TX | STRHAL_UART_STATE_TE) || n > STRHAL_UART_BUF_SIZE)
 8008886:	69fb      	ldr	r3, [r7, #28]
 8008888:	f893 3214 	ldrb.w	r3, [r3, #532]	; 0x214
 800888c:	f003 03a0 	and.w	r3, r3, #160	; 0xa0
 8008890:	2b00      	cmp	r3, #0
 8008892:	d103      	bne.n	800889c <STRHAL_UART_Write_Blocking+0x48>
 8008894:	687b      	ldr	r3, [r7, #4]
 8008896:	f5b3 7f80 	cmp.w	r3, #256	; 0x100
 800889a:	d901      	bls.n	80088a0 <STRHAL_UART_Write_Blocking+0x4c>
		return 0;
 800889c:	2300      	movs	r3, #0
 800889e:	e08c      	b.n	80089ba <STRHAL_UART_Write_Blocking+0x166>

	uint32_t i;
	for (i = 0; i < n; ++i)
 80088a0:	2300      	movs	r3, #0
 80088a2:	627b      	str	r3, [r7, #36]	; 0x24
 80088a4:	e00c      	b.n	80088c0 <STRHAL_UART_Write_Blocking+0x6c>
		_uart->tx_buf.data[i] = data[i];
 80088a6:	68ba      	ldr	r2, [r7, #8]
 80088a8:	6a7b      	ldr	r3, [r7, #36]	; 0x24
 80088aa:	4413      	add	r3, r2
 80088ac:	7819      	ldrb	r1, [r3, #0]
 80088ae:	69fa      	ldr	r2, [r7, #28]
 80088b0:	6a7b      	ldr	r3, [r7, #36]	; 0x24
 80088b2:	4413      	add	r3, r2
 80088b4:	3304      	adds	r3, #4
 80088b6:	460a      	mov	r2, r1
 80088b8:	701a      	strb	r2, [r3, #0]
	for (i = 0; i < n; ++i)
 80088ba:	6a7b      	ldr	r3, [r7, #36]	; 0x24
 80088bc:	3301      	adds	r3, #1
 80088be:	627b      	str	r3, [r7, #36]	; 0x24
 80088c0:	6a7a      	ldr	r2, [r7, #36]	; 0x24
 80088c2:	687b      	ldr	r3, [r7, #4]
 80088c4:	429a      	cmp	r2, r3
 80088c6:	d3ee      	bcc.n	80088a6 <STRHAL_UART_Write_Blocking+0x52>

	_uart->tx_buf.n = n;
 80088c8:	69fb      	ldr	r3, [r7, #28]
 80088ca:	687a      	ldr	r2, [r7, #4]
 80088cc:	f8c3 2104 	str.w	r2, [r3, #260]	; 0x104

	_uart->state &= ~STRHAL_UART_STATE_TC;
 80088d0:	69fb      	ldr	r3, [r7, #28]
 80088d2:	f893 3214 	ldrb.w	r3, [r3, #532]	; 0x214
 80088d6:	f023 0340 	bic.w	r3, r3, #64	; 0x40
 80088da:	b2da      	uxtb	r2, r3
 80088dc:	69fb      	ldr	r3, [r7, #28]
 80088de:	f883 2214 	strb.w	r2, [r3, #532]	; 0x214
	_uart->state |= STRHAL_UART_STATE_TX;
 80088e2:	69fb      	ldr	r3, [r7, #28]
 80088e4:	f893 3214 	ldrb.w	r3, [r3, #532]	; 0x214
 80088e8:	f043 0320 	orr.w	r3, r3, #32
 80088ec:	b2da      	uxtb	r2, r3
 80088ee:	69fb      	ldr	r3, [r7, #28]
 80088f0:	f883 2214 	strb.w	r2, [r3, #532]	; 0x214

	uint8_t *tx_data = (uint8_t*) _uart->tx_buf.data;
 80088f4:	69fb      	ldr	r3, [r7, #28]
 80088f6:	3304      	adds	r3, #4
 80088f8:	623b      	str	r3, [r7, #32]

	uint64_t tx_starttime = STRHAL_Systick_GetTick();
 80088fa:	f7fe fc7d 	bl	80071f8 <STRHAL_Systick_GetTick>
 80088fe:	e9c7 0104 	strd	r0, r1, [r7, #16]

	while (_uart->tx_buf.n > 0)
 8008902:	e028      	b.n	8008956 <STRHAL_UART_Write_Blocking+0x102>
	{
		// wait until byte transmitted, or timeout
		while (!LL_USART_IsActiveFlag_TXE_TXFNF(_uart->uart))
		{
			if (STRHAL_Systick_GetTick() - tx_starttime > timeout)
 8008904:	f7fe fc78 	bl	80071f8 <STRHAL_Systick_GetTick>
 8008908:	e9d7 2304 	ldrd	r2, r3, [r7, #16]
 800890c:	ebb0 0802 	subs.w	r8, r0, r2
 8008910:	eb61 0903 	sbc.w	r9, r1, r3
 8008914:	89ba      	ldrh	r2, [r7, #12]
 8008916:	f04f 0300 	mov.w	r3, #0
 800891a:	454b      	cmp	r3, r9
 800891c:	bf08      	it	eq
 800891e:	4542      	cmpeq	r2, r8
 8008920:	d202      	bcs.n	8008928 <STRHAL_UART_Write_Blocking+0xd4>
				return -1;
 8008922:	f04f 33ff 	mov.w	r3, #4294967295	; 0xffffffff
 8008926:	e048      	b.n	80089ba <STRHAL_UART_Write_Blocking+0x166>
		while (!LL_USART_IsActiveFlag_TXE_TXFNF(_uart->uart))
 8008928:	69fb      	ldr	r3, [r7, #28]
 800892a:	681b      	ldr	r3, [r3, #0]
 800892c:	4618      	mov	r0, r3
 800892e:	f7ff fd09 	bl	8008344 <LL_USART_IsActiveFlag_TXE_TXFNF>
 8008932:	4603      	mov	r3, r0
 8008934:	2b00      	cmp	r3, #0
 8008936:	d0e5      	beq.n	8008904 <STRHAL_UART_Write_Blocking+0xb0>
		}
		_uart->uart->TDR = (uint8_t) (*tx_data & 0xFFU);
 8008938:	6a3b      	ldr	r3, [r7, #32]
 800893a:	781a      	ldrb	r2, [r3, #0]
 800893c:	69fb      	ldr	r3, [r7, #28]
 800893e:	681b      	ldr	r3, [r3, #0]
 8008940:	629a      	str	r2, [r3, #40]	; 0x28
		tx_data++;
 8008942:	6a3b      	ldr	r3, [r7, #32]
 8008944:	3301      	adds	r3, #1
 8008946:	623b      	str	r3, [r7, #32]
		_uart->tx_buf.n--;
 8008948:	69fb      	ldr	r3, [r7, #28]
 800894a:	f8d3 3104 	ldr.w	r3, [r3, #260]	; 0x104
 800894e:	1e5a      	subs	r2, r3, #1
 8008950:	69fb      	ldr	r3, [r7, #28]
 8008952:	f8c3 2104 	str.w	r2, [r3, #260]	; 0x104
	while (_uart->tx_buf.n > 0)
 8008956:	69fb      	ldr	r3, [r7, #28]
 8008958:	f8d3 3104 	ldr.w	r3, [r3, #260]	; 0x104
 800895c:	2b00      	cmp	r3, #0
 800895e:	d1e3      	bne.n	8008928 <STRHAL_UART_Write_Blocking+0xd4>
	}

	// wait until transmission complete, or timeout
	while (!LL_USART_IsActiveFlag_TC(_uart->uart))
 8008960:	e010      	b.n	8008984 <STRHAL_UART_Write_Blocking+0x130>
	{
		if (STRHAL_Systick_GetTick() - tx_starttime > timeout)
 8008962:	f7fe fc49 	bl	80071f8 <STRHAL_Systick_GetTick>
 8008966:	e9d7 2304 	ldrd	r2, r3, [r7, #16]
 800896a:	1a84      	subs	r4, r0, r2
 800896c:	eb61 0503 	sbc.w	r5, r1, r3
 8008970:	89ba      	ldrh	r2, [r7, #12]
 8008972:	f04f 0300 	mov.w	r3, #0
 8008976:	42ab      	cmp	r3, r5
 8008978:	bf08      	it	eq
 800897a:	42a2      	cmpeq	r2, r4
 800897c:	d202      	bcs.n	8008984 <STRHAL_UART_Write_Blocking+0x130>
			return -1;
 800897e:	f04f 33ff 	mov.w	r3, #4294967295	; 0xffffffff
 8008982:	e01a      	b.n	80089ba <STRHAL_UART_Write_Blocking+0x166>
	while (!LL_USART_IsActiveFlag_TC(_uart->uart))
 8008984:	69fb      	ldr	r3, [r7, #28]
 8008986:	681b      	ldr	r3, [r3, #0]
 8008988:	4618      	mov	r0, r3
 800898a:	f7ff fcc8 	bl	800831e <LL_USART_IsActiveFlag_TC>
 800898e:	4603      	mov	r3, r0
 8008990:	2b00      	cmp	r3, #0
 8008992:	d0e6      	beq.n	8008962 <STRHAL_UART_Write_Blocking+0x10e>
	}

	_uart->state &= ~STRHAL_UART_STATE_TX;
 8008994:	69fb      	ldr	r3, [r7, #28]
 8008996:	f893 3214 	ldrb.w	r3, [r3, #532]	; 0x214
 800899a:	f023 0320 	bic.w	r3, r3, #32
 800899e:	b2da      	uxtb	r2, r3
 80089a0:	69fb      	ldr	r3, [r7, #28]
 80089a2:	f883 2214 	strb.w	r2, [r3, #532]	; 0x214
	_uart->state |= STRHAL_UART_STATE_TC;
 80089a6:	69fb      	ldr	r3, [r7, #28]
 80089a8:	f893 3214 	ldrb.w	r3, [r3, #532]	; 0x214
 80089ac:	f043 0340 	orr.w	r3, r3, #64	; 0x40
 80089b0:	b2da      	uxtb	r2, r3
 80089b2:	69fb      	ldr	r3, [r7, #28]
 80089b4:	f883 2214 	strb.w	r2, [r3, #532]	; 0x214

	return n;
 80089b8:	687b      	ldr	r3, [r7, #4]
}
 80089ba:	4618      	mov	r0, r3
 80089bc:	3728      	adds	r7, #40	; 0x28
 80089be:	46bd      	mov	sp, r7
 80089c0:	e8bd 83b0 	ldmia.w	sp!, {r4, r5, r7, r8, r9, pc}
 80089c4:	20000074 	.word	0x20000074

080089c8 <DMA1_Channel1_IRQHandler>:
{
	return _uarts[uart_id].state;
}

void DMA1_Channel1_IRQHandler(void)
{
 80089c8:	b580      	push	{r7, lr}
 80089ca:	b082      	sub	sp, #8
 80089cc:	af00      	add	r7, sp, #0
	STRHAL_UART_Handle_t *_uart = &_uarts[STRHAL_UART4];
 80089ce:	4b3f      	ldr	r3, [pc, #252]	; (8008acc <DMA1_Channel1_IRQHandler+0x104>)
 80089d0:	607b      	str	r3, [r7, #4]
	if (LL_DMA_IsEnabledIT_TC(DMA1, LL_DMA_CHANNEL_1) && LL_DMA_IsActiveFlag_TC1(DMA1))
 80089d2:	2100      	movs	r1, #0
 80089d4:	483e      	ldr	r0, [pc, #248]	; (8008ad0 <DMA1_Channel1_IRQHandler+0x108>)
 80089d6:	f7ff fb7d 	bl	80080d4 <LL_DMA_IsEnabledIT_TC>
 80089da:	4603      	mov	r3, r0
 80089dc:	2b00      	cmp	r3, #0
 80089de:	d037      	beq.n	8008a50 <DMA1_Channel1_IRQHandler+0x88>
 80089e0:	483b      	ldr	r0, [pc, #236]	; (8008ad0 <DMA1_Channel1_IRQHandler+0x108>)
 80089e2:	f7ff fa97 	bl	8007f14 <LL_DMA_IsActiveFlag_TC1>
 80089e6:	4603      	mov	r3, r0
 80089e8:	2b00      	cmp	r3, #0
 80089ea:	d031      	beq.n	8008a50 <DMA1_Channel1_IRQHandler+0x88>
	{
		LL_DMA_ClearFlag_TC1(DMA1);
 80089ec:	4838      	ldr	r0, [pc, #224]	; (8008ad0 <DMA1_Channel1_IRQHandler+0x108>)
 80089ee:	f7ff fadd 	bl	8007fac <LL_DMA_ClearFlag_TC1>
		_uart->rx_buf.n += _uart->rx_buf.n_dma;
 80089f2:	687b      	ldr	r3, [r7, #4]
 80089f4:	f8d3 220c 	ldr.w	r2, [r3, #524]	; 0x20c
 80089f8:	687b      	ldr	r3, [r7, #4]
 80089fa:	f8d3 3210 	ldr.w	r3, [r3, #528]	; 0x210
 80089fe:	441a      	add	r2, r3
 8008a00:	687b      	ldr	r3, [r7, #4]
 8008a02:	f8c3 220c 	str.w	r2, [r3, #524]	; 0x20c
		_uart->rx_buf.n_dma = STRHAL_UART_BUF_SIZE;
 8008a06:	687b      	ldr	r3, [r7, #4]
 8008a08:	f44f 7280 	mov.w	r2, #256	; 0x100
 8008a0c:	f8c3 2210 	str.w	r2, [r3, #528]	; 0x210

		if (_uart->rx_buf.n > STRHAL_UART_BUF_SIZE)
 8008a10:	687b      	ldr	r3, [r7, #4]
 8008a12:	f8d3 320c 	ldr.w	r3, [r3, #524]	; 0x20c
 8008a16:	f5b3 7f80 	cmp.w	r3, #256	; 0x100
 8008a1a:	d953      	bls.n	8008ac4 <DMA1_Channel1_IRQHandler+0xfc>
		{
			_uart->rx_buf.h += _uart->rx_buf.n % STRHAL_UART_BUF_SIZE;
 8008a1c:	687b      	ldr	r3, [r7, #4]
 8008a1e:	f8d3 2208 	ldr.w	r2, [r3, #520]	; 0x208
 8008a22:	687b      	ldr	r3, [r7, #4]
 8008a24:	f8d3 320c 	ldr.w	r3, [r3, #524]	; 0x20c
 8008a28:	b2db      	uxtb	r3, r3
 8008a2a:	441a      	add	r2, r3
 8008a2c:	687b      	ldr	r3, [r7, #4]
 8008a2e:	f8c3 2208 	str.w	r2, [r3, #520]	; 0x208
			_uart->rx_buf.n = STRHAL_UART_BUF_SIZE;
 8008a32:	687b      	ldr	r3, [r7, #4]
 8008a34:	f44f 7280 	mov.w	r2, #256	; 0x100
 8008a38:	f8c3 220c 	str.w	r2, [r3, #524]	; 0x20c

			_uart->state |= STRHAL_UART_STATE_RO;
 8008a3c:	687b      	ldr	r3, [r7, #4]
 8008a3e:	f893 3214 	ldrb.w	r3, [r3, #532]	; 0x214
 8008a42:	f043 0308 	orr.w	r3, r3, #8
 8008a46:	b2da      	uxtb	r2, r3
 8008a48:	687b      	ldr	r3, [r7, #4]
 8008a4a:	f883 2214 	strb.w	r2, [r3, #532]	; 0x214
		if (_uart->rx_buf.n > STRHAL_UART_BUF_SIZE)
 8008a4e:	e039      	b.n	8008ac4 <DMA1_Channel1_IRQHandler+0xfc>
		}
	}

	else if (LL_DMA_IsEnabledIT_TE(DMA1, LL_DMA_CHANNEL_1) && LL_DMA_IsActiveFlag_TE1(DMA1))
 8008a50:	2100      	movs	r1, #0
 8008a52:	481f      	ldr	r0, [pc, #124]	; (8008ad0 <DMA1_Channel1_IRQHandler+0x108>)
 8008a54:	f7ff fb5c 	bl	8008110 <LL_DMA_IsEnabledIT_TE>
 8008a58:	4603      	mov	r3, r0
 8008a5a:	2b00      	cmp	r3, #0
 8008a5c:	d032      	beq.n	8008ac4 <DMA1_Channel1_IRQHandler+0xfc>
 8008a5e:	481c      	ldr	r0, [pc, #112]	; (8008ad0 <DMA1_Channel1_IRQHandler+0x108>)
 8008a60:	f7ff fa7e 	bl	8007f60 <LL_DMA_IsActiveFlag_TE1>
 8008a64:	4603      	mov	r3, r0
 8008a66:	2b00      	cmp	r3, #0
 8008a68:	d02c      	beq.n	8008ac4 <DMA1_Channel1_IRQHandler+0xfc>
	{
		LL_DMA_ClearFlag_TE1(DMA1);
 8008a6a:	4819      	ldr	r0, [pc, #100]	; (8008ad0 <DMA1_Channel1_IRQHandler+0x108>)
 8008a6c:	f7ff fac6 	bl	8007ffc <LL_DMA_ClearFlag_TE1>
		_uart->rx_buf.n = STRHAL_UART_BUF_SIZE - LL_DMA_GetDataLength(DMA1, LL_DMA_CHANNEL_1);
 8008a70:	2100      	movs	r1, #0
 8008a72:	4817      	ldr	r0, [pc, #92]	; (8008ad0 <DMA1_Channel1_IRQHandler+0x108>)
 8008a74:	f7ff fa1c 	bl	8007eb0 <LL_DMA_GetDataLength>
 8008a78:	4603      	mov	r3, r0
 8008a7a:	f5c3 7280 	rsb	r2, r3, #256	; 0x100
 8008a7e:	687b      	ldr	r3, [r7, #4]
 8008a80:	f8c3 220c 	str.w	r2, [r3, #524]	; 0x20c

		_uart->state &= ~STRHAL_UART_STATE_RX;
 8008a84:	687b      	ldr	r3, [r7, #4]
 8008a86:	f893 3214 	ldrb.w	r3, [r3, #532]	; 0x214
 8008a8a:	f023 0302 	bic.w	r3, r3, #2
 8008a8e:	b2da      	uxtb	r2, r3
 8008a90:	687b      	ldr	r3, [r7, #4]
 8008a92:	f883 2214 	strb.w	r2, [r3, #532]	; 0x214
		_uart->state &= ~STRHAL_UART_STATE_RC;
 8008a96:	687b      	ldr	r3, [r7, #4]
 8008a98:	f893 3214 	ldrb.w	r3, [r3, #532]	; 0x214
 8008a9c:	f023 0304 	bic.w	r3, r3, #4
 8008aa0:	b2da      	uxtb	r2, r3
 8008aa2:	687b      	ldr	r3, [r7, #4]
 8008aa4:	f883 2214 	strb.w	r2, [r3, #532]	; 0x214
		_uart->state |= STRHAL_UART_STATE_RE;
 8008aa8:	687b      	ldr	r3, [r7, #4]
 8008aaa:	f893 3214 	ldrb.w	r3, [r3, #532]	; 0x214
 8008aae:	f043 0310 	orr.w	r3, r3, #16
 8008ab2:	b2da      	uxtb	r2, r3
 8008ab4:	687b      	ldr	r3, [r7, #4]
 8008ab6:	f883 2214 	strb.w	r2, [r3, #532]	; 0x214

		STRHAL_OofHandler(STRHAL_OOF_UART, "DMA FAIL");
 8008aba:	4906      	ldr	r1, [pc, #24]	; (8008ad4 <DMA1_Channel1_IRQHandler+0x10c>)
 8008abc:	2008      	movs	r0, #8
 8008abe:	f7f8 facb 	bl	8001058 <STRHAL_OofHandler>
	}
}
 8008ac2:	e7ff      	b.n	8008ac4 <DMA1_Channel1_IRQHandler+0xfc>
 8008ac4:	bf00      	nop
 8008ac6:	3708      	adds	r7, #8
 8008ac8:	46bd      	mov	sp, r7
 8008aca:	bd80      	pop	{r7, pc}
 8008acc:	200004e4 	.word	0x200004e4
 8008ad0:	40020000 	.word	0x40020000
 8008ad4:	08008ee8 	.word	0x08008ee8

08008ad8 <DMA1_Channel2_IRQHandler>:

void DMA1_Channel2_IRQHandler(void)
{
 8008ad8:	b580      	push	{r7, lr}
 8008ada:	b082      	sub	sp, #8
 8008adc:	af00      	add	r7, sp, #0
	STRHAL_UART_Handle_t *_uart = &_uarts[STRHAL_UART4];
 8008ade:	4b2a      	ldr	r3, [pc, #168]	; (8008b88 <DMA1_Channel2_IRQHandler+0xb0>)
 8008ae0:	607b      	str	r3, [r7, #4]
	if (LL_DMA_IsEnabledIT_TC(DMA1, LL_DMA_CHANNEL_2) && LL_DMA_IsActiveFlag_TC2(DMA1))
 8008ae2:	2101      	movs	r1, #1
 8008ae4:	4829      	ldr	r0, [pc, #164]	; (8008b8c <DMA1_Channel2_IRQHandler+0xb4>)
 8008ae6:	f7ff faf5 	bl	80080d4 <LL_DMA_IsEnabledIT_TC>
 8008aea:	4603      	mov	r3, r0
 8008aec:	2b00      	cmp	r3, #0
 8008aee:	d01b      	beq.n	8008b28 <DMA1_Channel2_IRQHandler+0x50>
 8008af0:	4826      	ldr	r0, [pc, #152]	; (8008b8c <DMA1_Channel2_IRQHandler+0xb4>)
 8008af2:	f7ff fa22 	bl	8007f3a <LL_DMA_IsActiveFlag_TC2>
 8008af6:	4603      	mov	r3, r0
 8008af8:	2b00      	cmp	r3, #0
 8008afa:	d015      	beq.n	8008b28 <DMA1_Channel2_IRQHandler+0x50>
	{
		LL_DMA_ClearFlag_TC2(DMA1);
 8008afc:	4823      	ldr	r0, [pc, #140]	; (8008b8c <DMA1_Channel2_IRQHandler+0xb4>)
 8008afe:	f7ff fa62 	bl	8007fc6 <LL_DMA_ClearFlag_TC2>
		_uart->state &= ~STRHAL_UART_STATE_TX;
 8008b02:	687b      	ldr	r3, [r7, #4]
 8008b04:	f893 3214 	ldrb.w	r3, [r3, #532]	; 0x214
 8008b08:	f023 0320 	bic.w	r3, r3, #32
 8008b0c:	b2da      	uxtb	r2, r3
 8008b0e:	687b      	ldr	r3, [r7, #4]
 8008b10:	f883 2214 	strb.w	r2, [r3, #532]	; 0x214
		_uart->state |= STRHAL_UART_STATE_TC;
 8008b14:	687b      	ldr	r3, [r7, #4]
 8008b16:	f893 3214 	ldrb.w	r3, [r3, #532]	; 0x214
 8008b1a:	f043 0340 	orr.w	r3, r3, #64	; 0x40
 8008b1e:	b2da      	uxtb	r2, r3
 8008b20:	687b      	ldr	r3, [r7, #4]
 8008b22:	f883 2214 	strb.w	r2, [r3, #532]	; 0x214
		LL_DMA_ClearFlag_TE2(DMA1);
		_uart->state &= ~STRHAL_UART_STATE_TX;
		_uart->state &= ~STRHAL_UART_STATE_TC;
		_uart->state |= STRHAL_UART_STATE_TE;
	}
}
 8008b26:	e02a      	b.n	8008b7e <DMA1_Channel2_IRQHandler+0xa6>
	else if (LL_DMA_IsEnabledIT_TE(DMA1, LL_DMA_CHANNEL_2) && LL_DMA_IsActiveFlag_TE2(DMA1))
 8008b28:	2101      	movs	r1, #1
 8008b2a:	4818      	ldr	r0, [pc, #96]	; (8008b8c <DMA1_Channel2_IRQHandler+0xb4>)
 8008b2c:	f7ff faf0 	bl	8008110 <LL_DMA_IsEnabledIT_TE>
 8008b30:	4603      	mov	r3, r0
 8008b32:	2b00      	cmp	r3, #0
 8008b34:	d023      	beq.n	8008b7e <DMA1_Channel2_IRQHandler+0xa6>
 8008b36:	4815      	ldr	r0, [pc, #84]	; (8008b8c <DMA1_Channel2_IRQHandler+0xb4>)
 8008b38:	f7ff fa25 	bl	8007f86 <LL_DMA_IsActiveFlag_TE2>
 8008b3c:	4603      	mov	r3, r0
 8008b3e:	2b00      	cmp	r3, #0
 8008b40:	d01d      	beq.n	8008b7e <DMA1_Channel2_IRQHandler+0xa6>
		LL_DMA_ClearFlag_TE2(DMA1);
 8008b42:	4812      	ldr	r0, [pc, #72]	; (8008b8c <DMA1_Channel2_IRQHandler+0xb4>)
 8008b44:	f7ff fa67 	bl	8008016 <LL_DMA_ClearFlag_TE2>
		_uart->state &= ~STRHAL_UART_STATE_TX;
 8008b48:	687b      	ldr	r3, [r7, #4]
 8008b4a:	f893 3214 	ldrb.w	r3, [r3, #532]	; 0x214
 8008b4e:	f023 0320 	bic.w	r3, r3, #32
 8008b52:	b2da      	uxtb	r2, r3
 8008b54:	687b      	ldr	r3, [r7, #4]
 8008b56:	f883 2214 	strb.w	r2, [r3, #532]	; 0x214
		_uart->state &= ~STRHAL_UART_STATE_TC;
 8008b5a:	687b      	ldr	r3, [r7, #4]
 8008b5c:	f893 3214 	ldrb.w	r3, [r3, #532]	; 0x214
 8008b60:	f023 0340 	bic.w	r3, r3, #64	; 0x40
 8008b64:	b2da      	uxtb	r2, r3
 8008b66:	687b      	ldr	r3, [r7, #4]
 8008b68:	f883 2214 	strb.w	r2, [r3, #532]	; 0x214
		_uart->state |= STRHAL_UART_STATE_TE;
 8008b6c:	687b      	ldr	r3, [r7, #4]
 8008b6e:	f893 3214 	ldrb.w	r3, [r3, #532]	; 0x214
 8008b72:	f063 037f 	orn	r3, r3, #127	; 0x7f
 8008b76:	b2da      	uxtb	r2, r3
 8008b78:	687b      	ldr	r3, [r7, #4]
 8008b7a:	f883 2214 	strb.w	r2, [r3, #532]	; 0x214
}
 8008b7e:	bf00      	nop
 8008b80:	3708      	adds	r7, #8
 8008b82:	46bd      	mov	sp, r7
 8008b84:	bd80      	pop	{r7, pc}
 8008b86:	bf00      	nop
 8008b88:	200004e4 	.word	0x200004e4
 8008b8c:	40020000 	.word	0x40020000

08008b90 <_ZdlPvj>:
 8008b90:	f000 b812 	b.w	8008bb8 <_ZdlPv>

08008b94 <__cxa_guard_acquire>:
 8008b94:	6803      	ldr	r3, [r0, #0]
 8008b96:	07db      	lsls	r3, r3, #31
 8008b98:	d406      	bmi.n	8008ba8 <__cxa_guard_acquire+0x14>
 8008b9a:	7843      	ldrb	r3, [r0, #1]
 8008b9c:	b103      	cbz	r3, 8008ba0 <__cxa_guard_acquire+0xc>
 8008b9e:	deff      	udf	#255	; 0xff
 8008ba0:	2301      	movs	r3, #1
 8008ba2:	7043      	strb	r3, [r0, #1]
 8008ba4:	4618      	mov	r0, r3
 8008ba6:	4770      	bx	lr
 8008ba8:	2000      	movs	r0, #0
 8008baa:	4770      	bx	lr

08008bac <__cxa_guard_release>:
 8008bac:	2301      	movs	r3, #1
 8008bae:	6003      	str	r3, [r0, #0]
 8008bb0:	4770      	bx	lr

08008bb2 <__cxa_pure_virtual>:
 8008bb2:	b508      	push	{r3, lr}
 8008bb4:	f000 f80e 	bl	8008bd4 <_ZSt9terminatev>

08008bb8 <_ZdlPv>:
 8008bb8:	f000 b842 	b.w	8008c40 <free>

08008bbc <_ZN10__cxxabiv111__terminateEPFvvE>:
 8008bbc:	b508      	push	{r3, lr}
 8008bbe:	4780      	blx	r0
 8008bc0:	f000 f80d 	bl	8008bde <abort>

08008bc4 <_ZSt13get_terminatev>:
 8008bc4:	4b02      	ldr	r3, [pc, #8]	; (8008bd0 <_ZSt13get_terminatev+0xc>)
 8008bc6:	6818      	ldr	r0, [r3, #0]
 8008bc8:	f3bf 8f5b 	dmb	ish
 8008bcc:	4770      	bx	lr
 8008bce:	bf00      	nop
 8008bd0:	2000071c 	.word	0x2000071c

08008bd4 <_ZSt9terminatev>:
 8008bd4:	b508      	push	{r3, lr}
 8008bd6:	f7ff fff5 	bl	8008bc4 <_ZSt13get_terminatev>
 8008bda:	f7ff ffef 	bl	8008bbc <_ZN10__cxxabiv111__terminateEPFvvE>

08008bde <abort>:
 8008bde:	b508      	push	{r3, lr}
 8008be0:	2006      	movs	r0, #6
 8008be2:	f000 f8c3 	bl	8008d6c <raise>
 8008be6:	2001      	movs	r0, #1
 8008be8:	f7f8 fa98 	bl	800111c <_exit>

08008bec <__errno>:
 8008bec:	4b01      	ldr	r3, [pc, #4]	; (8008bf4 <__errno+0x8>)
 8008bee:	6818      	ldr	r0, [r3, #0]
 8008bf0:	4770      	bx	lr
 8008bf2:	bf00      	nop
 8008bf4:	20000720 	.word	0x20000720

08008bf8 <__libc_init_array>:
 8008bf8:	b570      	push	{r4, r5, r6, lr}
 8008bfa:	4d0d      	ldr	r5, [pc, #52]	; (8008c30 <__libc_init_array+0x38>)
 8008bfc:	4c0d      	ldr	r4, [pc, #52]	; (8008c34 <__libc_init_array+0x3c>)
 8008bfe:	1b64      	subs	r4, r4, r5
 8008c00:	10a4      	asrs	r4, r4, #2
 8008c02:	2600      	movs	r6, #0
 8008c04:	42a6      	cmp	r6, r4
 8008c06:	d109      	bne.n	8008c1c <__libc_init_array+0x24>
 8008c08:	4d0b      	ldr	r5, [pc, #44]	; (8008c38 <__libc_init_array+0x40>)
 8008c0a:	4c0c      	ldr	r4, [pc, #48]	; (8008c3c <__libc_init_array+0x44>)
 8008c0c:	f000 f8d8 	bl	8008dc0 <_init>
 8008c10:	1b64      	subs	r4, r4, r5
 8008c12:	10a4      	asrs	r4, r4, #2
 8008c14:	2600      	movs	r6, #0
 8008c16:	42a6      	cmp	r6, r4
 8008c18:	d105      	bne.n	8008c26 <__libc_init_array+0x2e>
 8008c1a:	bd70      	pop	{r4, r5, r6, pc}
 8008c1c:	f855 3b04 	ldr.w	r3, [r5], #4
 8008c20:	4798      	blx	r3
 8008c22:	3601      	adds	r6, #1
 8008c24:	e7ee      	b.n	8008c04 <__libc_init_array+0xc>
 8008c26:	f855 3b04 	ldr.w	r3, [r5], #4
 8008c2a:	4798      	blx	r3
 8008c2c:	3601      	adds	r6, #1
 8008c2e:	e7f2      	b.n	8008c16 <__libc_init_array+0x1e>
 8008c30:	0800a070 	.word	0x0800a070
 8008c34:	0800a070 	.word	0x0800a070
 8008c38:	0800a070 	.word	0x0800a070
 8008c3c:	0800a074 	.word	0x0800a074

08008c40 <free>:
 8008c40:	4b02      	ldr	r3, [pc, #8]	; (8008c4c <free+0xc>)
 8008c42:	4601      	mov	r1, r0
 8008c44:	6818      	ldr	r0, [r3, #0]
 8008c46:	f000 b819 	b.w	8008c7c <_free_r>
 8008c4a:	bf00      	nop
 8008c4c:	20000720 	.word	0x20000720

08008c50 <memcpy>:
 8008c50:	440a      	add	r2, r1
 8008c52:	4291      	cmp	r1, r2
 8008c54:	f100 33ff 	add.w	r3, r0, #4294967295	; 0xffffffff
 8008c58:	d100      	bne.n	8008c5c <memcpy+0xc>
 8008c5a:	4770      	bx	lr
 8008c5c:	b510      	push	{r4, lr}
 8008c5e:	f811 4b01 	ldrb.w	r4, [r1], #1
 8008c62:	f803 4f01 	strb.w	r4, [r3, #1]!
 8008c66:	4291      	cmp	r1, r2
 8008c68:	d1f9      	bne.n	8008c5e <memcpy+0xe>
 8008c6a:	bd10      	pop	{r4, pc}

08008c6c <memset>:
 8008c6c:	4402      	add	r2, r0
 8008c6e:	4603      	mov	r3, r0
 8008c70:	4293      	cmp	r3, r2
 8008c72:	d100      	bne.n	8008c76 <memset+0xa>
 8008c74:	4770      	bx	lr
 8008c76:	f803 1b01 	strb.w	r1, [r3], #1
 8008c7a:	e7f9      	b.n	8008c70 <memset+0x4>

08008c7c <_free_r>:
 8008c7c:	b537      	push	{r0, r1, r2, r4, r5, lr}
 8008c7e:	2900      	cmp	r1, #0
 8008c80:	d048      	beq.n	8008d14 <_free_r+0x98>
 8008c82:	f851 3c04 	ldr.w	r3, [r1, #-4]
 8008c86:	9001      	str	r0, [sp, #4]
 8008c88:	2b00      	cmp	r3, #0
 8008c8a:	f1a1 0404 	sub.w	r4, r1, #4
 8008c8e:	bfb8      	it	lt
 8008c90:	18e4      	addlt	r4, r4, r3
 8008c92:	f000 f887 	bl	8008da4 <__malloc_lock>
 8008c96:	4a20      	ldr	r2, [pc, #128]	; (8008d18 <_free_r+0x9c>)
 8008c98:	9801      	ldr	r0, [sp, #4]
 8008c9a:	6813      	ldr	r3, [r2, #0]
 8008c9c:	4615      	mov	r5, r2
 8008c9e:	b933      	cbnz	r3, 8008cae <_free_r+0x32>
 8008ca0:	6063      	str	r3, [r4, #4]
 8008ca2:	6014      	str	r4, [r2, #0]
 8008ca4:	b003      	add	sp, #12
 8008ca6:	e8bd 4030 	ldmia.w	sp!, {r4, r5, lr}
 8008caa:	f000 b881 	b.w	8008db0 <__malloc_unlock>
 8008cae:	42a3      	cmp	r3, r4
 8008cb0:	d90b      	bls.n	8008cca <_free_r+0x4e>
 8008cb2:	6821      	ldr	r1, [r4, #0]
 8008cb4:	1862      	adds	r2, r4, r1
 8008cb6:	4293      	cmp	r3, r2
 8008cb8:	bf04      	itt	eq
 8008cba:	681a      	ldreq	r2, [r3, #0]
 8008cbc:	685b      	ldreq	r3, [r3, #4]
 8008cbe:	6063      	str	r3, [r4, #4]
 8008cc0:	bf04      	itt	eq
 8008cc2:	1852      	addeq	r2, r2, r1
 8008cc4:	6022      	streq	r2, [r4, #0]
 8008cc6:	602c      	str	r4, [r5, #0]
 8008cc8:	e7ec      	b.n	8008ca4 <_free_r+0x28>
 8008cca:	461a      	mov	r2, r3
 8008ccc:	685b      	ldr	r3, [r3, #4]
 8008cce:	b10b      	cbz	r3, 8008cd4 <_free_r+0x58>
 8008cd0:	42a3      	cmp	r3, r4
 8008cd2:	d9fa      	bls.n	8008cca <_free_r+0x4e>
 8008cd4:	6811      	ldr	r1, [r2, #0]
 8008cd6:	1855      	adds	r5, r2, r1
 8008cd8:	42a5      	cmp	r5, r4
 8008cda:	d10b      	bne.n	8008cf4 <_free_r+0x78>
 8008cdc:	6824      	ldr	r4, [r4, #0]
 8008cde:	4421      	add	r1, r4
 8008ce0:	1854      	adds	r4, r2, r1
 8008ce2:	42a3      	cmp	r3, r4
 8008ce4:	6011      	str	r1, [r2, #0]
 8008ce6:	d1dd      	bne.n	8008ca4 <_free_r+0x28>
 8008ce8:	681c      	ldr	r4, [r3, #0]
 8008cea:	685b      	ldr	r3, [r3, #4]
 8008cec:	6053      	str	r3, [r2, #4]
 8008cee:	4421      	add	r1, r4
 8008cf0:	6011      	str	r1, [r2, #0]
 8008cf2:	e7d7      	b.n	8008ca4 <_free_r+0x28>
 8008cf4:	d902      	bls.n	8008cfc <_free_r+0x80>
 8008cf6:	230c      	movs	r3, #12
 8008cf8:	6003      	str	r3, [r0, #0]
 8008cfa:	e7d3      	b.n	8008ca4 <_free_r+0x28>
 8008cfc:	6825      	ldr	r5, [r4, #0]
 8008cfe:	1961      	adds	r1, r4, r5
 8008d00:	428b      	cmp	r3, r1
 8008d02:	bf04      	itt	eq
 8008d04:	6819      	ldreq	r1, [r3, #0]
 8008d06:	685b      	ldreq	r3, [r3, #4]
 8008d08:	6063      	str	r3, [r4, #4]
 8008d0a:	bf04      	itt	eq
 8008d0c:	1949      	addeq	r1, r1, r5
 8008d0e:	6021      	streq	r1, [r4, #0]
 8008d10:	6054      	str	r4, [r2, #4]
 8008d12:	e7c7      	b.n	8008ca4 <_free_r+0x28>
 8008d14:	b003      	add	sp, #12
 8008d16:	bd30      	pop	{r4, r5, pc}
 8008d18:	20000b60 	.word	0x20000b60

08008d1c <_raise_r>:
 8008d1c:	291f      	cmp	r1, #31
 8008d1e:	b538      	push	{r3, r4, r5, lr}
 8008d20:	4604      	mov	r4, r0
 8008d22:	460d      	mov	r5, r1
 8008d24:	d904      	bls.n	8008d30 <_raise_r+0x14>
 8008d26:	2316      	movs	r3, #22
 8008d28:	6003      	str	r3, [r0, #0]
 8008d2a:	f04f 30ff 	mov.w	r0, #4294967295	; 0xffffffff
 8008d2e:	bd38      	pop	{r3, r4, r5, pc}
 8008d30:	6c42      	ldr	r2, [r0, #68]	; 0x44
 8008d32:	b112      	cbz	r2, 8008d3a <_raise_r+0x1e>
 8008d34:	f852 3021 	ldr.w	r3, [r2, r1, lsl #2]
 8008d38:	b94b      	cbnz	r3, 8008d4e <_raise_r+0x32>
 8008d3a:	4620      	mov	r0, r4
 8008d3c:	f000 f830 	bl	8008da0 <_getpid_r>
 8008d40:	462a      	mov	r2, r5
 8008d42:	4601      	mov	r1, r0
 8008d44:	4620      	mov	r0, r4
 8008d46:	e8bd 4038 	ldmia.w	sp!, {r3, r4, r5, lr}
 8008d4a:	f000 b817 	b.w	8008d7c <_kill_r>
 8008d4e:	2b01      	cmp	r3, #1
 8008d50:	d00a      	beq.n	8008d68 <_raise_r+0x4c>
 8008d52:	1c59      	adds	r1, r3, #1
 8008d54:	d103      	bne.n	8008d5e <_raise_r+0x42>
 8008d56:	2316      	movs	r3, #22
 8008d58:	6003      	str	r3, [r0, #0]
 8008d5a:	2001      	movs	r0, #1
 8008d5c:	e7e7      	b.n	8008d2e <_raise_r+0x12>
 8008d5e:	2400      	movs	r4, #0
 8008d60:	f842 4025 	str.w	r4, [r2, r5, lsl #2]
 8008d64:	4628      	mov	r0, r5
 8008d66:	4798      	blx	r3
 8008d68:	2000      	movs	r0, #0
 8008d6a:	e7e0      	b.n	8008d2e <_raise_r+0x12>

08008d6c <raise>:
 8008d6c:	4b02      	ldr	r3, [pc, #8]	; (8008d78 <raise+0xc>)
 8008d6e:	4601      	mov	r1, r0
 8008d70:	6818      	ldr	r0, [r3, #0]
 8008d72:	f7ff bfd3 	b.w	8008d1c <_raise_r>
 8008d76:	bf00      	nop
 8008d78:	20000720 	.word	0x20000720

08008d7c <_kill_r>:
 8008d7c:	b538      	push	{r3, r4, r5, lr}
 8008d7e:	4d07      	ldr	r5, [pc, #28]	; (8008d9c <_kill_r+0x20>)
 8008d80:	2300      	movs	r3, #0
 8008d82:	4604      	mov	r4, r0
 8008d84:	4608      	mov	r0, r1
 8008d86:	4611      	mov	r1, r2
 8008d88:	602b      	str	r3, [r5, #0]
 8008d8a:	f7f8 f9b7 	bl	80010fc <_kill>
 8008d8e:	1c43      	adds	r3, r0, #1
 8008d90:	d102      	bne.n	8008d98 <_kill_r+0x1c>
 8008d92:	682b      	ldr	r3, [r5, #0]
 8008d94:	b103      	cbz	r3, 8008d98 <_kill_r+0x1c>
 8008d96:	6023      	str	r3, [r4, #0]
 8008d98:	bd38      	pop	{r3, r4, r5, pc}
 8008d9a:	bf00      	nop
 8008d9c:	20000b64 	.word	0x20000b64

08008da0 <_getpid_r>:
 8008da0:	f7f8 b9a4 	b.w	80010ec <_getpid>

08008da4 <__malloc_lock>:
 8008da4:	4801      	ldr	r0, [pc, #4]	; (8008dac <__malloc_lock+0x8>)
 8008da6:	f000 b809 	b.w	8008dbc <__retarget_lock_acquire_recursive>
 8008daa:	bf00      	nop
 8008dac:	20000b6c 	.word	0x20000b6c

08008db0 <__malloc_unlock>:
 8008db0:	4801      	ldr	r0, [pc, #4]	; (8008db8 <__malloc_unlock+0x8>)
 8008db2:	f000 b804 	b.w	8008dbe <__retarget_lock_release_recursive>
 8008db6:	bf00      	nop
 8008db8:	20000b6c 	.word	0x20000b6c

08008dbc <__retarget_lock_acquire_recursive>:
 8008dbc:	4770      	bx	lr

08008dbe <__retarget_lock_release_recursive>:
 8008dbe:	4770      	bx	lr

08008dc0 <_init>:
 8008dc0:	b5f8      	push	{r3, r4, r5, r6, r7, lr}
 8008dc2:	bf00      	nop
 8008dc4:	bcf8      	pop	{r3, r4, r5, r6, r7}
 8008dc6:	bc08      	pop	{r3}
 8008dc8:	469e      	mov	lr, r3
 8008dca:	4770      	bx	lr

08008dcc <_fini>:
 8008dcc:	b5f8      	push	{r3, r4, r5, r6, r7, lr}
 8008dce:	bf00      	nop
 8008dd0:	bcf8      	pop	{r3, r4, r5, r6, r7}
 8008dd2:	bc08      	pop	{r3}
 8008dd4:	469e      	mov	lr, r3
 8008dd6:	4770      	bx	lr
